ARM GAS  C:\Users\Dan\AppData\Local\Temp\ccOls7dH.s 			page 1


   1              		.syntax unified
   2              		.cpu cortex-m3
   3              		.fpu softvfp
   4              		.eabi_attribute 20, 1
   5              		.eabi_attribute 21, 1
   6              		.eabi_attribute 23, 3
   7              		.eabi_attribute 24, 1
   8              		.eabi_attribute 25, 1
   9              		.eabi_attribute 26, 1
  10              		.eabi_attribute 30, 1
  11              		.eabi_attribute 34, 1
  12              		.eabi_attribute 18, 4
  13              		.thumb
  14              		.syntax unified
  15              		.file	"CLI.c"
  16              		.text
  17              	.Ltext0:
  18              		.cfi_sections	.debug_frame
  19              		.section	.text.CLI_Test,"ax",%progbits
  20              		.align	2
  21              		.global	CLI_Test
  22              		.thumb
  23              		.thumb_func
  24              		.type	CLI_Test, %function
  25              	CLI_Test:
  26              	.LFB71:
  27              		.file 1 "CLI.c"
   1:CLI.c         **** /* ========================================
   2:CLI.c         ****  *
   3:CLI.c         ****  * Copyright YOUR COMPANY, THE YEAR
   4:CLI.c         ****  * All Rights Reserved
   5:CLI.c         ****  * UNPUBLISHED, LICENSED SOFTWARE.
   6:CLI.c         ****  *
   7:CLI.c         ****  * CONFIDENTIAL AND PROPRIETARY INFORMATION
   8:CLI.c         ****  * WHICH IS THE PROPERTY OF your company.
   9:CLI.c         ****  *
  10:CLI.c         ****  * ========================================
  11:CLI.c         **** */
  12:CLI.c         **** 
  13:CLI.c         **** // commands consist of a key word followed by numbers or other words separated by spaces, and endin
  14:CLI.c         **** // commands are processed upon receipt of the CR character.
  15:CLI.c         **** // the first line word (words are separated by white space) is assumed to be the key word. It is co
  16:CLI.c         **** // key word table and the appropriate command function is called with the argc and argv variables c
  17:CLI.c         **** // the number of additional words and a pointer to their locations. (with each white space being re
  18:CLI.c         **** 
  19:CLI.c         **** // parse the command line
  20:CLI.c         **** //
  21:CLI.c         **** #include <CLI.h>
  22:CLI.c         **** 
  23:CLI.c         **** #include <stdlib.h>
  24:CLI.c         **** #include <string.h>
  25:CLI.c         **** #include <stdbool.h>
  26:CLI.c         **** #include "U_HW.h"
  27:CLI.c         **** #include "TestMessages.h"
  28:CLI.c         **** #include <stdio.h>
  29:CLI.c         **** 
  30:CLI.c         **** #define NUM_OF_ARGS 30  // maximum number of arguments
ARM GAS  C:\Users\Dan\AppData\Local\Temp\ccOls7dH.s 			page 2


  31:CLI.c         **** #define IN_BUFF_LEN 80
  32:CLI.c         **** 
  33:CLI.c         **** char InBuff[IN_BUFF_LEN];
  34:CLI.c         **** uint8_t InBuffCnt;  // line buffer position
  35:CLI.c         **** 
  36:CLI.c         **** static bool cliEcho = true;
  37:CLI.c         **** static bool cliOn = true;
  38:CLI.c         **** 
  39:CLI.c         **** char msg[32];
  40:CLI.c         **** 
  41:CLI.c         **** static inline void SetCliEcho(bool on) {
  42:CLI.c         ****     cliEcho = on;
  43:CLI.c         **** }
  44:CLI.c         **** 
  45:CLI.c         **** static inline bool GetCliEcho() {
  46:CLI.c         ****     return cliEcho;
  47:CLI.c         **** }
  48:CLI.c         **** 
  49:CLI.c         **** void Init_CLI(void)
  50:CLI.c         **** {
  51:CLI.c         ****     ClearInputBufferN(IN_BUFF_LEN);
  52:CLI.c         ****     // set the ECHO flag 
  53:CLI.c         ****     cliEcho = true;
  54:CLI.c         ****     // HelpScreen(0, NULL);     
  55:CLI.c         **** }
  56:CLI.c         **** 
  57:CLI.c         **** void CLI(void)
  58:CLI.c         **** {
  59:CLI.c         ****     if(U_CheckForRx())
  60:CLI.c         ****     {
  61:CLI.c         ****         char data = GetChar();
  62:CLI.c         ****         if(cliEcho) PutChar(data);      // if in ECHO mode then echo the character
  63:CLI.c         ****         switch (data)
  64:CLI.c         ****         {
  65:CLI.c         ****             case '\n'   : break; // newline - ignore
  66:CLI.c         ****             case '\r'   : // CR save the count and return
  67:CLI.c         ****                 ParseCommand(InBuff);
  68:CLI.c         ****                 ClearInputBufferN(InBuffCnt);
  69:CLI.c         ****                 break;
  70:CLI.c         ****             case 0x7f   :   // alt back space
  71:CLI.c         ****             case 0x08   :   // back space - back up one space 
  72:CLI.c         ****                 if(InBuffCnt > 0)
  73:CLI.c         ****                 {
  74:CLI.c         ****                     InBuffCnt--;  
  75:CLI.c         ****                     InBuff[InBuffCnt] = 0;  // back fill with zeros
  76:CLI.c         ****                     break;
  77:CLI.c         ****                 }
  78:CLI.c         ****             default     :
  79:CLI.c         ****                 if(InBuffCnt >= IN_BUFF_LEN)    // Message is too long! 
  80:CLI.c         ****                 {
  81:CLI.c         ****                     PutStr(CmdTooLong);
  82:CLI.c         ****                     ClearInputBufferN(InBuffCnt);
  83:CLI.c         ****                 }
  84:CLI.c         ****                 InBuff[InBuffCnt] = data;
  85:CLI.c         ****                 InBuffCnt++;
  86:CLI.c         ****                 break;
  87:CLI.c         ****         }
ARM GAS  C:\Users\Dan\AppData\Local\Temp\ccOls7dH.s 			page 3


  88:CLI.c         ****     }
  89:CLI.c         **** }
  90:CLI.c         **** 
  91:CLI.c         **** void ClearInputBufferN(uint8_t N)
  92:CLI.c         **** {
  93:CLI.c         ****     
  94:CLI.c         ****     for(uint8_t i = 0; i < N; i++)
  95:CLI.c         ****     {
  96:CLI.c         ****         InBuff[i] = 0;
  97:CLI.c         ****     }
  98:CLI.c         ****     InBuffCnt = 0;
  99:CLI.c         **** }
 100:CLI.c         **** 
 101:CLI.c         **** static inline char *getWord(char *buf)
 102:CLI.c         **** {
 103:CLI.c         ****     static char *ptr = NULL;    // static variable  is rememberd from call to call
 104:CLI.c         ****     char *start, *scan;
 105:CLI.c         ****     char term = ' ';
 106:CLI.c         ****     
 107:CLI.c         ****     if(buf != NULL)     // takes care of the command (key) word
 108:CLI.c         ****     {
 109:CLI.c         ****         ptr = buf;
 110:CLI.c         ****     }
 111:CLI.c         ****     while (((*ptr == ' ') || (*ptr == '\t')) && (*ptr != '\0')) // skip through spaces and tabs whi
 112:CLI.c         ****     {
 113:CLI.c         ****         ptr++;
 114:CLI.c         ****     }
 115:CLI.c         ****     if(*ptr == '\0')    // if we get a \0 then done
 116:CLI.c         ****     {
 117:CLI.c         ****         return NULL;
 118:CLI.c         ****     }
 119:CLI.c         ****     if((*ptr == '"') || (*ptr == '\''))     // parse stuff between quotes "" or ''
 120:CLI.c         ****     {
 121:CLI.c         ****         term = *ptr;
 122:CLI.c         ****         ptr++;
 123:CLI.c         ****     }
 124:CLI.c         ****     start = ptr;
 125:CLI.c         ****     while (*ptr != '\0')        
 126:CLI.c         ****     {
 127:CLI.c         ****         if(*ptr == '\\')
 128:CLI.c         ****         {
 129:CLI.c         ****             for(scan = ptr; *scan != '\0'; scan++)
 130:CLI.c         ****             {
 131:CLI.c         ****                 *scan = *(scan+1);
 132:CLI.c         ****             }
 133:CLI.c         ****             ptr++;
 134:CLI.c         ****             continue;
 135:CLI.c         ****         }
 136:CLI.c         ****         if((*ptr == term) || ((term == ' ') && (*ptr == '\t')))
 137:CLI.c         ****         {
 138:CLI.c         ****             *ptr = '\0';        // put the null termination in the argument list (this is how the a
 139:CLI.c         ****             ptr++;
 140:CLI.c         ****             return start;
 141:CLI.c         ****         }
 142:CLI.c         ****         ptr++;
 143:CLI.c         ****     }
 144:CLI.c         ****     if (ptr == start)       // there were no arguments
ARM GAS  C:\Users\Dan\AppData\Local\Temp\ccOls7dH.s 			page 4


 145:CLI.c         ****     {
 146:CLI.c         ****         return NULL;
 147:CLI.c         ****     }
 148:CLI.c         ****     return start;
 149:CLI.c         **** }
 150:CLI.c         **** 
 151:CLI.c         **** int ParseCommand(char *buf)
 152:CLI.c         **** {
 153:CLI.c         **** 	int argc;
 154:CLI.c         **** 	char *argv[NUM_OF_ARGS];
 155:CLI.c         **** 	char *w;
 156:CLI.c         **** 	
 157:CLI.c         **** 	if(buf[0] == 0)
 158:CLI.c         **** 	{
 159:CLI.c         ****         PutStr(Prompt);
 160:CLI.c         **** 		return 0;	// no command or arguments
 161:CLI.c         **** 	}
 162:CLI.c         **** 
 163:CLI.c         **** 	argc = 0;
 164:CLI.c         **** 	w = getWord(buf);
 165:CLI.c         **** 	while((argc < NUM_OF_ARGS) && (w != NULL))
 166:CLI.c         **** 	{
 167:CLI.c         ****         argv[argc++] = w;
 168:CLI.c         **** 		w = getWord(NULL);
 169:CLI.c         **** 	}
 170:CLI.c         **** 
 171:CLI.c         **** 	const char*  PstrPtr;
 172:CLI.c         **** 	
 173:CLI.c         **** 	// compare the first word with the CmdName Key word in the CMD Parse Table
 174:CLI.c         **** 	for(uint8_t i = 0; i < NUMOFCMDS; i++)
 175:CLI.c         **** 	{
 176:CLI.c         **** 		PstrPtr = CMD_Parse_Table[i].name;
 177:CLI.c         **** 		if(strcmp(argv[0], PstrPtr) == 0)
 178:CLI.c         **** 		{
 179:CLI.c         **** 			int rval = CMD_Parse_Table[i].func(argc, argv);	// call the command function
 180:CLI.c         **** 
 181:CLI.c         ****             PutStr(Prompt);
 182:CLI.c         ****             return rval;
 183:CLI.c         **** 		}
 184:CLI.c         **** 	}
 185:CLI.c         **** 	PutStr(BadMsgString);
 186:CLI.c         ****     PutStr(Prompt);
 187:CLI.c         **** 	return -1;
 188:CLI.c         **** }
 189:CLI.c         **** 
 190:CLI.c         **** CLI_CMD(CLI_Test)
 191:CLI.c         **** {
  28              		.loc 1 191 0
  29              		.cfi_startproc
  30              		@ args = 0, pretend = 0, frame = 0
  31              		@ frame_needed = 0, uses_anonymous_args = 0
  32              	.LVL0:
  33 0000 70B5     		push	{r4, r5, r6, lr}
  34              		.cfi_def_cfa_offset 16
  35              		.cfi_offset 4, -16
  36              		.cfi_offset 5, -12
  37              		.cfi_offset 6, -8
ARM GAS  C:\Users\Dan\AppData\Local\Temp\ccOls7dH.s 			page 5


  38              		.cfi_offset 14, -4
  39 0002 0546     		mov	r5, r0
  40 0004 0E46     		mov	r6, r1
 192:CLI.c         ****     PutChar('\r');
  41              		.loc 1 192 0
  42 0006 0D20     		movs	r0, #13
  43              	.LVL1:
  44 0008 FFF7FEFF 		bl	USB_PutChar
  45              	.LVL2:
  46              	.LBB8:
 193:CLI.c         ****     for(uint8_t i = 0; i < argc; i++)
  47              		.loc 1 193 0
  48 000c 0024     		movs	r4, #0
  49 000e 05E0     		b	.L2
  50              	.LVL3:
  51              	.L3:
 194:CLI.c         ****     {
 195:CLI.c         ****         PutStr(argv[i]);
  52              		.loc 1 195 0 discriminator 3
  53 0010 56F82400 		ldr	r0, [r6, r4, lsl #2]
  54 0014 FFF7FEFF 		bl	USB_PutString
  55              	.LVL4:
 193:CLI.c         ****     for(uint8_t i = 0; i < argc; i++)
  56              		.loc 1 193 0 discriminator 3
  57 0018 0134     		adds	r4, r4, #1
  58              	.LVL5:
  59 001a E4B2     		uxtb	r4, r4
  60              	.LVL6:
  61              	.L2:
 193:CLI.c         ****     for(uint8_t i = 0; i < argc; i++)
  62              		.loc 1 193 0 is_stmt 0 discriminator 1
  63 001c AC42     		cmp	r4, r5
  64 001e F7DB     		blt	.L3
  65              	.LBE8:
 196:CLI.c         ****     }
 197:CLI.c         ****     return 0;
 198:CLI.c         **** }
  66              		.loc 1 198 0 is_stmt 1
  67 0020 0020     		movs	r0, #0
  68 0022 70BD     		pop	{r4, r5, r6, pc}
  69              		.cfi_endproc
  70              	.LFE71:
  71              		.size	CLI_Test, .-CLI_Test
  72              		.section	.text.HelpScreen,"ax",%progbits
  73              		.align	2
  74              		.global	HelpScreen
  75              		.thumb
  76              		.thumb_func
  77              		.type	HelpScreen, %function
  78              	HelpScreen:
  79              	.LFB72:
 199:CLI.c         **** 
 200:CLI.c         **** CLI_CMD(HelpScreen)
 201:CLI.c         **** {
  80              		.loc 1 201 0
  81              		.cfi_startproc
  82              		@ args = 0, pretend = 0, frame = 0
ARM GAS  C:\Users\Dan\AppData\Local\Temp\ccOls7dH.s 			page 6


  83              		@ frame_needed = 0, uses_anonymous_args = 0
  84              	.LVL7:
  85 0000 38B5     		push	{r3, r4, r5, lr}
  86              		.cfi_def_cfa_offset 16
  87              		.cfi_offset 3, -16
  88              		.cfi_offset 4, -12
  89              		.cfi_offset 5, -8
  90              		.cfi_offset 14, -4
  91              	.LVL8:
 202:CLI.c         ****     UNUSED_ARG(argc);UNUSED_ARG(argv);
 203:CLI.c         ****     
 204:CLI.c         ****     const char * const *pc = HelpHeader;
  92              		.loc 1 204 0
  93 0002 154C     		ldr	r4, .L13
 205:CLI.c         ****     for (; *pc; pc++)
  94              		.loc 1 205 0
  95 0004 05E0     		b	.L6
  96              	.LVL9:
  97              	.L7:
 206:CLI.c         ****     {
 207:CLI.c         ****         PutStr(*pc);
  98              		.loc 1 207 0 discriminator 2
  99 0006 FFF7FEFF 		bl	USB_PutString
 100              	.LVL10:
 208:CLI.c         ****         PutChar('\r');
 101              		.loc 1 208 0 discriminator 2
 102 000a 0D20     		movs	r0, #13
 103 000c FFF7FEFF 		bl	USB_PutChar
 104              	.LVL11:
 205:CLI.c         ****     for (; *pc; pc++)
 105              		.loc 1 205 0 discriminator 2
 106 0010 0434     		adds	r4, r4, #4
 107              	.LVL12:
 108              	.L6:
 205:CLI.c         ****     for (; *pc; pc++)
 109              		.loc 1 205 0 is_stmt 0 discriminator 1
 110 0012 2068     		ldr	r0, [r4]
 111 0014 0028     		cmp	r0, #0
 112 0016 F6D1     		bne	.L7
 113 0018 0025     		movs	r5, #0
 114 001a 104C     		ldr	r4, .L13+4
 115              	.LVL13:
 116 001c 18E0     		b	.L8
 117              	.LVL14:
 118              	.L11:
 119              	.LBB9:
 209:CLI.c         ****     }
 210:CLI.c         ****     const struct CmdDesc *pcd = CMD_Parse_Table;
 211:CLI.c         ****     for(uint8_t i = 0;i < NUMOFCMDS; pcd++, i++)
 212:CLI.c         ****     {
 213:CLI.c         **** //        uint16_t clen = strlen(pcd->name);
 214:CLI.c         **** //        maybe add the "tab" spacing so the help message looks nice...        
 215:CLI.c         ****         PutStr(pcd->name);
 120              		.loc 1 215 0 is_stmt 1
 121 001e 2068     		ldr	r0, [r4]
 122 0020 FFF7FEFF 		bl	USB_PutString
 123              	.LVL15:
ARM GAS  C:\Users\Dan\AppData\Local\Temp\ccOls7dH.s 			page 7


 216:CLI.c         ****         if(pcd->args) 
 124              		.loc 1 216 0
 125 0024 6368     		ldr	r3, [r4, #4]
 126 0026 2BB1     		cbz	r3, .L9
 217:CLI.c         ****         {
 218:CLI.c         ****             PutChar(' ');
 127              		.loc 1 218 0
 128 0028 2020     		movs	r0, #32
 129 002a FFF7FEFF 		bl	USB_PutChar
 130              	.LVL16:
 219:CLI.c         ****             PutStr(pcd->args);
 131              		.loc 1 219 0
 132 002e 6068     		ldr	r0, [r4, #4]
 133 0030 FFF7FEFF 		bl	USB_PutString
 134              	.LVL17:
 135              	.L9:
 220:CLI.c         ****         }
 221:CLI.c         ****         if(pcd->desc)
 136              		.loc 1 221 0
 137 0034 A368     		ldr	r3, [r4, #8]
 138 0036 2BB1     		cbz	r3, .L10
 222:CLI.c         ****         {
 223:CLI.c         ****             PutStr(" - ");
 139              		.loc 1 223 0
 140 0038 0948     		ldr	r0, .L13+8
 141 003a FFF7FEFF 		bl	USB_PutString
 142              	.LVL18:
 224:CLI.c         ****             PutStr(pcd->desc);
 143              		.loc 1 224 0
 144 003e A068     		ldr	r0, [r4, #8]
 145 0040 FFF7FEFF 		bl	USB_PutString
 146              	.LVL19:
 147              	.L10:
 225:CLI.c         ****         }
 226:CLI.c         ****         PutChar('\r');
 148              		.loc 1 226 0 discriminator 2
 149 0044 0D20     		movs	r0, #13
 150 0046 FFF7FEFF 		bl	USB_PutChar
 151              	.LVL20:
 211:CLI.c         ****     {
 152              		.loc 1 211 0 discriminator 2
 153 004a 1034     		adds	r4, r4, #16
 154              	.LVL21:
 155 004c 0135     		adds	r5, r5, #1
 156              	.LVL22:
 157 004e EDB2     		uxtb	r5, r5
 158              	.LVL23:
 159              	.L8:
 211:CLI.c         ****     {
 160              		.loc 1 211 0 is_stmt 0 discriminator 1
 161 0050 1B2D     		cmp	r5, #27
 162 0052 E4D9     		bls	.L11
 163              	.LBE9:
 227:CLI.c         ****     }
 228:CLI.c         ****     return 0;
 229:CLI.c         ****  }
 164              		.loc 1 229 0 is_stmt 1
ARM GAS  C:\Users\Dan\AppData\Local\Temp\ccOls7dH.s 			page 8


 165 0054 0020     		movs	r0, #0
 166 0056 38BD     		pop	{r3, r4, r5, pc}
 167              	.LVL24:
 168              	.L14:
 169              		.align	2
 170              	.L13:
 171 0058 00000000 		.word	.LANCHOR0
 172 005c 20000000 		.word	.LANCHOR0+32
 173 0060 00000000 		.word	.LC0
 174              		.cfi_endproc
 175              	.LFE72:
 176              		.size	HelpScreen, .-HelpScreen
 177              		.section	.text.Echo_Cmd,"ax",%progbits
 178              		.align	2
 179              		.global	Echo_Cmd
 180              		.thumb
 181              		.thumb_func
 182              		.type	Echo_Cmd, %function
 183              	Echo_Cmd:
 184              	.LFB73:
 230:CLI.c         **** 
 231:CLI.c         **** CLI_CMD(Echo_Cmd)
 232:CLI.c         **** {
 185              		.loc 1 232 0
 186              		.cfi_startproc
 187              		@ args = 0, pretend = 0, frame = 0
 188              		@ frame_needed = 0, uses_anonymous_args = 0
 189              	.LVL25:
 190 0000 10B5     		push	{r4, lr}
 191              		.cfi_def_cfa_offset 8
 192              		.cfi_offset 4, -8
 193              		.cfi_offset 14, -4
 233:CLI.c         ****         if (argc < 2)
 194              		.loc 1 233 0
 195 0002 0128     		cmp	r0, #1
 196 0004 0EDC     		bgt	.L16
 234:CLI.c         ****     {
 235:CLI.c         ****         PutStr("Echo is ");
 197              		.loc 1 235 0
 198 0006 1348     		ldr	r0, .L23
 199              	.LVL26:
 200 0008 FFF7FEFF 		bl	USB_PutString
 201              	.LVL27:
 202              	.LBB10:
 203              	.LBB11:
  46:CLI.c         **** }
 204              		.loc 1 46 0
 205 000c 124B     		ldr	r3, .L23+4
 206 000e 1B78     		ldrb	r3, [r3]	@ zero_extendqisi2
 207              	.LBE11:
 208              	.LBE10:
 236:CLI.c         ****         PutStr(GetCliEcho() ? "ON" : "OFF");
 209              		.loc 1 236 0
 210 0010 0BB1     		cbz	r3, .L21
 211 0012 1248     		ldr	r0, .L23+8
 212 0014 00E0     		b	.L17
 213              	.L21:
ARM GAS  C:\Users\Dan\AppData\Local\Temp\ccOls7dH.s 			page 9


 214 0016 1248     		ldr	r0, .L23+12
 215              	.L17:
 216              		.loc 1 236 0 is_stmt 0 discriminator 4
 217 0018 FFF7FEFF 		bl	USB_PutString
 218              	.LVL28:
 237:CLI.c         ****         PutChar('\r');
 219              		.loc 1 237 0 is_stmt 1 discriminator 4
 220 001c 0D20     		movs	r0, #13
 221 001e FFF7FEFF 		bl	USB_PutChar
 222              	.LVL29:
 223 0022 15E0     		b	.L18
 224              	.LVL30:
 225              	.L16:
 238:CLI.c         ****     }
 239:CLI.c         ****     else {
 240:CLI.c         ****         if(strcmp(argv[1], "off") == 0) SetCliEcho(false);
 226              		.loc 1 240 0
 227 0024 4C68     		ldr	r4, [r1, #4]
 228 0026 0F49     		ldr	r1, .L23+16
 229              	.LVL31:
 230 0028 2046     		mov	r0, r4
 231              	.LVL32:
 232 002a FFF7FEFF 		bl	strcmp
 233              	.LVL33:
 234 002e 18B9     		cbnz	r0, .L19
 235              	.LVL34:
 236              	.LBB12:
 237              	.LBB13:
  42:CLI.c         **** }
 238              		.loc 1 42 0
 239 0030 0022     		movs	r2, #0
 240 0032 094B     		ldr	r3, .L23+4
 241 0034 1A70     		strb	r2, [r3]
 242 0036 0BE0     		b	.L18
 243              	.LVL35:
 244              	.L19:
 245              	.LBE13:
 246              	.LBE12:
 241:CLI.c         ****         else if(strcmp(argv[1], "on") == 0) SetCliEcho(true);
 247              		.loc 1 241 0
 248 0038 0B49     		ldr	r1, .L23+20
 249 003a 2046     		mov	r0, r4
 250 003c FFF7FEFF 		bl	strcmp
 251              	.LVL36:
 252 0040 18B9     		cbnz	r0, .L20
 253              	.LVL37:
 254              	.LBB14:
 255              	.LBB15:
  42:CLI.c         **** }
 256              		.loc 1 42 0
 257 0042 0122     		movs	r2, #1
 258 0044 044B     		ldr	r3, .L23+4
 259 0046 1A70     		strb	r2, [r3]
 260 0048 02E0     		b	.L18
 261              	.LVL38:
 262              	.L20:
 263              	.LBE15:
ARM GAS  C:\Users\Dan\AppData\Local\Temp\ccOls7dH.s 			page 10


 264              	.LBE14:
 242:CLI.c         ****         else 
 243:CLI.c         ****         {            // error message
 244:CLI.c         ****             PutStr("Usage echo 'on'/'off'");
 265              		.loc 1 244 0
 266 004a 0848     		ldr	r0, .L23+24
 267 004c FFF7FEFF 		bl	USB_PutString
 268              	.LVL39:
 269              	.L18:
 245:CLI.c         ****         }
 246:CLI.c         ****     }
 247:CLI.c         ****     return 0;
 248:CLI.c         **** }
 270              		.loc 1 248 0
 271 0050 0020     		movs	r0, #0
 272 0052 10BD     		pop	{r4, pc}
 273              	.L24:
 274              		.align	2
 275              	.L23:
 276 0054 0C000000 		.word	.LC3
 277 0058 00000000 		.word	.LANCHOR1
 278 005c 04000000 		.word	.LC1
 279 0060 08000000 		.word	.LC2
 280 0064 18000000 		.word	.LC4
 281 0068 1C000000 		.word	.LC5
 282 006c 20000000 		.word	.LC6
 283              		.cfi_endproc
 284              	.LFE73:
 285              		.size	Echo_Cmd, .-Echo_Cmd
 286              		.section	.text.UsbCfg_Cmd,"ax",%progbits
 287              		.align	2
 288              		.global	UsbCfg_Cmd
 289              		.thumb
 290              		.thumb_func
 291              		.type	UsbCfg_Cmd, %function
 292              	UsbCfg_Cmd:
 293              	.LFB74:
 249:CLI.c         **** 
 250:CLI.c         **** CLI_CMD(UsbCfg_Cmd)
 251:CLI.c         **** {
 294              		.loc 1 251 0
 295              		.cfi_startproc
 296              		@ args = 0, pretend = 0, frame = 0
 297              		@ frame_needed = 0, uses_anonymous_args = 0
 298              	.LVL40:
 299 0000 10B5     		push	{r4, lr}
 300              		.cfi_def_cfa_offset 8
 301              		.cfi_offset 4, -8
 302              		.cfi_offset 14, -4
 252:CLI.c         ****     UNUSED_ARG(argc);UNUSED_ARG(argv); 
 253:CLI.c         ****     uint8 temp;
 254:CLI.c         ****     temp = USBUART_GetConfiguration();
 303              		.loc 1 254 0
 304 0002 FFF7FEFF 		bl	USBUART_GetConfiguration
 305              	.LVL41:
 255:CLI.c         ****     sprintf(msg, "USB Config = 0x%X\n", temp);
 306              		.loc 1 255 0
ARM GAS  C:\Users\Dan\AppData\Local\Temp\ccOls7dH.s 			page 11


 307 0006 054C     		ldr	r4, .L27
 308 0008 0246     		mov	r2, r0
 309 000a 0549     		ldr	r1, .L27+4
 310 000c 2046     		mov	r0, r4
 311              	.LVL42:
 312 000e FFF7FEFF 		bl	sprintf
 313              	.LVL43:
 256:CLI.c         ****     PutStr(msg);
 314              		.loc 1 256 0
 315 0012 2046     		mov	r0, r4
 316 0014 FFF7FEFF 		bl	USB_PutString
 317              	.LVL44:
 257:CLI.c         ****     return 0;
 258:CLI.c         **** }
 318              		.loc 1 258 0
 319 0018 0020     		movs	r0, #0
 320 001a 10BD     		pop	{r4, pc}
 321              	.L28:
 322              		.align	2
 323              	.L27:
 324 001c 00000000 		.word	msg
 325 0020 38000000 		.word	.LC7
 326              		.cfi_endproc
 327              	.LFE74:
 328              		.size	UsbCfg_Cmd, .-UsbCfg_Cmd
 329              		.section	.text.ClearInputBufferN,"ax",%progbits
 330              		.align	2
 331              		.global	ClearInputBufferN
 332              		.thumb
 333              		.thumb_func
 334              		.type	ClearInputBufferN, %function
 335              	ClearInputBufferN:
 336              	.LFB68:
  92:CLI.c         ****     
 337              		.loc 1 92 0
 338              		.cfi_startproc
 339              		@ args = 0, pretend = 0, frame = 0
 340              		@ frame_needed = 0, uses_anonymous_args = 0
 341              		@ link register save eliminated.
 342              	.LVL45:
 343              	.LBB16:
  94:CLI.c         ****     {
 344              		.loc 1 94 0
 345 0000 0023     		movs	r3, #0
 346 0002 04E0     		b	.L30
 347              	.LVL46:
 348              	.L31:
  96:CLI.c         ****     }
 349              		.loc 1 96 0 discriminator 3
 350 0004 0021     		movs	r1, #0
 351 0006 054A     		ldr	r2, .L32
 352 0008 D154     		strb	r1, [r2, r3]
  94:CLI.c         ****     {
 353              		.loc 1 94 0 discriminator 3
 354 000a 0133     		adds	r3, r3, #1
 355              	.LVL47:
 356 000c DBB2     		uxtb	r3, r3
ARM GAS  C:\Users\Dan\AppData\Local\Temp\ccOls7dH.s 			page 12


 357              	.LVL48:
 358              	.L30:
  94:CLI.c         ****     {
 359              		.loc 1 94 0 is_stmt 0 discriminator 1
 360 000e 8342     		cmp	r3, r0
 361 0010 F8D3     		bcc	.L31
 362              	.LBE16:
  98:CLI.c         **** }
 363              		.loc 1 98 0 is_stmt 1
 364 0012 0022     		movs	r2, #0
 365 0014 024B     		ldr	r3, .L32+4
 366              	.LVL49:
 367 0016 1A70     		strb	r2, [r3]
 368 0018 7047     		bx	lr
 369              	.L33:
 370 001a 00BF     		.align	2
 371              	.L32:
 372 001c 00000000 		.word	InBuff
 373 0020 00000000 		.word	InBuffCnt
 374              		.cfi_endproc
 375              	.LFE68:
 376              		.size	ClearInputBufferN, .-ClearInputBufferN
 377              		.section	.text.Init_CLI,"ax",%progbits
 378              		.align	2
 379              		.global	Init_CLI
 380              		.thumb
 381              		.thumb_func
 382              		.type	Init_CLI, %function
 383              	Init_CLI:
 384              	.LFB66:
  50:CLI.c         ****     ClearInputBufferN(IN_BUFF_LEN);
 385              		.loc 1 50 0
 386              		.cfi_startproc
 387              		@ args = 0, pretend = 0, frame = 0
 388              		@ frame_needed = 0, uses_anonymous_args = 0
 389 0000 08B5     		push	{r3, lr}
 390              		.cfi_def_cfa_offset 8
 391              		.cfi_offset 3, -8
 392              		.cfi_offset 14, -4
  51:CLI.c         ****     // set the ECHO flag 
 393              		.loc 1 51 0
 394 0002 5020     		movs	r0, #80
 395 0004 FFF7FEFF 		bl	ClearInputBufferN
 396              	.LVL50:
  53:CLI.c         ****     // HelpScreen(0, NULL);     
 397              		.loc 1 53 0
 398 0008 0122     		movs	r2, #1
 399 000a 014B     		ldr	r3, .L36
 400 000c 1A70     		strb	r2, [r3]
 401 000e 08BD     		pop	{r3, pc}
 402              	.L37:
 403              		.align	2
 404              	.L36:
 405 0010 00000000 		.word	.LANCHOR1
 406              		.cfi_endproc
 407              	.LFE66:
 408              		.size	Init_CLI, .-Init_CLI
ARM GAS  C:\Users\Dan\AppData\Local\Temp\ccOls7dH.s 			page 13


 409              		.section	.text.ParseCommand,"ax",%progbits
 410              		.align	2
 411              		.global	ParseCommand
 412              		.thumb
 413              		.thumb_func
 414              		.type	ParseCommand, %function
 415              	ParseCommand:
 416              	.LFB70:
 152:CLI.c         **** 	int argc;
 417              		.loc 1 152 0
 418              		.cfi_startproc
 419              		@ args = 0, pretend = 0, frame = 120
 420              		@ frame_needed = 0, uses_anonymous_args = 0
 421              	.LVL51:
 422 0000 F0B5     		push	{r4, r5, r6, r7, lr}
 423              		.cfi_def_cfa_offset 20
 424              		.cfi_offset 4, -20
 425              		.cfi_offset 5, -16
 426              		.cfi_offset 6, -12
 427              		.cfi_offset 7, -8
 428              		.cfi_offset 14, -4
 429 0002 9FB0     		sub	sp, sp, #124
 430              		.cfi_def_cfa_offset 144
 157:CLI.c         **** 	{
 431              		.loc 1 157 0
 432 0004 0378     		ldrb	r3, [r0]	@ zero_extendqisi2
 433 0006 23B9     		cbnz	r3, .L39
 159:CLI.c         **** 		return 0;	// no command or arguments
 434              		.loc 1 159 0
 435 0008 6448     		ldr	r0, .L88
 436              	.LVL52:
 437 000a FFF7FEFF 		bl	USB_PutString
 438              	.LVL53:
 160:CLI.c         **** 	}
 439              		.loc 1 160 0
 440 000e 0020     		movs	r0, #0
 441 0010 C2E0     		b	.L40
 442              	.LVL54:
 443              	.L39:
 444              	.LBB23:
 445              	.LBB24:
 107:CLI.c         ****     {
 446              		.loc 1 107 0
 447 0012 28B1     		cbz	r0, .L41
 109:CLI.c         ****     }
 448              		.loc 1 109 0
 449 0014 624B     		ldr	r3, .L88+4
 450 0016 1860     		str	r0, [r3]
 451 0018 02E0     		b	.L41
 452              	.LVL55:
 453              	.L44:
 113:CLI.c         ****     }
 454              		.loc 1 113 0
 455 001a 0133     		adds	r3, r3, #1
 456 001c 604A     		ldr	r2, .L88+4
 457 001e 1360     		str	r3, [r2]
 458              	.L41:
ARM GAS  C:\Users\Dan\AppData\Local\Temp\ccOls7dH.s 			page 14


 111:CLI.c         ****     {
 459              		.loc 1 111 0
 460 0020 5F4B     		ldr	r3, .L88+4
 461 0022 1B68     		ldr	r3, [r3]
 462 0024 1878     		ldrb	r0, [r3]	@ zero_extendqisi2
 463 0026 2028     		cmp	r0, #32
 464 0028 01D0     		beq	.L42
 465 002a 0928     		cmp	r0, #9
 466 002c 01D1     		bne	.L43
 467              	.L42:
 468 002e 0028     		cmp	r0, #0
 469 0030 F3D1     		bne	.L44
 470              	.L43:
 115:CLI.c         ****     {
 471              		.loc 1 115 0
 472 0032 0028     		cmp	r0, #0
 473 0034 32D0     		beq	.L76
 119:CLI.c         ****     {
 474              		.loc 1 119 0
 475 0036 2228     		cmp	r0, #34
 476 0038 01D0     		beq	.L46
 477 003a 2728     		cmp	r0, #39
 478 003c 03D1     		bne	.L77
 479              	.L46:
 480              	.LVL56:
 122:CLI.c         ****     }
 481              		.loc 1 122 0
 482 003e 0133     		adds	r3, r3, #1
 483 0040 574A     		ldr	r2, .L88+4
 484 0042 1360     		str	r3, [r2]
 485 0044 00E0     		b	.L47
 486              	.LVL57:
 487              	.L77:
 105:CLI.c         ****     
 488              		.loc 1 105 0
 489 0046 2020     		movs	r0, #32
 490              	.LVL58:
 491              	.L47:
 124:CLI.c         ****     while (*ptr != '\0')        
 492              		.loc 1 124 0
 493 0048 554B     		ldr	r3, .L88+4
 494 004a 1C68     		ldr	r4, [r3]
 495              	.LVL59:
 496 004c 1EE0     		b	.L48
 497              	.L55:
 127:CLI.c         ****         {
 498              		.loc 1 127 0
 499 004e 5C2B     		cmp	r3, #92
 500 0050 0CD1     		bne	.L85
 501 0052 03E0     		b	.L78
 502              	.LVL60:
 503              	.L51:
 131:CLI.c         ****             }
 504              		.loc 1 131 0
 505 0054 5A78     		ldrb	r2, [r3, #1]	@ zero_extendqisi2
 506 0056 03F8012B 		strb	r2, [r3], #1
 507              	.LVL61:
ARM GAS  C:\Users\Dan\AppData\Local\Temp\ccOls7dH.s 			page 15


 508 005a 00E0     		b	.L49
 509              	.LVL62:
 510              	.L78:
 127:CLI.c         ****         {
 511              		.loc 1 127 0
 512 005c 0B46     		mov	r3, r1
 513              	.L49:
 514              	.LVL63:
 129:CLI.c         ****             {
 515              		.loc 1 129 0
 516 005e 1A78     		ldrb	r2, [r3]	@ zero_extendqisi2
 517 0060 002A     		cmp	r2, #0
 518 0062 F7D1     		bne	.L51
 133:CLI.c         ****             continue;
 519              		.loc 1 133 0
 520 0064 0131     		adds	r1, r1, #1
 521 0066 4E4B     		ldr	r3, .L88+4
 522              	.LVL64:
 523 0068 1960     		str	r1, [r3]
 524 006a 0FE0     		b	.L48
 525              	.L85:
 136:CLI.c         ****         {
 526              		.loc 1 136 0
 527 006c 8342     		cmp	r3, r0
 528 006e 03D0     		beq	.L53
 529 0070 2028     		cmp	r0, #32
 530 0072 08D1     		bne	.L54
 531 0074 092B     		cmp	r3, #9
 532 0076 06D1     		bne	.L54
 533              	.L53:
 138:CLI.c         ****             ptr++;
 534              		.loc 1 138 0
 535 0078 0023     		movs	r3, #0
 536 007a 01F8013B 		strb	r3, [r1], #1
 139:CLI.c         ****             return start;
 537              		.loc 1 139 0
 538 007e 484B     		ldr	r3, .L88+4
 539 0080 1960     		str	r1, [r3]
 140:CLI.c         ****         }
 540              		.loc 1 140 0
 541 0082 2346     		mov	r3, r4
 542 0084 0DE0     		b	.L45
 543              	.L54:
 142:CLI.c         ****     }
 544              		.loc 1 142 0
 545 0086 0131     		adds	r1, r1, #1
 546 0088 454B     		ldr	r3, .L88+4
 547 008a 1960     		str	r1, [r3]
 548              	.L48:
 125:CLI.c         ****     {
 549              		.loc 1 125 0
 550 008c 444B     		ldr	r3, .L88+4
 551 008e 1968     		ldr	r1, [r3]
 552 0090 0B78     		ldrb	r3, [r1]	@ zero_extendqisi2
 553 0092 002B     		cmp	r3, #0
 554 0094 DBD1     		bne	.L55
 144:CLI.c         ****     {
ARM GAS  C:\Users\Dan\AppData\Local\Temp\ccOls7dH.s 			page 16


 555              		.loc 1 144 0
 556 0096 8C42     		cmp	r4, r1
 557 0098 02D1     		bne	.L79
 558 009a 02E0     		b	.L45
 559              	.LVL65:
 560              	.L76:
 117:CLI.c         ****     }
 561              		.loc 1 117 0
 562 009c 0023     		movs	r3, #0
 563 009e 00E0     		b	.L45
 564              	.LVL66:
 565              	.L79:
 148:CLI.c         **** }
 566              		.loc 1 148 0
 567 00a0 2346     		mov	r3, r4
 568              	.LVL67:
 569              	.L45:
 570              	.LBE24:
 571              	.LBE23:
 163:CLI.c         **** 	w = getWord(buf);
 572              		.loc 1 163 0
 573 00a2 0025     		movs	r5, #0
 165:CLI.c         **** 	{
 574              		.loc 1 165 0
 575 00a4 4BE0     		b	.L56
 576              	.LVL68:
 577              	.L73:
 167:CLI.c         **** 		w = getWord(NULL);
 578              		.loc 1 167 0
 579 00a6 6C1C     		adds	r4, r5, #1
 580              	.LVL69:
 581 00a8 1EAA     		add	r2, sp, #120
 582 00aa 02EB8505 		add	r5, r2, r5, lsl #2
 583 00ae 45F8783C 		str	r3, [r5, #-120]
 584              	.LVL70:
 585 00b2 02E0     		b	.L57
 586              	.LVL71:
 587              	.L60:
 588              	.LBB25:
 589              	.LBB26:
 113:CLI.c         ****     }
 590              		.loc 1 113 0
 591 00b4 0133     		adds	r3, r3, #1
 592 00b6 3A4A     		ldr	r2, .L88+4
 593 00b8 1360     		str	r3, [r2]
 594              	.L57:
 111:CLI.c         ****     {
 595              		.loc 1 111 0
 596 00ba 394B     		ldr	r3, .L88+4
 597 00bc 1B68     		ldr	r3, [r3]
 598 00be 1878     		ldrb	r0, [r3]	@ zero_extendqisi2
 599 00c0 2028     		cmp	r0, #32
 600 00c2 01D0     		beq	.L58
 601 00c4 0928     		cmp	r0, #9
 602 00c6 01D1     		bne	.L59
 603              	.L58:
 604 00c8 0028     		cmp	r0, #0
ARM GAS  C:\Users\Dan\AppData\Local\Temp\ccOls7dH.s 			page 17


 605 00ca F3D1     		bne	.L60
 606              	.L59:
 115:CLI.c         ****     {
 607              		.loc 1 115 0
 608 00cc 0028     		cmp	r0, #0
 609 00ce 32D0     		beq	.L80
 119:CLI.c         ****     {
 610              		.loc 1 119 0
 611 00d0 2228     		cmp	r0, #34
 612 00d2 01D0     		beq	.L62
 613 00d4 2728     		cmp	r0, #39
 614 00d6 03D1     		bne	.L81
 615              	.L62:
 616              	.LVL72:
 122:CLI.c         ****     }
 617              		.loc 1 122 0
 618 00d8 0133     		adds	r3, r3, #1
 619 00da 314A     		ldr	r2, .L88+4
 620 00dc 1360     		str	r3, [r2]
 621 00de 00E0     		b	.L63
 622              	.LVL73:
 623              	.L81:
 105:CLI.c         ****     
 624              		.loc 1 105 0
 625 00e0 2020     		movs	r0, #32
 626              	.LVL74:
 627              	.L63:
 124:CLI.c         ****     while (*ptr != '\0')        
 628              		.loc 1 124 0
 629 00e2 2F4B     		ldr	r3, .L88+4
 630 00e4 1D68     		ldr	r5, [r3]
 631              	.LVL75:
 632 00e6 1EE0     		b	.L64
 633              	.LVL76:
 634              	.L71:
 127:CLI.c         ****         {
 635              		.loc 1 127 0
 636 00e8 5C2B     		cmp	r3, #92
 637 00ea 0CD1     		bne	.L86
 638 00ec 03E0     		b	.L82
 639              	.LVL77:
 640              	.L67:
 131:CLI.c         ****             }
 641              		.loc 1 131 0
 642 00ee 5A78     		ldrb	r2, [r3, #1]	@ zero_extendqisi2
 643 00f0 03F8012B 		strb	r2, [r3], #1
 644              	.LVL78:
 645 00f4 00E0     		b	.L65
 646              	.LVL79:
 647              	.L82:
 127:CLI.c         ****         {
 648              		.loc 1 127 0
 649 00f6 0B46     		mov	r3, r1
 650              	.L65:
 651              	.LVL80:
 129:CLI.c         ****             {
 652              		.loc 1 129 0
ARM GAS  C:\Users\Dan\AppData\Local\Temp\ccOls7dH.s 			page 18


 653 00f8 1A78     		ldrb	r2, [r3]	@ zero_extendqisi2
 654 00fa 002A     		cmp	r2, #0
 655 00fc F7D1     		bne	.L67
 133:CLI.c         ****             continue;
 656              		.loc 1 133 0
 657 00fe 0131     		adds	r1, r1, #1
 658 0100 274B     		ldr	r3, .L88+4
 659              	.LVL81:
 660 0102 1960     		str	r1, [r3]
 661 0104 0FE0     		b	.L64
 662              	.L86:
 136:CLI.c         ****         {
 663              		.loc 1 136 0
 664 0106 8342     		cmp	r3, r0
 665 0108 03D0     		beq	.L69
 666 010a 2028     		cmp	r0, #32
 667 010c 08D1     		bne	.L70
 668 010e 092B     		cmp	r3, #9
 669 0110 06D1     		bne	.L70
 670              	.L69:
 138:CLI.c         ****             ptr++;
 671              		.loc 1 138 0
 672 0112 0023     		movs	r3, #0
 673 0114 01F8013B 		strb	r3, [r1], #1
 139:CLI.c         ****             return start;
 674              		.loc 1 139 0
 675 0118 214B     		ldr	r3, .L88+4
 676 011a 1960     		str	r1, [r3]
 140:CLI.c         ****         }
 677              		.loc 1 140 0
 678 011c 2B46     		mov	r3, r5
 679 011e 0DE0     		b	.L61
 680              	.L70:
 142:CLI.c         ****     }
 681              		.loc 1 142 0
 682 0120 0131     		adds	r1, r1, #1
 683 0122 1F4B     		ldr	r3, .L88+4
 684 0124 1960     		str	r1, [r3]
 685              	.L64:
 125:CLI.c         ****     {
 686              		.loc 1 125 0
 687 0126 1E4B     		ldr	r3, .L88+4
 688 0128 1968     		ldr	r1, [r3]
 689 012a 0B78     		ldrb	r3, [r1]	@ zero_extendqisi2
 690 012c 002B     		cmp	r3, #0
 691 012e DBD1     		bne	.L71
 144:CLI.c         ****     {
 692              		.loc 1 144 0
 693 0130 8D42     		cmp	r5, r1
 694 0132 02D1     		bne	.L83
 695 0134 02E0     		b	.L61
 696              	.LVL82:
 697              	.L80:
 117:CLI.c         ****     }
 698              		.loc 1 117 0
 699 0136 0023     		movs	r3, #0
 700 0138 00E0     		b	.L61
ARM GAS  C:\Users\Dan\AppData\Local\Temp\ccOls7dH.s 			page 19


 701              	.LVL83:
 702              	.L83:
 148:CLI.c         **** }
 703              		.loc 1 148 0
 704 013a 2B46     		mov	r3, r5
 705              	.LVL84:
 706              	.L61:
 707              	.LBE26:
 708              	.LBE25:
 167:CLI.c         **** 		w = getWord(NULL);
 709              		.loc 1 167 0
 710 013c 2546     		mov	r5, r4
 711              	.LVL85:
 712              	.L56:
 165:CLI.c         **** 	{
 713              		.loc 1 165 0
 714 013e 1D2D     		cmp	r5, #29
 715 0140 1CDC     		bgt	.L84
 165:CLI.c         **** 	{
 716              		.loc 1 165 0 is_stmt 0 discriminator 1
 717 0142 002B     		cmp	r3, #0
 718 0144 AFD1     		bne	.L73
 719 0146 0024     		movs	r4, #0
 720 0148 19E0     		b	.L72
 721              	.LVL86:
 722              	.L75:
 723              	.LBB27:
 176:CLI.c         **** 		if(strcmp(argv[0], PstrPtr) == 0)
 724              		.loc 1 176 0 is_stmt 1
 725 014a 164B     		ldr	r3, .L88+8
 726 014c 03EB0413 		add	r3, r3, r4, lsl #4
 727              	.LVL87:
 177:CLI.c         **** 		{
 728              		.loc 1 177 0
 729 0150 196A     		ldr	r1, [r3, #32]
 730 0152 0098     		ldr	r0, [sp]
 731 0154 FFF7FEFF 		bl	strcmp
 732              	.LVL88:
 733 0158 68B9     		cbnz	r0, .L74
 734              	.LBB28:
 179:CLI.c         **** 
 735              		.loc 1 179 0
 736 015a 124F     		ldr	r7, .L88+8
 737              	.LVL89:
 738 015c 07EB0416 		add	r6, r7, r4, lsl #4
 739              	.LVL90:
 740 0160 F36A     		ldr	r3, [r6, #44]
 741 0162 6946     		mov	r1, sp
 742 0164 2846     		mov	r0, r5
 743 0166 9847     		blx	r3
 744              	.LVL91:
 745 0168 0446     		mov	r4, r0
 746              	.LVL92:
 181:CLI.c         ****             return rval;
 747              		.loc 1 181 0
 748 016a 07F5F070 		add	r0, r7, #480
 749              	.LVL93:
ARM GAS  C:\Users\Dan\AppData\Local\Temp\ccOls7dH.s 			page 20


 750 016e FFF7FEFF 		bl	USB_PutString
 751              	.LVL94:
 182:CLI.c         **** 		}
 752              		.loc 1 182 0
 753 0172 2046     		mov	r0, r4
 754 0174 10E0     		b	.L40
 755              	.LVL95:
 756              	.L74:
 757              	.LBE28:
 174:CLI.c         **** 	{
 758              		.loc 1 174 0 discriminator 2
 759 0176 0134     		adds	r4, r4, #1
 760              	.LVL96:
 761 0178 E4B2     		uxtb	r4, r4
 762              	.LVL97:
 763 017a 00E0     		b	.L72
 764              	.LVL98:
 765              	.L84:
 766              	.LBE27:
 767 017c 0024     		movs	r4, #0
 768              	.LVL99:
 769              	.L72:
 770              	.LBB29:
 174:CLI.c         **** 	{
 771              		.loc 1 174 0 is_stmt 0 discriminator 1
 772 017e 1B2C     		cmp	r4, #27
 773 0180 E3D9     		bls	.L75
 774              	.LBE29:
 185:CLI.c         ****     PutStr(Prompt);
 775              		.loc 1 185 0 is_stmt 1
 776 0182 084C     		ldr	r4, .L88+8
 777              	.LVL100:
 778 0184 04F5F270 		add	r0, r4, #484
 779 0188 FFF7FEFF 		bl	USB_PutString
 780              	.LVL101:
 186:CLI.c         **** 	return -1;
 781              		.loc 1 186 0
 782 018c 04F5F070 		add	r0, r4, #480
 783 0190 FFF7FEFF 		bl	USB_PutString
 784              	.LVL102:
 187:CLI.c         **** }
 785              		.loc 1 187 0
 786 0194 4FF0FF30 		mov	r0, #-1
 787              	.LVL103:
 788              	.L40:
 188:CLI.c         **** 
 789              		.loc 1 188 0
 790 0198 1FB0     		add	sp, sp, #124
 791              		.cfi_def_cfa_offset 20
 792              		@ sp needed
 793 019a F0BD     		pop	{r4, r5, r6, r7, pc}
 794              	.L89:
 795              		.align	2
 796              	.L88:
 797 019c E0010000 		.word	.LANCHOR0+480
 798 01a0 00000000 		.word	.LANCHOR2
 799 01a4 00000000 		.word	.LANCHOR0
ARM GAS  C:\Users\Dan\AppData\Local\Temp\ccOls7dH.s 			page 21


 800              		.cfi_endproc
 801              	.LFE70:
 802              		.size	ParseCommand, .-ParseCommand
 803              		.section	.text.CLI,"ax",%progbits
 804              		.align	2
 805              		.global	CLI
 806              		.thumb
 807              		.thumb_func
 808              		.type	CLI, %function
 809              	CLI:
 810              	.LFB67:
  58:CLI.c         ****     if(U_CheckForRx())
 811              		.loc 1 58 0
 812              		.cfi_startproc
 813              		@ args = 0, pretend = 0, frame = 0
 814              		@ frame_needed = 0, uses_anonymous_args = 0
 815 0000 10B5     		push	{r4, lr}
 816              		.cfi_def_cfa_offset 8
 817              		.cfi_offset 4, -8
 818              		.cfi_offset 14, -4
  59:CLI.c         ****     {
 819              		.loc 1 59 0
 820 0002 FFF7FEFF 		bl	Check_USB
 821              	.LVL104:
 822 0006 0028     		cmp	r0, #0
 823 0008 36D0     		beq	.L90
 824              	.LBB30:
  61:CLI.c         ****         if(cliEcho) PutChar(data);      // if in ECHO mode then echo the character
 825              		.loc 1 61 0
 826 000a FFF7FEFF 		bl	USB_Buff_GetChar
 827              	.LVL105:
 828 000e 0446     		mov	r4, r0
 829              	.LVL106:
  62:CLI.c         ****         switch (data)
 830              		.loc 1 62 0
 831 0010 1A4B     		ldr	r3, .L99
 832 0012 1B78     		ldrb	r3, [r3]	@ zero_extendqisi2
 833 0014 0BB1     		cbz	r3, .L92
  62:CLI.c         ****         switch (data)
 834              		.loc 1 62 0 is_stmt 0 discriminator 1
 835 0016 FFF7FEFF 		bl	USB_PutChar
 836              	.LVL107:
 837              	.L92:
  63:CLI.c         ****         {
 838              		.loc 1 63 0 is_stmt 1
 839 001a 0A2C     		cmp	r4, #10
 840 001c 2CD0     		beq	.L90
 841 001e 02D8     		bhi	.L94
 842 0020 082C     		cmp	r4, #8
 843 0022 0DD0     		beq	.L95
 844 0024 17E0     		b	.L93
 845              	.L94:
 846 0026 0D2C     		cmp	r4, #13
 847 0028 02D0     		beq	.L96
 848 002a 7F2C     		cmp	r4, #127
 849 002c 08D0     		beq	.L95
 850 002e 12E0     		b	.L93
ARM GAS  C:\Users\Dan\AppData\Local\Temp\ccOls7dH.s 			page 22


 851              	.L96:
  67:CLI.c         ****                 ClearInputBufferN(InBuffCnt);
 852              		.loc 1 67 0
 853 0030 1348     		ldr	r0, .L99+4
 854 0032 FFF7FEFF 		bl	ParseCommand
 855              	.LVL108:
  68:CLI.c         ****                 break;
 856              		.loc 1 68 0
 857 0036 134B     		ldr	r3, .L99+8
 858 0038 1878     		ldrb	r0, [r3]	@ zero_extendqisi2
 859 003a FFF7FEFF 		bl	ClearInputBufferN
 860              	.LVL109:
  69:CLI.c         ****             case 0x7f   :   // alt back space
 861              		.loc 1 69 0
 862 003e 10BD     		pop	{r4, pc}
 863              	.L95:
  72:CLI.c         ****                 {
 864              		.loc 1 72 0
 865 0040 104B     		ldr	r3, .L99+8
 866 0042 1B78     		ldrb	r3, [r3]	@ zero_extendqisi2
 867 0044 3BB1     		cbz	r3, .L93
  74:CLI.c         ****                     InBuff[InBuffCnt] = 0;  // back fill with zeros
 868              		.loc 1 74 0
 869 0046 013B     		subs	r3, r3, #1
 870 0048 DBB2     		uxtb	r3, r3
 871 004a 0E4A     		ldr	r2, .L99+8
 872 004c 1370     		strb	r3, [r2]
  75:CLI.c         ****                     break;
 873              		.loc 1 75 0
 874 004e 0021     		movs	r1, #0
 875 0050 0B4A     		ldr	r2, .L99+4
 876 0052 D154     		strb	r1, [r2, r3]
  76:CLI.c         ****                 }
 877              		.loc 1 76 0
 878 0054 10BD     		pop	{r4, pc}
 879              	.L93:
  79:CLI.c         ****                 {
 880              		.loc 1 79 0
 881 0056 0B4B     		ldr	r3, .L99+8
 882 0058 1B78     		ldrb	r3, [r3]	@ zero_extendqisi2
 883 005a 4F2B     		cmp	r3, #79
 884 005c 06D9     		bls	.L97
  81:CLI.c         ****                     ClearInputBufferN(InBuffCnt);
 885              		.loc 1 81 0
 886 005e 0A48     		ldr	r0, .L99+12
 887 0060 FFF7FEFF 		bl	USB_PutString
 888              	.LVL110:
  82:CLI.c         ****                 }
 889              		.loc 1 82 0
 890 0064 074B     		ldr	r3, .L99+8
 891 0066 1878     		ldrb	r0, [r3]	@ zero_extendqisi2
 892 0068 FFF7FEFF 		bl	ClearInputBufferN
 893              	.LVL111:
 894              	.L97:
  84:CLI.c         ****                 InBuffCnt++;
 895              		.loc 1 84 0
 896 006c 054A     		ldr	r2, .L99+8
ARM GAS  C:\Users\Dan\AppData\Local\Temp\ccOls7dH.s 			page 23


 897 006e 1378     		ldrb	r3, [r2]	@ zero_extendqisi2
 898 0070 0349     		ldr	r1, .L99+4
 899 0072 CC54     		strb	r4, [r1, r3]
  85:CLI.c         ****                 break;
 900              		.loc 1 85 0
 901 0074 0133     		adds	r3, r3, #1
 902 0076 1370     		strb	r3, [r2]
 903              	.L90:
 904 0078 10BD     		pop	{r4, pc}
 905              	.L100:
 906 007a 00BF     		.align	2
 907              	.L99:
 908 007c 00000000 		.word	.LANCHOR1
 909 0080 00000000 		.word	InBuff
 910 0084 00000000 		.word	InBuffCnt
 911 0088 FC010000 		.word	.LANCHOR0+508
 912              	.LBE30:
 913              		.cfi_endproc
 914              	.LFE67:
 915              		.size	CLI, .-CLI
 916              		.comm	msg,32,4
 917              		.comm	InBuffCnt,1,1
 918              		.comm	InBuff,80,4
 919              		.global	HelpHeader
 920              		.global	HelpDiv
 921              		.global	CMD_Parse_Table
 922              		.global	Prompt
 923              		.global	CmdTooLong
 924              		.global	BadMsgString
 925              		.section	.rodata
 926              		.align	2
 927              		.set	.LANCHOR0,. + 0
 928              		.type	HelpHeader, %object
 929              		.size	HelpHeader, 32
 930              	HelpHeader:
 931 0000 4C000000 		.word	.LC8
 932 0004 00000000 		.word	HelpDiv
 933 0008 50000000 		.word	.LC9
 934 000c 00000000 		.word	HelpDiv
 935 0010 4C000000 		.word	.LC8
 936 0014 5C000000 		.word	.LC10
 937 0018 94000000 		.word	.LC11
 938 001c 00000000 		.word	0
 939              		.type	CMD_Parse_Table, %object
 940              		.size	CMD_Parse_Table, 448
 941              	CMD_Parse_Table:
 942 0020 A8000000 		.word	.LC12
 943 0024 00000000 		.word	0
 944 0028 B0000000 		.word	.LC13
 945 002c 00000000 		.word	HelpScreen
 946 0030 BC000000 		.word	.LC14
 947 0034 00000000 		.word	0
 948 0038 C0000000 		.word	.LC15
 949 003c 00000000 		.word	HelpScreen
 950 0040 D0000000 		.word	.LC16
 951 0044 00000000 		.word	0
 952 0048 D8000000 		.word	.LC17
ARM GAS  C:\Users\Dan\AppData\Local\Temp\ccOls7dH.s 			page 24


 953 004c 00000000 		.word	CLI_Test
 954 0050 EC000000 		.word	.LC18
 955 0054 F4000000 		.word	.LC19
 956 0058 00010000 		.word	.LC20
 957 005c 00000000 		.word	Echo_Cmd
 958 0060 1C010000 		.word	.LC21
 959 0064 00000000 		.word	0
 960 0068 20010000 		.word	.LC22
 961 006c 00000000 		.word	Ver_Cmd
 962 0070 34010000 		.word	.LC23
 963 0074 00000000 		.word	0
 964 0078 38010000 		.word	.LC24
 965 007c 00000000 		.word	Comment_Cmd
 966 0080 60010000 		.word	.LC25
 967 0084 F4000000 		.word	.LC19
 968 0088 68010000 		.word	.LC26
 969 008c 00000000 		.word	Count_Cmd
 970 0090 80010000 		.word	.LC27
 971 0094 F4000000 		.word	.LC19
 972 0098 88010000 		.word	.LC28
 973 009c 00000000 		.word	Alpha_Cmd
 974 00a0 A4010000 		.word	.LC29
 975 00a4 A8010000 		.word	.LC30
 976 00a8 B0010000 		.word	.LC31
 977 00ac 00000000 		.word	UTX_Cmd
 978 00b0 CC010000 		.word	.LC32
 979 00b4 D4010000 		.word	.LC33
 980 00b8 D8010000 		.word	.LC34
 981 00bc 00000000 		.word	A_Motor_Cmd
 982 00c0 F8010000 		.word	.LC35
 983 00c4 00020000 		.word	.LC36
 984 00c8 0C020000 		.word	.LC37
 985 00cc 00000000 		.word	Arm_Dir_Cmd
 986 00d0 28020000 		.word	.LC38
 987 00d4 D4010000 		.word	.LC33
 988 00d8 30020000 		.word	.LC39
 989 00dc 00000000 		.word	C_Motor_Cmd
 990 00e0 54020000 		.word	.LC40
 991 00e4 5C020000 		.word	.LC41
 992 00e8 68020000 		.word	.LC42
 993 00ec 00000000 		.word	Carousel_Dir_Cmd
 994 00f0 8C020000 		.word	.LC43
 995 00f4 D4010000 		.word	.LC33
 996 00f8 94020000 		.word	.LC44
 997 00fc 00000000 		.word	Brake_Cmd
 998 0100 B8020000 		.word	.LC45
 999 0104 F4000000 		.word	.LC19
 1000 0108 C0020000 		.word	.LC46
 1001 010c 00000000 		.word	TClamp_Cmd
 1002 0110 D4020000 		.word	.LC47
 1003 0114 F4000000 		.word	.LC19
 1004 0118 D8020000 		.word	.LC48
 1005 011c 00000000 		.word	TC_Air_Cmd
 1006 0120 F0020000 		.word	.LC49
 1007 0124 00000000 		.word	0
 1008 0128 F8020000 		.word	.LC50
 1009 012c 00000000 		.word	Load_Cmd
ARM GAS  C:\Users\Dan\AppData\Local\Temp\ccOls7dH.s 			page 25


 1010 0130 10030000 		.word	.LC51
 1011 0134 00000000 		.word	0
 1012 0138 18030000 		.word	.LC52
 1013 013c 00000000 		.word	Status_Cmd
 1014 0140 34030000 		.word	.LC53
 1015 0144 00000000 		.word	0
 1016 0148 3C030000 		.word	.LC54
 1017 014c 00000000 		.word	Arm_In_Cmd
 1018 0150 5C030000 		.word	.LC55
 1019 0154 00000000 		.word	0
 1020 0158 64030000 		.word	.LC56
 1021 015c 00000000 		.word	Arm_Out_Cmd
 1022 0160 84030000 		.word	.LC57
 1023 0164 D4010000 		.word	.LC33
 1024 0168 8C030000 		.word	.LC58
 1025 016c 00000000 		.word	ToolChange_Cmd
 1026 0170 A8030000 		.word	.LC59
 1027 0174 00000000 		.word	0
 1028 0178 B0030000 		.word	.LC60
 1029 017c 00000000 		.word	ToolRelease_Cmd
 1030 0180 C8030000 		.word	.LC61
 1031 0184 00000000 		.word	0
 1032 0188 D0030000 		.word	.LC62
 1033 018c 00000000 		.word	ToolGrab_Cmd
 1034 0190 DC030000 		.word	.LC63
 1035 0194 00000000 		.word	0
 1036 0198 E4030000 		.word	.LC64
 1037 019c 00000000 		.word	Test_Home_Cmd
 1038 01a0 F8030000 		.word	.LC65
 1039 01a4 00000000 		.word	0
 1040 01a8 00040000 		.word	.LC66
 1041 01ac 00000000 		.word	At_Home_Cmd
 1042 01b0 0C040000 		.word	.LC67
 1043 01b4 00000000 		.word	0
 1044 01b8 14040000 		.word	.LC68
 1045 01bc 00000000 		.word	In_Fault_Cmd
 1046 01c0 20040000 		.word	.LC69
 1047 01c4 00000000 		.word	0
 1048 01c8 28040000 		.word	.LC70
 1049 01cc 00000000 		.word	Sense_Cmd
 1050 01d0 40040000 		.word	.LC71
 1051 01d4 00000000 		.word	0
 1052 01d8 48040000 		.word	.LC72
 1053 01dc 00000000 		.word	UsbCfg_Cmd
 1054              		.type	Prompt, %object
 1055              		.size	Prompt, 3
 1056              	Prompt:
 1057 01e0 0D3E00   		.ascii	"\015>\000"
 1058 01e3 00       		.space	1
 1059              		.type	BadMsgString, %object
 1060              		.size	BadMsgString, 22
 1061              	BadMsgString:
 1062 01e4 556E7265 		.ascii	"Unrecognized Command!\000"
 1062      636F676E 
 1062      697A6564 
 1062      20436F6D 
 1062      6D616E64 
ARM GAS  C:\Users\Dan\AppData\Local\Temp\ccOls7dH.s 			page 26


 1063 01fa 0000     		.space	2
 1064              		.type	CmdTooLong, %object
 1065              		.size	CmdTooLong, 30
 1066              	CmdTooLong:
 1067 01fc 2A2A2A20 		.ascii	"*** Command was too long! ***\000"
 1067      436F6D6D 
 1067      616E6420 
 1067      77617320 
 1067      746F6F20 
 1068 021a 0000     		.space	2
 1069              		.type	HelpDiv, %object
 1070              		.size	HelpDiv, 25
 1071              	HelpDiv:
 1072 021c 2A2A2A2A 		.ascii	"************************\000"
 1072      2A2A2A2A 
 1072      2A2A2A2A 
 1072      2A2A2A2A 
 1072      2A2A2A2A 
 1073              		.data
 1074              		.set	.LANCHOR1,. + 0
 1075              		.type	cliEcho, %object
 1076              		.size	cliEcho, 1
 1077              	cliEcho:
 1078 0000 01       		.byte	1
 1079              		.section	.rodata.str1.4,"aMS",%progbits,1
 1080              		.align	2
 1081              	.LC0:
 1082 0000 202D2000 		.ascii	" - \000"
 1083              	.LC1:
 1084 0004 4F4E00   		.ascii	"ON\000"
 1085 0007 00       		.space	1
 1086              	.LC2:
 1087 0008 4F464600 		.ascii	"OFF\000"
 1088              	.LC3:
 1089 000c 4563686F 		.ascii	"Echo is \000"
 1089      20697320 
 1089      00
 1090 0015 000000   		.space	3
 1091              	.LC4:
 1092 0018 6F666600 		.ascii	"off\000"
 1093              	.LC5:
 1094 001c 6F6E00   		.ascii	"on\000"
 1095 001f 00       		.space	1
 1096              	.LC6:
 1097 0020 55736167 		.ascii	"Usage echo 'on'/'off'\000"
 1097      65206563 
 1097      686F2027 
 1097      6F6E272F 
 1097      276F6666 
 1098 0036 0000     		.space	2
 1099              	.LC7:
 1100 0038 55534220 		.ascii	"USB Config = 0x%X\012\000"
 1100      436F6E66 
 1100      6967203D 
 1100      20307825 
 1100      580A00
 1101 004b 00       		.space	1
ARM GAS  C:\Users\Dan\AppData\Local\Temp\ccOls7dH.s 			page 27


 1102              	.LC8:
 1103 004c 00       		.ascii	"\000"
 1104 004d 000000   		.space	3
 1105              	.LC9:
 1106 0050 2A205553 		.ascii	"* USB CLI *\000"
 1106      4220434C 
 1106      49202A00 
 1107              	.LC10:
 1108 005c 25643D64 		.ascii	"%d=decimal, %x=hex, %n=decimal or hex with '0x' pre"
 1108      6563696D 
 1108      616C2C20 
 1108      25783D68 
 1108      65782C20 
 1109 008f 66697800 		.ascii	"fix\000"
 1110 0093 00       		.space	1
 1111              	.LC11:
 1112 0094 41766169 		.ascii	"Available Commands:\000"
 1112      6C61626C 
 1112      6520436F 
 1112      6D6D616E 
 1112      64733A00 
 1113              	.LC12:
 1114 00a8 68656C70 		.ascii	"help\000"
 1114      00
 1115 00ad 000000   		.space	3
 1116              	.LC13:
 1117 00b0 54686973 		.ascii	"This menu\000"
 1117      206D656E 
 1117      7500
 1118 00ba 0000     		.space	2
 1119              	.LC14:
 1120 00bc 3F00     		.ascii	"?\000"
 1121 00be 0000     		.space	2
 1122              	.LC15:
 1123 00c0 53616D65 		.ascii	"Same as 'help'\000"
 1123      20617320 
 1123      2768656C 
 1123      702700
 1124 00cf 00       		.space	1
 1125              	.LC16:
 1126 00d0 74657374 		.ascii	"test\000"
 1126      00
 1127 00d5 000000   		.space	3
 1128              	.LC17:
 1129 00d8 4563686F 		.ascii	"Echo the arguments\000"
 1129      20746865 
 1129      20617267 
 1129      756D656E 
 1129      747300
 1130 00eb 00       		.space	1
 1131              	.LC18:
 1132 00ec 6563686F 		.ascii	"echo\000"
 1132      00
 1133 00f1 000000   		.space	3
 1134              	.LC19:
 1135 00f4 7B6F6E2F 		.ascii	"{on/off}\000"
 1135      6F66667D 
ARM GAS  C:\Users\Dan\AppData\Local\Temp\ccOls7dH.s 			page 28


 1135      00
 1136 00fd 000000   		.space	3
 1137              	.LC20:
 1138 0100 546F6767 		.ascii	"Toggle the character echo\000"
 1138      6C652074 
 1138      68652063 
 1138      68617261 
 1138      63746572 
 1139 011a 0000     		.space	2
 1140              	.LC21:
 1141 011c 76657200 		.ascii	"ver\000"
 1142              	.LC22:
 1143 0120 536F6674 		.ascii	"Software Version\000"
 1143      77617265 
 1143      20566572 
 1143      73696F6E 
 1143      00
 1144 0131 000000   		.space	3
 1145              	.LC23:
 1146 0134 2100     		.ascii	"!\000"
 1147 0136 0000     		.space	2
 1148              	.LC24:
 1149 0138 436F6D6D 		.ascii	"Comment delimiter up to 78 characters\000"
 1149      656E7420 
 1149      64656C69 
 1149      6D697465 
 1149      72207570 
 1150 015e 0000     		.space	2
 1151              	.LC25:
 1152 0160 636F756E 		.ascii	"count\000"
 1152      7400
 1153 0166 0000     		.space	2
 1154              	.LC26:
 1155 0168 436F756E 		.ascii	"Count up every second\000"
 1155      74207570 
 1155      20657665 
 1155      72792073 
 1155      65636F6E 
 1156 017e 0000     		.space	2
 1157              	.LC27:
 1158 0180 616C7068 		.ascii	"alpha\000"
 1158      6100
 1159 0186 0000     		.space	2
 1160              	.LC28:
 1161 0188 416C7068 		.ascii	"Alphabet up every second\000"
 1161      61626574 
 1161      20757020 
 1161      65766572 
 1161      79207365 
 1162 01a1 000000   		.space	3
 1163              	.LC29:
 1164 01a4 75747800 		.ascii	"utx\000"
 1165              	.LC30:
 1166 01a8 63636363 		.ascii	"ccccc\000"
 1166      6300
 1167 01ae 0000     		.space	2
 1168              	.LC31:
ARM GAS  C:\Users\Dan\AppData\Local\Temp\ccOls7dH.s 			page 29


 1169 01b0 73656E64 		.ascii	"send the string to the uart\000"
 1169      20746865 
 1169      20737472 
 1169      696E6720 
 1169      746F2074 
 1170              	.LC32:
 1171 01cc 615F6D6F 		.ascii	"a_motor\000"
 1171      746F7200 
 1172              	.LC33:
 1173 01d4 646400   		.ascii	"dd\000"
 1174 01d7 00       		.space	1
 1175              	.LC34:
 1176 01d8 52756E20 		.ascii	"Run the Arm Motor for dd sec\000"
 1176      74686520 
 1176      41726D20 
 1176      4D6F746F 
 1176      7220666F 
 1177 01f5 000000   		.space	3
 1178              	.LC35:
 1179 01f8 615F6469 		.ascii	"a_dir\000"
 1179      7200
 1180 01fe 0000     		.space	2
 1181              	.LC36:
 1182 0200 7B696E2F 		.ascii	"{in/out}\000"
 1182      6F75747D 
 1182      00
 1183 0209 000000   		.space	3
 1184              	.LC37:
 1185 020c 53657420 		.ascii	"Set the Arm Motor direction\000"
 1185      74686520 
 1185      41726D20 
 1185      4D6F746F 
 1185      72206469 
 1186              	.LC38:
 1187 0228 635F6D6F 		.ascii	"c_motor\000"
 1187      746F7200 
 1188              	.LC39:
 1189 0230 52756E20 		.ascii	"Run the Carousel Motor for dd sec\000"
 1189      74686520 
 1189      4361726F 
 1189      7573656C 
 1189      204D6F74 
 1190 0252 0000     		.space	2
 1191              	.LC40:
 1192 0254 635F6469 		.ascii	"c_dir\000"
 1192      7200
 1193 025a 0000     		.space	2
 1194              	.LC41:
 1195 025c 7B63772F 		.ascii	"{cw/ccw}\000"
 1195      6363777D 
 1195      00
 1196 0265 000000   		.space	3
 1197              	.LC42:
 1198 0268 53657420 		.ascii	"Set the Carousel Motor direction\000"
 1198      74686520 
 1198      4361726F 
 1198      7573656C 
ARM GAS  C:\Users\Dan\AppData\Local\Temp\ccOls7dH.s 			page 30


 1198      204D6F74 
 1199 0289 000000   		.space	3
 1200              	.LC43:
 1201 028c 6272616B 		.ascii	"brake\000"
 1201      6500
 1202 0292 0000     		.space	2
 1203              	.LC44:
 1204 0294 52656C65 		.ascii	"Release the Arm Brake for dd sec\000"
 1204      61736520 
 1204      74686520 
 1204      41726D20 
 1204      4272616B 
 1205 02b5 000000   		.space	3
 1206              	.LC45:
 1207 02b8 74636C61 		.ascii	"tclamp\000"
 1207      6D7000
 1208 02bf 00       		.space	1
 1209              	.LC46:
 1210 02c0 546F6F6C 		.ascii	"Tool clamp control\000"
 1210      20636C61 
 1210      6D702063 
 1210      6F6E7472 
 1210      6F6C00
 1211 02d3 00       		.space	1
 1212              	.LC47:
 1213 02d4 61697200 		.ascii	"air\000"
 1214              	.LC48:
 1215 02d8 546F6F6C 		.ascii	"Tool Clamp air blast\000"
 1215      20436C61 
 1215      6D702061 
 1215      69722062 
 1215      6C617374 
 1216 02ed 000000   		.space	3
 1217              	.LC49:
 1218 02f0 6C6F6164 		.ascii	"load\000"
 1218      00
 1219 02f5 000000   		.space	3
 1220              	.LC50:
 1221 02f8 53746172 		.ascii	"Start the Bootloader\000"
 1221      74207468 
 1221      6520426F 
 1221      6F746C6F 
 1221      61646572 
 1222 030d 000000   		.space	3
 1223              	.LC51:
 1224 0310 73746174 		.ascii	"status\000"
 1224      757300
 1225 0317 00       		.space	1
 1226              	.LC52:
 1227 0318 546F6F6C 		.ascii	"Tool Changer State Status\000"
 1227      20436861 
 1227      6E676572 
 1227      20537461 
 1227      74652053 
 1228 0332 0000     		.space	2
 1229              	.LC53:
 1230 0334 61726D5F 		.ascii	"arm_in\000"
ARM GAS  C:\Users\Dan\AppData\Local\Temp\ccOls7dH.s 			page 31


 1230      696E00
 1231 033b 00       		.space	1
 1232              	.LC54:
 1233 033c 4D6F7265 		.ascii	"More Tool Arm to IN position\000"
 1233      20546F6F 
 1233      6C204172 
 1233      6D20746F 
 1233      20494E20 
 1234 0359 000000   		.space	3
 1235              	.LC55:
 1236 035c 61726D5F 		.ascii	"arm_out\000"
 1236      6F757400 
 1237              	.LC56:
 1238 0364 4D6F7665 		.ascii	"Move Tool Arm to OUT position\000"
 1238      20546F6F 
 1238      6C204172 
 1238      6D20746F 
 1238      204F5554 
 1239 0382 0000     		.space	2
 1240              	.LC57:
 1241 0384 746F6F6C 		.ascii	"tool\000"
 1241      00
 1242 0389 000000   		.space	3
 1243              	.LC58:
 1244 038c 4368616E 		.ascii	"Change tool to number dd\000"
 1244      67652074 
 1244      6F6F6C20 
 1244      746F206E 
 1244      756D6265 
 1245 03a5 000000   		.space	3
 1246              	.LC59:
 1247 03a8 745F7265 		.ascii	"t_rel\000"
 1247      6C00
 1248 03ae 0000     		.space	2
 1249              	.LC60:
 1250 03b0 546F6F6C 		.ascii	"Tool Release with Air\000"
 1250      2052656C 
 1250      65617365 
 1250      20776974 
 1250      68204169 
 1251 03c6 0000     		.space	2
 1252              	.LC61:
 1253 03c8 745F636C 		.ascii	"t_cl\000"
 1253      00
 1254 03cd 000000   		.space	3
 1255              	.LC62:
 1256 03d0 546F6F6C 		.ascii	"Tool Clamp\000"
 1256      20436C61 
 1256      6D7000
 1257 03db 00       		.space	1
 1258              	.LC63:
 1259 03dc 686F6D65 		.ascii	"home\000"
 1259      00
 1260 03e1 000000   		.space	3
 1261              	.LC64:
 1262 03e4 546F6F6C 		.ascii	"Tool Changer Home\000"
 1262      20436861 
ARM GAS  C:\Users\Dan\AppData\Local\Temp\ccOls7dH.s 			page 32


 1262      6E676572 
 1262      20486F6D 
 1262      6500
 1263 03f6 0000     		.space	2
 1264              	.LC65:
 1265 03f8 61745F68 		.ascii	"at_home\000"
 1265      6F6D6500 
 1266              	.LC66:
 1267 0400 486F6D65 		.ascii	"Home Query\000"
 1267      20517565 
 1267      727900
 1268 040b 00       		.space	1
 1269              	.LC67:
 1270 040c 6661756C 		.ascii	"fault\000"
 1270      7400
 1271 0412 0000     		.space	2
 1272              	.LC68:
 1273 0414 4661756C 		.ascii	"Fault Query\000"
 1273      74205175 
 1273      65727900 
 1274              	.LC69:
 1275 0420 73656E73 		.ascii	"sense\000"
 1275      6500
 1276 0426 0000     		.space	2
 1277              	.LC70:
 1278 0428 52656164 		.ascii	"Read Port 0 and port 1\000"
 1278      20506F72 
 1278      74203020 
 1278      616E6420 
 1278      706F7274 
 1279 043f 00       		.space	1
 1280              	.LC71:
 1281 0440 75636667 		.ascii	"ucfg\000"
 1281      00
 1282 0445 000000   		.space	3
 1283              	.LC72:
 1284 0448 67657420 		.ascii	"get the USB Configuration\000"
 1284      74686520 
 1284      55534220 
 1284      436F6E66 
 1284      69677572 
 1285              		.bss
 1286              		.align	2
 1287              		.set	.LANCHOR2,. + 0
 1288              		.type	ptr.7613, %object
 1289              		.size	ptr.7613, 4
 1290              	ptr.7613:
 1291 0000 00000000 		.space	4
 1292              		.text
 1293              	.Letext0:
 1294              		.file 2 "c:\\program files (x86)\\cypress\\psoc creator\\4.2\\psoc creator\\import\\gnu\\arm\\5.4.
 1295              		.file 3 "c:\\program files (x86)\\cypress\\psoc creator\\4.2\\psoc creator\\import\\gnu\\arm\\5.4.
 1296              		.file 4 "Generated_Source\\PSoC5/cytypes.h"
 1297              		.file 5 "TestMessages.h"
 1298              		.file 6 "Generated_Source\\PSoC5/core_cm3.h"
 1299              		.file 7 "U_HW.h"
 1300              		.file 8 "c:\\program files (x86)\\cypress\\psoc creator\\4.2\\psoc creator\\import\\gnu\\arm\\5.4.
ARM GAS  C:\Users\Dan\AppData\Local\Temp\ccOls7dH.s 			page 33


 1301              		.file 9 "Generated_Source\\PSoC5/USBUART.h"
 1302              		.file 10 "c:\\program files (x86)\\cypress\\psoc creator\\4.2\\psoc creator\\import\\gnu\\arm\\5.4