ARM GAS  C:\Users\Dan\AppData\Local\Temp\ccqFDNPX.s 			page 1


   1              		.syntax unified
   2              		.cpu cortex-m3
   3              		.fpu softvfp
   4              		.eabi_attribute 20, 1
   5              		.eabi_attribute 21, 1
   6              		.eabi_attribute 23, 3
   7              		.eabi_attribute 24, 1
   8              		.eabi_attribute 25, 1
   9              		.eabi_attribute 26, 1
  10              		.eabi_attribute 30, 1
  11              		.eabi_attribute 34, 1
  12              		.eabi_attribute 18, 4
  13              		.thumb
  14              		.syntax unified
  15              		.file	"Cmds.c"
  16              		.text
  17              	.Ltext0:
  18              		.cfi_sections	.debug_frame
  19              		.section	.text.Ver_Cmd,"ax",%progbits
  20              		.align	2
  21              		.global	Ver_Cmd
  22              		.thumb
  23              		.thumb_func
  24              		.type	Ver_Cmd, %function
  25              	Ver_Cmd:
  26              	.LFB64:
  27              		.file 1 "Cmds.c"
   1:Cmds.c        **** /* ========================================
   2:Cmds.c        ****  *
   3:Cmds.c        ****  * Copyright YOUR COMPANY, THE YEAR
   4:Cmds.c        ****  * All Rights Reserved
   5:Cmds.c        ****  * UNPUBLISHED, LICENSED SOFTWARE.
   6:Cmds.c        ****  *
   7:Cmds.c        ****  * CONFIDENTIAL AND PROPRIETARY INFORMATION
   8:Cmds.c        ****  * WHICH IS THE PROPERTY OF your company.
   9:Cmds.c        ****  *
  10:Cmds.c        ****  * ========================================
  11:Cmds.c        **** */
  12:Cmds.c        **** 
  13:Cmds.c        **** #include <project.h>
  14:Cmds.c        **** 
  15:Cmds.c        **** #include "Cmds.h"
  16:Cmds.c        **** #include "CLI.h"
  17:Cmds.c        **** #include "U_HW.h"
  18:Cmds.c        **** #include "State_Machine.h"
  19:Cmds.c        **** #include "ToolCmds.h"
  20:Cmds.c        **** #include "Processes.h"
  21:Cmds.c        **** 
  22:Cmds.c        **** #include <stdint.h>
  23:Cmds.c        **** #include <stdlib.h>
  24:Cmds.c        **** #include <string.h>
  25:Cmds.c        **** #include <stdio.h>
  26:Cmds.c        **** 
  27:Cmds.c        **** #include "Serial_IO.h"
  28:Cmds.c        **** 
  29:Cmds.c        **** extern func_ptr FastProcess[];
  30:Cmds.c        **** extern func_ptr MsProcess[];
ARM GAS  C:\Users\Dan\AppData\Local\Temp\ccqFDNPX.s 			page 2


  31:Cmds.c        **** extern func_ptr SlowProcess[];
  32:Cmds.c        **** 
  33:Cmds.c        **** extern func_ptr TC_SM;
  34:Cmds.c        **** 
  35:Cmds.c        **** static int CarouselDir = 0;
  36:Cmds.c        **** static int ArmDir = 0;
  37:Cmds.c        **** 
  38:Cmds.c        **** char u_msg[32];
  39:Cmds.c        **** 
  40:Cmds.c        **** CLI_CMD(Ver_Cmd)
  41:Cmds.c        **** {
  28              		.loc 1 41 0
  29              		.cfi_startproc
  30              		@ args = 0, pretend = 0, frame = 0
  31              		@ frame_needed = 0, uses_anonymous_args = 0
  32              	.LVL0:
  33 0000 08B5     		push	{r3, lr}
  34              		.cfi_def_cfa_offset 8
  35              		.cfi_offset 3, -8
  36              		.cfi_offset 14, -4
  42:Cmds.c        ****     UNUSED_ARG(argc);UNUSED_ARG(argv);
  43:Cmds.c        ****     
  44:Cmds.c        ****     PutStr("\r** BP308 TLAUX with PSOC-5 **\r");
  37              		.loc 1 44 0
  38 0002 0548     		ldr	r0, .L3
  39              	.LVL1:
  40 0004 FFF7FEFF 		bl	USB_PutString
  41              	.LVL2:
  45:Cmds.c        **** 	PutStr("  Version 1.00\r");
  42              		.loc 1 45 0
  43 0008 0448     		ldr	r0, .L3+4
  44 000a FFF7FEFF 		bl	USB_PutString
  45              	.LVL3:
  46:Cmds.c        **** 	PutStr(__DATE__" "__TIME__"\r");
  46              		.loc 1 46 0
  47 000e 0448     		ldr	r0, .L3+8
  48 0010 FFF7FEFF 		bl	USB_PutString
  49              	.LVL4:
  47:Cmds.c        **** 	return 0;
  48:Cmds.c        **** }
  50              		.loc 1 48 0
  51 0014 0020     		movs	r0, #0
  52 0016 08BD     		pop	{r3, pc}
  53              	.L4:
  54              		.align	2
  55              	.L3:
  56 0018 00000000 		.word	.LC0
  57 001c 20000000 		.word	.LC1
  58 0020 30000000 		.word	.LC2
  59              		.cfi_endproc
  60              	.LFE64:
  61              		.size	Ver_Cmd, .-Ver_Cmd
  62              		.section	.text.Comment_Cmd,"ax",%progbits
  63              		.align	2
  64              		.global	Comment_Cmd
  65              		.thumb
  66              		.thumb_func
ARM GAS  C:\Users\Dan\AppData\Local\Temp\ccqFDNPX.s 			page 3


  67              		.type	Comment_Cmd, %function
  68              	Comment_Cmd:
  69              	.LFB65:
  49:Cmds.c        **** 
  50:Cmds.c        **** CLI_CMD(Comment_Cmd)
  51:Cmds.c        **** {
  70              		.loc 1 51 0
  71              		.cfi_startproc
  72              		@ args = 0, pretend = 0, frame = 0
  73              		@ frame_needed = 0, uses_anonymous_args = 0
  74              		@ link register save eliminated.
  75              	.LVL5:
  52:Cmds.c        ****     UNUSED_ARG(argc);UNUSED_ARG(argv);
  53:Cmds.c        ****     
  54:Cmds.c        ****     return 0;
  55:Cmds.c        **** }
  76              		.loc 1 55 0
  77 0000 0020     		movs	r0, #0
  78              	.LVL6:
  79 0002 7047     		bx	lr
  80              		.cfi_endproc
  81              	.LFE65:
  82              		.size	Comment_Cmd, .-Comment_Cmd
  83              		.section	.text.Count_Cmd,"ax",%progbits
  84              		.align	2
  85              		.global	Count_Cmd
  86              		.thumb
  87              		.thumb_func
  88              		.type	Count_Cmd, %function
  89              	Count_Cmd:
  90              	.LFB66:
  56:Cmds.c        **** 
  57:Cmds.c        **** CLI_CMD(Count_Cmd)
  58:Cmds.c        **** {
  91              		.loc 1 58 0
  92              		.cfi_startproc
  93              		@ args = 0, pretend = 0, frame = 0
  94              		@ frame_needed = 0, uses_anonymous_args = 0
  95              	.LVL7:
  96 0000 10B5     		push	{r4, lr}
  97              		.cfi_def_cfa_offset 8
  98              		.cfi_offset 4, -8
  99              		.cfi_offset 14, -4
  59:Cmds.c        ****     if(argc < 2)
 100              		.loc 1 59 0
 101 0002 0128     		cmp	r0, #1
 102 0004 03DC     		bgt	.L7
  60:Cmds.c        ****     {
  61:Cmds.c        ****         PutStr("usage: count {on/off}");
 103              		.loc 1 61 0
 104 0006 1548     		ldr	r0, .L12
 105              	.LVL8:
 106 0008 FFF7FEFF 		bl	USB_PutString
 107              	.LVL9:
  62:Cmds.c        ****         return 0;
 108              		.loc 1 62 0
 109 000c 23E0     		b	.L8
ARM GAS  C:\Users\Dan\AppData\Local\Temp\ccqFDNPX.s 			page 4


 110              	.LVL10:
 111              	.L7:
 112 000e 0C46     		mov	r4, r1
  63:Cmds.c        ****     }
  64:Cmds.c        ****    if(strcmp(argv[1], "on") == 0)
 113              		.loc 1 64 0
 114 0010 1349     		ldr	r1, .L12+4
 115              	.LVL11:
 116 0012 6068     		ldr	r0, [r4, #4]
 117              	.LVL12:
 118 0014 FFF7FEFF 		bl	strcmp
 119              	.LVL13:
 120 0018 88B9     		cbnz	r0, .L9
  65:Cmds.c        ****     {
  66:Cmds.c        ****         if(Process_Running(MsProcess, CountProcess))
 121              		.loc 1 66 0
 122 001a 1249     		ldr	r1, .L12+8
 123 001c 1248     		ldr	r0, .L12+12
 124 001e FFF7FEFF 		bl	Process_Running
 125              	.LVL14:
 126 0022 18B1     		cbz	r0, .L10
  67:Cmds.c        ****         {
  68:Cmds.c        ****             PutStr("Count already running!");
 127              		.loc 1 68 0
 128 0024 1148     		ldr	r0, .L12+16
 129 0026 FFF7FEFF 		bl	USB_PutString
 130              	.LVL15:
 131 002a 08E0     		b	.L9
 132              	.L10:
  69:Cmds.c        ****         } else {
  70:Cmds.c        ****             Add_Process(MsProcess, &(CountProcess));
 133              		.loc 1 70 0
 134 002c 0D49     		ldr	r1, .L12+8
 135 002e 0E48     		ldr	r0, .L12+12
 136 0030 FFF7FEFF 		bl	Add_Process
 137              	.LVL16:
  71:Cmds.c        ****             InitCountProcess();
 138              		.loc 1 71 0
 139 0034 FFF7FEFF 		bl	InitCountProcess
 140              	.LVL17:
  72:Cmds.c        ****             PutStr("Count is ON!");
 141              		.loc 1 72 0
 142 0038 0D48     		ldr	r0, .L12+20
 143 003a FFF7FEFF 		bl	USB_PutString
 144              	.LVL18:
 145              	.L9:
  73:Cmds.c        ****         }
  74:Cmds.c        ****     }
  75:Cmds.c        ****     if(strcmp(argv[1], "off") == 0)
 146              		.loc 1 75 0
 147 003e 0D49     		ldr	r1, .L12+24
 148 0040 6068     		ldr	r0, [r4, #4]
 149 0042 FFF7FEFF 		bl	strcmp
 150              	.LVL19:
 151 0046 30B9     		cbnz	r0, .L8
  76:Cmds.c        ****     {
  77:Cmds.c        ****         Del_Process(MsProcess, &(CountProcess));
ARM GAS  C:\Users\Dan\AppData\Local\Temp\ccqFDNPX.s 			page 5


 152              		.loc 1 77 0
 153 0048 0649     		ldr	r1, .L12+8
 154 004a 0748     		ldr	r0, .L12+12
 155 004c FFF7FEFF 		bl	Del_Process
 156              	.LVL20:
  78:Cmds.c        ****         PutStr("Count is OFF!");
 157              		.loc 1 78 0
 158 0050 0948     		ldr	r0, .L12+28
 159 0052 FFF7FEFF 		bl	USB_PutString
 160              	.LVL21:
 161              	.L8:
  79:Cmds.c        **** 
  80:Cmds.c        ****     }
  81:Cmds.c        ****     return 0;
  82:Cmds.c        **** }
 162              		.loc 1 82 0
 163 0056 0020     		movs	r0, #0
 164 0058 10BD     		pop	{r4, pc}
 165              	.L13:
 166 005a 00BF     		.align	2
 167              	.L12:
 168 005c 48000000 		.word	.LC3
 169 0060 60000000 		.word	.LC4
 170 0064 00000000 		.word	CountProcess
 171 0068 00000000 		.word	MsProcess
 172 006c 64000000 		.word	.LC5
 173 0070 7C000000 		.word	.LC6
 174 0074 8C000000 		.word	.LC7
 175 0078 90000000 		.word	.LC8
 176              		.cfi_endproc
 177              	.LFE66:
 178              		.size	Count_Cmd, .-Count_Cmd
 179              		.section	.text.Alpha_Cmd,"ax",%progbits
 180              		.align	2
 181              		.global	Alpha_Cmd
 182              		.thumb
 183              		.thumb_func
 184              		.type	Alpha_Cmd, %function
 185              	Alpha_Cmd:
 186              	.LFB67:
  83:Cmds.c        **** 
  84:Cmds.c        **** CLI_CMD(Alpha_Cmd)
  85:Cmds.c        **** {
 187              		.loc 1 85 0
 188              		.cfi_startproc
 189              		@ args = 0, pretend = 0, frame = 0
 190              		@ frame_needed = 0, uses_anonymous_args = 0
 191              	.LVL22:
 192 0000 10B5     		push	{r4, lr}
 193              		.cfi_def_cfa_offset 8
 194              		.cfi_offset 4, -8
 195              		.cfi_offset 14, -4
  86:Cmds.c        ****         if(argc < 2)
 196              		.loc 1 86 0
 197 0002 0128     		cmp	r0, #1
 198 0004 03DC     		bgt	.L15
  87:Cmds.c        ****     {
ARM GAS  C:\Users\Dan\AppData\Local\Temp\ccqFDNPX.s 			page 6


  88:Cmds.c        ****         PutStr("usage: alpha {on/off}");
 199              		.loc 1 88 0
 200 0006 1548     		ldr	r0, .L20
 201              	.LVL23:
 202 0008 FFF7FEFF 		bl	USB_PutString
 203              	.LVL24:
  89:Cmds.c        ****         return 0;
 204              		.loc 1 89 0
 205 000c 23E0     		b	.L16
 206              	.LVL25:
 207              	.L15:
 208 000e 0C46     		mov	r4, r1
  90:Cmds.c        ****     }
  91:Cmds.c        ****    if(strcmp(argv[1], "on") == 0)
 209              		.loc 1 91 0
 210 0010 1349     		ldr	r1, .L20+4
 211              	.LVL26:
 212 0012 6068     		ldr	r0, [r4, #4]
 213              	.LVL27:
 214 0014 FFF7FEFF 		bl	strcmp
 215              	.LVL28:
 216 0018 88B9     		cbnz	r0, .L17
  92:Cmds.c        ****     {
  93:Cmds.c        ****         if(Process_Running(MsProcess, AlphaProcess))
 217              		.loc 1 93 0
 218 001a 1249     		ldr	r1, .L20+8
 219 001c 1248     		ldr	r0, .L20+12
 220 001e FFF7FEFF 		bl	Process_Running
 221              	.LVL29:
 222 0022 18B1     		cbz	r0, .L18
  94:Cmds.c        ****         {
  95:Cmds.c        ****             PutStr("Alpha already running!");
 223              		.loc 1 95 0
 224 0024 1148     		ldr	r0, .L20+16
 225 0026 FFF7FEFF 		bl	USB_PutString
 226              	.LVL30:
 227 002a 08E0     		b	.L17
 228              	.L18:
  96:Cmds.c        ****         } else {
  97:Cmds.c        ****             Add_Process(MsProcess, &(AlphaProcess));
 229              		.loc 1 97 0
 230 002c 0D49     		ldr	r1, .L20+8
 231 002e 0E48     		ldr	r0, .L20+12
 232 0030 FFF7FEFF 		bl	Add_Process
 233              	.LVL31:
  98:Cmds.c        ****             InitAlphaProcess();
 234              		.loc 1 98 0
 235 0034 FFF7FEFF 		bl	InitAlphaProcess
 236              	.LVL32:
  99:Cmds.c        ****             PutStr("Alpha is ON!");
 237              		.loc 1 99 0
 238 0038 0D48     		ldr	r0, .L20+20
 239 003a FFF7FEFF 		bl	USB_PutString
 240              	.LVL33:
 241              	.L17:
 100:Cmds.c        ****         }
 101:Cmds.c        ****     }
ARM GAS  C:\Users\Dan\AppData\Local\Temp\ccqFDNPX.s 			page 7


 102:Cmds.c        ****     if(strcmp(argv[1], "off") == 0)
 242              		.loc 1 102 0
 243 003e 0D49     		ldr	r1, .L20+24
 244 0040 6068     		ldr	r0, [r4, #4]
 245 0042 FFF7FEFF 		bl	strcmp
 246              	.LVL34:
 247 0046 30B9     		cbnz	r0, .L16
 103:Cmds.c        ****     {
 104:Cmds.c        ****         Del_Process(MsProcess, &(AlphaProcess));
 248              		.loc 1 104 0
 249 0048 0649     		ldr	r1, .L20+8
 250 004a 0748     		ldr	r0, .L20+12
 251 004c FFF7FEFF 		bl	Del_Process
 252              	.LVL35:
 105:Cmds.c        ****         PutStr("Alpha is OFF!");
 253              		.loc 1 105 0
 254 0050 0948     		ldr	r0, .L20+28
 255 0052 FFF7FEFF 		bl	USB_PutString
 256              	.LVL36:
 257              	.L16:
 106:Cmds.c        ****     }
 107:Cmds.c        ****     return 0;
 108:Cmds.c        **** }
 258              		.loc 1 108 0
 259 0056 0020     		movs	r0, #0
 260 0058 10BD     		pop	{r4, pc}
 261              	.L21:
 262 005a 00BF     		.align	2
 263              	.L20:
 264 005c A0000000 		.word	.LC9
 265 0060 60000000 		.word	.LC4
 266 0064 00000000 		.word	AlphaProcess
 267 0068 00000000 		.word	MsProcess
 268 006c B8000000 		.word	.LC10
 269 0070 D0000000 		.word	.LC11
 270 0074 8C000000 		.word	.LC7
 271 0078 E0000000 		.word	.LC12
 272              		.cfi_endproc
 273              	.LFE67:
 274              		.size	Alpha_Cmd, .-Alpha_Cmd
 275              		.section	.text.UTX_Cmd,"ax",%progbits
 276              		.align	2
 277              		.global	UTX_Cmd
 278              		.thumb
 279              		.thumb_func
 280              		.type	UTX_Cmd, %function
 281              	UTX_Cmd:
 282              	.LFB68:
 109:Cmds.c        **** 
 110:Cmds.c        **** CLI_CMD(UTX_Cmd)
 111:Cmds.c        **** {
 283              		.loc 1 111 0
 284              		.cfi_startproc
 285              		@ args = 0, pretend = 0, frame = 0
 286              		@ frame_needed = 0, uses_anonymous_args = 0
 287              	.LVL37:
 112:Cmds.c        ****     if(argc >= 1)
ARM GAS  C:\Users\Dan\AppData\Local\Temp\ccqFDNPX.s 			page 8


 288              		.loc 1 112 0
 289 0000 0028     		cmp	r0, #0
 290 0002 08DC     		bgt	.L26
 113:Cmds.c        ****     {
 114:Cmds.c        ****         for(uint8 i=1; i < argc; i++)
 115:Cmds.c        ****         {
 116:Cmds.c        ****             UART_PutStr((uint8 *) argv[i]);
 117:Cmds.c        ****         }
 118:Cmds.c        ****     }
 119:Cmds.c        ****     return 0;
 120:Cmds.c        **** }
 291              		.loc 1 120 0
 292 0004 0020     		movs	r0, #0
 293              	.LVL38:
 294 0006 7047     		bx	lr
 295              	.LVL39:
 296              	.L25:
 297              		.cfi_def_cfa_offset 16
 298              		.cfi_offset 4, -16
 299              		.cfi_offset 5, -12
 300              		.cfi_offset 6, -8
 301              		.cfi_offset 14, -4
 302              	.LBB2:
 116:Cmds.c        ****         }
 303              		.loc 1 116 0 discriminator 3
 304 0008 56F82400 		ldr	r0, [r6, r4, lsl #2]
 305 000c FFF7FEFF 		bl	UART_PutStr
 306              	.LVL40:
 114:Cmds.c        ****         {
 307              		.loc 1 114 0 discriminator 3
 308 0010 0134     		adds	r4, r4, #1
 309              	.LVL41:
 310 0012 E4B2     		uxtb	r4, r4
 311              	.LVL42:
 312 0014 03E0     		b	.L23
 313              	.LVL43:
 314              	.L26:
 315              		.cfi_def_cfa_offset 0
 316              		.cfi_restore 4
 317              		.cfi_restore 5
 318              		.cfi_restore 6
 319              		.cfi_restore 14
 320              	.LBE2:
 111:Cmds.c        ****     if(argc >= 1)
 321              		.loc 1 111 0
 322 0016 70B5     		push	{r4, r5, r6, lr}
 323              		.cfi_def_cfa_offset 16
 324              		.cfi_offset 4, -16
 325              		.cfi_offset 5, -12
 326              		.cfi_offset 6, -8
 327              		.cfi_offset 14, -4
 328 0018 0546     		mov	r5, r0
 329 001a 0E46     		mov	r6, r1
 330 001c 0124     		movs	r4, #1
 331              	.LVL44:
 332              	.L23:
 333              	.LBB3:
ARM GAS  C:\Users\Dan\AppData\Local\Temp\ccqFDNPX.s 			page 9


 114:Cmds.c        ****         {
 334              		.loc 1 114 0 discriminator 1
 335 001e A542     		cmp	r5, r4
 336 0020 F2DC     		bgt	.L25
 337              	.LBE3:
 338              		.loc 1 120 0
 339 0022 0020     		movs	r0, #0
 340 0024 70BD     		pop	{r4, r5, r6, pc}
 341              		.cfi_endproc
 342              	.LFE68:
 343              		.size	UTX_Cmd, .-UTX_Cmd
 344 0026 00BF     		.section	.text.A_Motor_Cmd,"ax",%progbits
 345              		.align	2
 346              		.global	A_Motor_Cmd
 347              		.thumb
 348              		.thumb_func
 349              		.type	A_Motor_Cmd, %function
 350              	A_Motor_Cmd:
 351              	.LFB69:
 121:Cmds.c        **** 
 122:Cmds.c        **** 
 123:Cmds.c        **** CLI_CMD(A_Motor_Cmd)
 124:Cmds.c        **** {
 352              		.loc 1 124 0
 353              		.cfi_startproc
 354              		@ args = 0, pretend = 0, frame = 0
 355              		@ frame_needed = 0, uses_anonymous_args = 0
 356              	.LVL45:
 357 0000 08B5     		push	{r3, lr}
 358              		.cfi_def_cfa_offset 8
 359              		.cfi_offset 3, -8
 360              		.cfi_offset 14, -4
 125:Cmds.c        ****     int Pulse_time;
 126:Cmds.c        ****     if(argc < 2)
 361              		.loc 1 126 0
 362 0002 0128     		cmp	r0, #1
 363 0004 04DC     		bgt	.L29
 127:Cmds.c        ****     {
 128:Cmds.c        ****         TC_Set_Delay(1000);  // 1 second 
 364              		.loc 1 128 0
 365 0006 4FF47A70 		mov	r0, #1000
 366              	.LVL46:
 367 000a FFF7FEFF 		bl	TC_Set_Delay
 368              	.LVL47:
 369 000e 07E0     		b	.L30
 370              	.LVL48:
 371              	.L29:
 372 0010 0B46     		mov	r3, r1
 129:Cmds.c        ****     }
 130:Cmds.c        ****     else
 131:Cmds.c        ****     {
 132:Cmds.c        ****         Pulse_time = strtoul(argv[1], NULL, 0);
 373              		.loc 1 132 0
 374 0012 0022     		movs	r2, #0
 375 0014 1146     		mov	r1, r2
 376              	.LVL49:
 377 0016 5868     		ldr	r0, [r3, #4]
ARM GAS  C:\Users\Dan\AppData\Local\Temp\ccqFDNPX.s 			page 10


 378              	.LVL50:
 379 0018 FFF7FEFF 		bl	strtoul
 380              	.LVL51:
 133:Cmds.c        ****         TC_Set_Delay(Pulse_time);
 381              		.loc 1 133 0
 382 001c FFF7FEFF 		bl	TC_Set_Delay
 383              	.LVL52:
 384              	.L30:
 134:Cmds.c        ****     }
 135:Cmds.c        ****     // start the Arm Motor with delay process
 136:Cmds.c        ****     // set the state machine to TestStateDelay
 137:Cmds.c        ****     TC_SM = &TC_Test_Delay;
 385              		.loc 1 137 0
 386 0020 094A     		ldr	r2, .L34
 387 0022 0A4B     		ldr	r3, .L34+4
 388 0024 1A60     		str	r2, [r3]
 138:Cmds.c        ****     if(ArmDir == 0)
 389              		.loc 1 138 0
 390 0026 0A4B     		ldr	r3, .L34+8
 391 0028 1B68     		ldr	r3, [r3]
 392 002a 2BB9     		cbnz	r3, .L31
 139:Cmds.c        ****     {
 140:Cmds.c        ****         TRIAC_PORT |= (Pin_Tool_Arm_FWD_MASK | Pin_Tool_Arm_Brake_MASK); // Motor FWD and Brake Rel
 393              		.loc 1 140 0
 394 002c 094A     		ldr	r2, .L34+12
 395 002e 1378     		ldrb	r3, [r2]	@ zero_extendqisi2
 396 0030 43F0C003 		orr	r3, r3, #192
 397 0034 1370     		strb	r3, [r2]
 398 0036 04E0     		b	.L32
 399              	.L31:
 141:Cmds.c        ****     }
 142:Cmds.c        ****     else
 143:Cmds.c        ****     {
 144:Cmds.c        ****         TRIAC_PORT |= (Pin_Tool_Arm_REV_MASK | Pin_Tool_Arm_Brake_MASK); // Motor REV and Brake Rel
 400              		.loc 1 144 0
 401 0038 064A     		ldr	r2, .L34+12
 402 003a 1378     		ldrb	r3, [r2]	@ zero_extendqisi2
 403 003c 43F0A003 		orr	r3, r3, #160
 404 0040 1370     		strb	r3, [r2]
 405              	.L32:
 145:Cmds.c        ****     }
 146:Cmds.c        ****     return 0;
 147:Cmds.c        **** }
 406              		.loc 1 147 0
 407 0042 0020     		movs	r0, #0
 408 0044 08BD     		pop	{r3, pc}
 409              	.L35:
 410 0046 00BF     		.align	2
 411              	.L34:
 412 0048 00000000 		.word	TC_Test_Delay
 413 004c 00000000 		.word	TC_SM
 414 0050 00000000 		.word	.LANCHOR0
 415 0054 30510040 		.word	1073762608
 416              		.cfi_endproc
 417              	.LFE69:
 418              		.size	A_Motor_Cmd, .-A_Motor_Cmd
 419              		.section	.text.Arm_Dir_Cmd,"ax",%progbits
ARM GAS  C:\Users\Dan\AppData\Local\Temp\ccqFDNPX.s 			page 11


 420              		.align	2
 421              		.global	Arm_Dir_Cmd
 422              		.thumb
 423              		.thumb_func
 424              		.type	Arm_Dir_Cmd, %function
 425              	Arm_Dir_Cmd:
 426              	.LFB70:
 148:Cmds.c        **** 
 149:Cmds.c        **** CLI_CMD(Arm_Dir_Cmd)
 150:Cmds.c        **** {
 427              		.loc 1 150 0
 428              		.cfi_startproc
 429              		@ args = 0, pretend = 0, frame = 0
 430              		@ frame_needed = 0, uses_anonymous_args = 0
 431              	.LVL53:
 432 0000 10B5     		push	{r4, lr}
 433              		.cfi_def_cfa_offset 8
 434              		.cfi_offset 4, -8
 435              		.cfi_offset 14, -4
 151:Cmds.c        ****     if(argc < 2)
 436              		.loc 1 151 0
 437 0002 0128     		cmp	r0, #1
 438 0004 0ADC     		bgt	.L37
 152:Cmds.c        ****     {
 153:Cmds.c        ****         //PutStr("usage: a_dir {in/out}\r");
 154:Cmds.c        ****         // print out the current direction
 155:Cmds.c        ****         if(ArmDir == 0)
 439              		.loc 1 155 0
 440 0006 0F4B     		ldr	r3, .L42
 441 0008 1B68     		ldr	r3, [r3]
 442 000a 1BB9     		cbnz	r3, .L38
 156:Cmds.c        ****         {
 157:Cmds.c        ****             PutStr("Arm Dir: OUT");
 443              		.loc 1 157 0
 444 000c 0E48     		ldr	r0, .L42+4
 445              	.LVL54:
 446 000e FFF7FEFF 		bl	USB_PutString
 447              	.LVL55:
 448 0012 14E0     		b	.L39
 449              	.LVL56:
 450              	.L38:
 158:Cmds.c        ****         }
 159:Cmds.c        ****         else 
 160:Cmds.c        ****         {
 161:Cmds.c        ****             PutStr("Arm Dir: IN");
 451              		.loc 1 161 0
 452 0014 0D48     		ldr	r0, .L42+8
 453              	.LVL57:
 454 0016 FFF7FEFF 		bl	USB_PutString
 455              	.LVL58:
 456 001a 10E0     		b	.L39
 457              	.LVL59:
 458              	.L37:
 162:Cmds.c        ****         }
 163:Cmds.c        ****         return 0;
 164:Cmds.c        ****     }
 165:Cmds.c        ****    if(strcmp(argv[1], "in") == 0)
ARM GAS  C:\Users\Dan\AppData\Local\Temp\ccqFDNPX.s 			page 12


 459              		.loc 1 165 0
 460 001c 4C68     		ldr	r4, [r1, #4]
 461 001e 0C49     		ldr	r1, .L42+12
 462              	.LVL60:
 463 0020 2046     		mov	r0, r4
 464              	.LVL61:
 465 0022 FFF7FEFF 		bl	strcmp
 466              	.LVL62:
 467 0026 10B9     		cbnz	r0, .L40
 166:Cmds.c        ****     {
 167:Cmds.c        ****         ArmDir = 1;
 468              		.loc 1 167 0
 469 0028 0122     		movs	r2, #1
 470 002a 064B     		ldr	r3, .L42
 471 002c 1A60     		str	r2, [r3]
 472              	.L40:
 168:Cmds.c        ****     }
 169:Cmds.c        ****     if(strcmp(argv[1], "out") == 0)
 473              		.loc 1 169 0
 474 002e 0949     		ldr	r1, .L42+16
 475 0030 2046     		mov	r0, r4
 476 0032 FFF7FEFF 		bl	strcmp
 477              	.LVL63:
 478 0036 10B9     		cbnz	r0, .L39
 170:Cmds.c        ****     {
 171:Cmds.c        ****         ArmDir = 0;
 479              		.loc 1 171 0
 480 0038 0022     		movs	r2, #0
 481 003a 024B     		ldr	r3, .L42
 482 003c 1A60     		str	r2, [r3]
 483              	.L39:
 172:Cmds.c        ****     }
 173:Cmds.c        ****     return 0;
 174:Cmds.c        **** }
 484              		.loc 1 174 0
 485 003e 0020     		movs	r0, #0
 486 0040 10BD     		pop	{r4, pc}
 487              	.L43:
 488 0042 00BF     		.align	2
 489              	.L42:
 490 0044 00000000 		.word	.LANCHOR0
 491 0048 F0000000 		.word	.LC13
 492 004c 00010000 		.word	.LC14
 493 0050 0C010000 		.word	.LC15
 494 0054 10010000 		.word	.LC16
 495              		.cfi_endproc
 496              	.LFE70:
 497              		.size	Arm_Dir_Cmd, .-Arm_Dir_Cmd
 498              		.section	.text.C_Motor_Cmd,"ax",%progbits
 499              		.align	2
 500              		.global	C_Motor_Cmd
 501              		.thumb
 502              		.thumb_func
 503              		.type	C_Motor_Cmd, %function
 504              	C_Motor_Cmd:
 505              	.LFB71:
 175:Cmds.c        **** 
ARM GAS  C:\Users\Dan\AppData\Local\Temp\ccqFDNPX.s 			page 13


 176:Cmds.c        **** CLI_CMD(C_Motor_Cmd)
 177:Cmds.c        **** {
 506              		.loc 1 177 0
 507              		.cfi_startproc
 508              		@ args = 0, pretend = 0, frame = 0
 509              		@ frame_needed = 0, uses_anonymous_args = 0
 510              	.LVL64:
 511 0000 08B5     		push	{r3, lr}
 512              		.cfi_def_cfa_offset 8
 513              		.cfi_offset 3, -8
 514              		.cfi_offset 14, -4
 178:Cmds.c        ****         int Pulse_time;
 179:Cmds.c        ****     if(argc < 2)
 515              		.loc 1 179 0
 516 0002 0128     		cmp	r0, #1
 517 0004 04DC     		bgt	.L45
 180:Cmds.c        ****     {
 181:Cmds.c        ****         TC_Set_Delay(1000);  // 1 second 
 518              		.loc 1 181 0
 519 0006 4FF47A70 		mov	r0, #1000
 520              	.LVL65:
 521 000a FFF7FEFF 		bl	TC_Set_Delay
 522              	.LVL66:
 523 000e 07E0     		b	.L46
 524              	.LVL67:
 525              	.L45:
 526 0010 0B46     		mov	r3, r1
 182:Cmds.c        ****     }
 183:Cmds.c        ****     else
 184:Cmds.c        ****     {
 185:Cmds.c        ****         Pulse_time = strtoul(argv[1], NULL, 0);
 527              		.loc 1 185 0
 528 0012 0022     		movs	r2, #0
 529 0014 1146     		mov	r1, r2
 530              	.LVL68:
 531 0016 5868     		ldr	r0, [r3, #4]
 532              	.LVL69:
 533 0018 FFF7FEFF 		bl	strtoul
 534              	.LVL70:
 186:Cmds.c        ****         TC_Set_Delay(Pulse_time);
 535              		.loc 1 186 0
 536 001c FFF7FEFF 		bl	TC_Set_Delay
 537              	.LVL71:
 538              	.L46:
 187:Cmds.c        ****     }
 188:Cmds.c        ****     // start the Carousel Motor with delay process
 189:Cmds.c        ****     TC_SM = &TC_Test_Delay;
 539              		.loc 1 189 0
 540 0020 0D4A     		ldr	r2, .L50
 541 0022 0E4B     		ldr	r3, .L50+4
 542 0024 1A60     		str	r2, [r3]
 190:Cmds.c        ****     if(CarouselDir == 0)
 543              		.loc 1 190 0
 544 0026 0E4B     		ldr	r3, .L50+8
 545 0028 5B68     		ldr	r3, [r3, #4]
 546 002a 4BB9     		cbnz	r3, .L47
 191:Cmds.c        ****     {
ARM GAS  C:\Users\Dan\AppData\Local\Temp\ccqFDNPX.s 			page 14


 192:Cmds.c        ****         TRIAC_PORT &= ~(Pin_Car_REV_MASK); // make sure that REV is off!
 547              		.loc 1 192 0
 548 002c 0D4B     		ldr	r3, .L50+12
 549 002e 1A78     		ldrb	r2, [r3]	@ zero_extendqisi2
 550 0030 02F0F702 		and	r2, r2, #247
 551 0034 1A70     		strb	r2, [r3]
 193:Cmds.c        ****         TRIAC_PORT |= Pin_Car_FWD_MASK; // turn the carousel motor FWD
 552              		.loc 1 193 0
 553 0036 1A78     		ldrb	r2, [r3]	@ zero_extendqisi2
 554 0038 42F01002 		orr	r2, r2, #16
 555 003c 1A70     		strb	r2, [r3]
 556 003e 08E0     		b	.L48
 557              	.L47:
 194:Cmds.c        ****     }
 195:Cmds.c        ****     else
 196:Cmds.c        ****     {
 197:Cmds.c        ****         TRIAC_PORT &= ~(Pin_Car_FWD_MASK);  // make sure that FWD is off!
 558              		.loc 1 197 0
 559 0040 084B     		ldr	r3, .L50+12
 560 0042 1A78     		ldrb	r2, [r3]	@ zero_extendqisi2
 561 0044 02F0EF02 		and	r2, r2, #239
 562 0048 1A70     		strb	r2, [r3]
 198:Cmds.c        ****         TRIAC_PORT |= Pin_Car_REV_MASK; // turn the carousel motor REV
 563              		.loc 1 198 0
 564 004a 1A78     		ldrb	r2, [r3]	@ zero_extendqisi2
 565 004c 42F00802 		orr	r2, r2, #8
 566 0050 1A70     		strb	r2, [r3]
 567              	.L48:
 199:Cmds.c        ****     }
 200:Cmds.c        ****     
 201:Cmds.c        ****     return 0;
 202:Cmds.c        **** }
 568              		.loc 1 202 0
 569 0052 0020     		movs	r0, #0
 570 0054 08BD     		pop	{r3, pc}
 571              	.L51:
 572 0056 00BF     		.align	2
 573              	.L50:
 574 0058 00000000 		.word	TC_Test_Delay
 575 005c 00000000 		.word	TC_SM
 576 0060 00000000 		.word	.LANCHOR0
 577 0064 30510040 		.word	1073762608
 578              		.cfi_endproc
 579              	.LFE71:
 580              		.size	C_Motor_Cmd, .-C_Motor_Cmd
 581              		.section	.text.Carousel_Dir_Cmd,"ax",%progbits
 582              		.align	2
 583              		.global	Carousel_Dir_Cmd
 584              		.thumb
 585              		.thumb_func
 586              		.type	Carousel_Dir_Cmd, %function
 587              	Carousel_Dir_Cmd:
 588              	.LFB72:
 203:Cmds.c        **** 
 204:Cmds.c        **** CLI_CMD(Carousel_Dir_Cmd)
 205:Cmds.c        **** {
 589              		.loc 1 205 0
ARM GAS  C:\Users\Dan\AppData\Local\Temp\ccqFDNPX.s 			page 15


 590              		.cfi_startproc
 591              		@ args = 0, pretend = 0, frame = 0
 592              		@ frame_needed = 0, uses_anonymous_args = 0
 593              	.LVL72:
 594 0000 10B5     		push	{r4, lr}
 595              		.cfi_def_cfa_offset 8
 596              		.cfi_offset 4, -8
 597              		.cfi_offset 14, -4
 206:Cmds.c        ****         if(argc < 2)
 598              		.loc 1 206 0
 599 0002 0128     		cmp	r0, #1
 600 0004 0ADC     		bgt	.L53
 207:Cmds.c        ****     {
 208:Cmds.c        ****         //PutStr("usage: a_dir {in/out}\r");
 209:Cmds.c        ****         // print out the current direction
 210:Cmds.c        ****         if(CarouselDir == 0)
 601              		.loc 1 210 0
 602 0006 0F4B     		ldr	r3, .L58
 603 0008 5B68     		ldr	r3, [r3, #4]
 604 000a 1BB9     		cbnz	r3, .L54
 211:Cmds.c        ****         {
 212:Cmds.c        ****             PutStr("Carousel Dir: CW");
 605              		.loc 1 212 0
 606 000c 0E48     		ldr	r0, .L58+4
 607              	.LVL73:
 608 000e FFF7FEFF 		bl	USB_PutString
 609              	.LVL74:
 610 0012 14E0     		b	.L55
 611              	.LVL75:
 612              	.L54:
 213:Cmds.c        ****         }
 214:Cmds.c        ****         else 
 215:Cmds.c        ****         {
 216:Cmds.c        ****             PutStr("Carousel Dir: CCW");
 613              		.loc 1 216 0
 614 0014 0D48     		ldr	r0, .L58+8
 615              	.LVL76:
 616 0016 FFF7FEFF 		bl	USB_PutString
 617              	.LVL77:
 618 001a 10E0     		b	.L55
 619              	.LVL78:
 620              	.L53:
 217:Cmds.c        ****         }        
 218:Cmds.c        ****         return 0;
 219:Cmds.c        ****     }
 220:Cmds.c        ****    if(strcmp(argv[1], "cw") == 0)
 621              		.loc 1 220 0
 622 001c 4C68     		ldr	r4, [r1, #4]
 623 001e 0C49     		ldr	r1, .L58+12
 624              	.LVL79:
 625 0020 2046     		mov	r0, r4
 626              	.LVL80:
 627 0022 FFF7FEFF 		bl	strcmp
 628              	.LVL81:
 629 0026 10B9     		cbnz	r0, .L56
 221:Cmds.c        ****     {
 222:Cmds.c        ****         CarouselDir = 0;
ARM GAS  C:\Users\Dan\AppData\Local\Temp\ccqFDNPX.s 			page 16


 630              		.loc 1 222 0
 631 0028 0022     		movs	r2, #0
 632 002a 064B     		ldr	r3, .L58
 633 002c 5A60     		str	r2, [r3, #4]
 634              	.L56:
 223:Cmds.c        ****     }
 224:Cmds.c        ****     if(strcmp(argv[1], "ccw") == 0)
 635              		.loc 1 224 0
 636 002e 0949     		ldr	r1, .L58+16
 637 0030 2046     		mov	r0, r4
 638 0032 FFF7FEFF 		bl	strcmp
 639              	.LVL82:
 640 0036 10B9     		cbnz	r0, .L55
 225:Cmds.c        ****     {
 226:Cmds.c        ****         CarouselDir = 1;
 641              		.loc 1 226 0
 642 0038 0122     		movs	r2, #1
 643 003a 024B     		ldr	r3, .L58
 644 003c 5A60     		str	r2, [r3, #4]
 645              	.L55:
 227:Cmds.c        ****     }
 228:Cmds.c        ****     return 0;
 229:Cmds.c        **** }
 646              		.loc 1 229 0
 647 003e 0020     		movs	r0, #0
 648 0040 10BD     		pop	{r4, pc}
 649              	.L59:
 650 0042 00BF     		.align	2
 651              	.L58:
 652 0044 00000000 		.word	.LANCHOR0
 653 0048 14010000 		.word	.LC17
 654 004c 28010000 		.word	.LC18
 655 0050 3C010000 		.word	.LC19
 656 0054 40010000 		.word	.LC20
 657              		.cfi_endproc
 658              	.LFE72:
 659              		.size	Carousel_Dir_Cmd, .-Carousel_Dir_Cmd
 660              		.section	.text.Brake_Cmd,"ax",%progbits
 661              		.align	2
 662              		.global	Brake_Cmd
 663              		.thumb
 664              		.thumb_func
 665              		.type	Brake_Cmd, %function
 666              	Brake_Cmd:
 667              	.LFB73:
 230:Cmds.c        **** 
 231:Cmds.c        **** CLI_CMD(Brake_Cmd)
 232:Cmds.c        **** {
 668              		.loc 1 232 0
 669              		.cfi_startproc
 670              		@ args = 0, pretend = 0, frame = 0
 671              		@ frame_needed = 0, uses_anonymous_args = 0
 672              	.LVL83:
 673 0000 08B5     		push	{r3, lr}
 674              		.cfi_def_cfa_offset 8
 675              		.cfi_offset 3, -8
 676              		.cfi_offset 14, -4
ARM GAS  C:\Users\Dan\AppData\Local\Temp\ccqFDNPX.s 			page 17


 233:Cmds.c        ****     int Pulse_time;
 234:Cmds.c        ****     if(argc < 2)
 677              		.loc 1 234 0
 678 0002 0128     		cmp	r0, #1
 679 0004 04DC     		bgt	.L61
 235:Cmds.c        ****     {
 236:Cmds.c        ****         TC_Set_Delay(1000);  // 1 second 
 680              		.loc 1 236 0
 681 0006 4FF47A70 		mov	r0, #1000
 682              	.LVL84:
 683 000a FFF7FEFF 		bl	TC_Set_Delay
 684              	.LVL85:
 685 000e 07E0     		b	.L62
 686              	.LVL86:
 687              	.L61:
 688 0010 0B46     		mov	r3, r1
 237:Cmds.c        ****     }
 238:Cmds.c        ****     else
 239:Cmds.c        ****     {
 240:Cmds.c        ****         Pulse_time = strtoul(argv[1], NULL, 0);
 689              		.loc 1 240 0
 690 0012 0022     		movs	r2, #0
 691 0014 1146     		mov	r1, r2
 692              	.LVL87:
 693 0016 5868     		ldr	r0, [r3, #4]
 694              	.LVL88:
 695 0018 FFF7FEFF 		bl	strtoul
 696              	.LVL89:
 241:Cmds.c        ****         TC_Set_Delay(Pulse_time);
 697              		.loc 1 241 0
 698 001c FFF7FEFF 		bl	TC_Set_Delay
 699              	.LVL90:
 700              	.L62:
 242:Cmds.c        ****     }
 243:Cmds.c        ****     // Release the ARM Brake for xx milliseconds
 244:Cmds.c        ****     // set the state machine to TestStateDelay
 245:Cmds.c        ****     TC_SM = &TC_Test_Delay;
 701              		.loc 1 245 0
 702 0020 044A     		ldr	r2, .L64
 703 0022 054B     		ldr	r3, .L64+4
 704 0024 1A60     		str	r2, [r3]
 246:Cmds.c        ****     TRIAC_PORT |= Pin_Tool_Arm_Brake_MASK; // Motor FWD and Brake Release
 705              		.loc 1 246 0
 706 0026 054A     		ldr	r2, .L64+8
 707 0028 1378     		ldrb	r3, [r2]	@ zero_extendqisi2
 708 002a 43F08003 		orr	r3, r3, #128
 709 002e 1370     		strb	r3, [r2]
 247:Cmds.c        **** 
 248:Cmds.c        ****     return 0;
 249:Cmds.c        **** }
 710              		.loc 1 249 0
 711 0030 0020     		movs	r0, #0
 712 0032 08BD     		pop	{r3, pc}
 713              	.L65:
 714              		.align	2
 715              	.L64:
 716 0034 00000000 		.word	TC_Test_Delay
ARM GAS  C:\Users\Dan\AppData\Local\Temp\ccqFDNPX.s 			page 18


 717 0038 00000000 		.word	TC_SM
 718 003c 30510040 		.word	1073762608
 719              		.cfi_endproc
 720              	.LFE73:
 721              		.size	Brake_Cmd, .-Brake_Cmd
 722              		.section	.text.TClamp_Cmd,"ax",%progbits
 723              		.align	2
 724              		.global	TClamp_Cmd
 725              		.thumb
 726              		.thumb_func
 727              		.type	TClamp_Cmd, %function
 728              	TClamp_Cmd:
 729              	.LFB74:
 250:Cmds.c        **** 
 251:Cmds.c        **** // turn the tool clamp on or off.
 252:Cmds.c        **** CLI_CMD(TClamp_Cmd)
 253:Cmds.c        **** {
 730              		.loc 1 253 0
 731              		.cfi_startproc
 732              		@ args = 0, pretend = 0, frame = 0
 733              		@ frame_needed = 0, uses_anonymous_args = 0
 734              	.LVL91:
 735 0000 10B5     		push	{r4, lr}
 736              		.cfi_def_cfa_offset 8
 737              		.cfi_offset 4, -8
 738              		.cfi_offset 14, -4
 254:Cmds.c        ****     if(argc < 2)
 739              		.loc 1 254 0
 740 0002 0128     		cmp	r0, #1
 741 0004 03DC     		bgt	.L67
 255:Cmds.c        ****     {
 256:Cmds.c        ****         PutStr("usage: tclamp {on/off}");
 742              		.loc 1 256 0
 743 0006 0D48     		ldr	r0, .L71
 744              	.LVL92:
 745 0008 FFF7FEFF 		bl	USB_PutString
 746              	.LVL93:
 257:Cmds.c        ****         return 0;
 747              		.loc 1 257 0
 748 000c 14E0     		b	.L68
 749              	.LVL94:
 750              	.L67:
 751 000e 0C46     		mov	r4, r1
 258:Cmds.c        ****     }
 259:Cmds.c        ****    if(strcmp(argv[1], "on") == 0)
 752              		.loc 1 259 0
 753 0010 0B49     		ldr	r1, .L71+4
 754              	.LVL95:
 755 0012 6068     		ldr	r0, [r4, #4]
 756              	.LVL96:
 757 0014 FFF7FEFF 		bl	strcmp
 758              	.LVL97:
 759 0018 20B9     		cbnz	r0, .L69
 260:Cmds.c        ****     {
 261:Cmds.c        ****         TRIAC_PORT |= Pin_Tool_Clamp_MASK;   // turn the air on
 760              		.loc 1 261 0
 761 001a 0A4A     		ldr	r2, .L71+8
ARM GAS  C:\Users\Dan\AppData\Local\Temp\ccqFDNPX.s 			page 19


 762 001c 1378     		ldrb	r3, [r2]	@ zero_extendqisi2
 763 001e 43F00403 		orr	r3, r3, #4
 764 0022 1370     		strb	r3, [r2]
 765              	.L69:
 262:Cmds.c        ****     }
 263:Cmds.c        ****     if(strcmp(argv[1], "off") == 0)
 766              		.loc 1 263 0
 767 0024 0849     		ldr	r1, .L71+12
 768 0026 6068     		ldr	r0, [r4, #4]
 769 0028 FFF7FEFF 		bl	strcmp
 770              	.LVL98:
 771 002c 20B9     		cbnz	r0, .L68
 264:Cmds.c        ****     {
 265:Cmds.c        ****         TRIAC_PORT &= ~(Pin_Tool_Clamp_MASK); // turn the air off
 772              		.loc 1 265 0
 773 002e 054A     		ldr	r2, .L71+8
 774 0030 1378     		ldrb	r3, [r2]	@ zero_extendqisi2
 775 0032 03F0FB03 		and	r3, r3, #251
 776 0036 1370     		strb	r3, [r2]
 777              	.LVL99:
 778              	.L68:
 266:Cmds.c        ****     }
 267:Cmds.c        ****     return 0;
 268:Cmds.c        **** }
 779              		.loc 1 268 0
 780 0038 0020     		movs	r0, #0
 781 003a 10BD     		pop	{r4, pc}
 782              	.L72:
 783              		.align	2
 784              	.L71:
 785 003c 44010000 		.word	.LC21
 786 0040 60000000 		.word	.LC4
 787 0044 30510040 		.word	1073762608
 788 0048 8C000000 		.word	.LC7
 789              		.cfi_endproc
 790              	.LFE74:
 791              		.size	TClamp_Cmd, .-TClamp_Cmd
 792              		.section	.text.TC_Air_Cmd,"ax",%progbits
 793              		.align	2
 794              		.global	TC_Air_Cmd
 795              		.thumb
 796              		.thumb_func
 797              		.type	TC_Air_Cmd, %function
 798              	TC_Air_Cmd:
 799              	.LFB75:
 269:Cmds.c        **** 
 270:Cmds.c        **** // turn the air blast on or off
 271:Cmds.c        **** CLI_CMD(TC_Air_Cmd)
 272:Cmds.c        **** {
 800              		.loc 1 272 0
 801              		.cfi_startproc
 802              		@ args = 0, pretend = 0, frame = 0
 803              		@ frame_needed = 0, uses_anonymous_args = 0
 804              	.LVL100:
 805 0000 10B5     		push	{r4, lr}
 806              		.cfi_def_cfa_offset 8
 807              		.cfi_offset 4, -8
ARM GAS  C:\Users\Dan\AppData\Local\Temp\ccqFDNPX.s 			page 20


 808              		.cfi_offset 14, -4
 273:Cmds.c        ****     if(argc < 2)
 809              		.loc 1 273 0
 810 0002 0128     		cmp	r0, #1
 811 0004 03DC     		bgt	.L74
 274:Cmds.c        ****     {
 275:Cmds.c        ****         PutStr("usage: Tool Changer Air {on/off}");
 812              		.loc 1 275 0
 813 0006 0D48     		ldr	r0, .L78
 814              	.LVL101:
 815 0008 FFF7FEFF 		bl	USB_PutString
 816              	.LVL102:
 276:Cmds.c        ****         return 0;
 817              		.loc 1 276 0
 818 000c 14E0     		b	.L75
 819              	.LVL103:
 820              	.L74:
 821 000e 0C46     		mov	r4, r1
 277:Cmds.c        ****     }
 278:Cmds.c        ****    if(strcmp(argv[1], "on") == 0)
 822              		.loc 1 278 0
 823 0010 0B49     		ldr	r1, .L78+4
 824              	.LVL104:
 825 0012 6068     		ldr	r0, [r4, #4]
 826              	.LVL105:
 827 0014 FFF7FEFF 		bl	strcmp
 828              	.LVL106:
 829 0018 20B9     		cbnz	r0, .L76
 279:Cmds.c        ****     {
 280:Cmds.c        ****         TRIAC_PORT |= Pin_Tool_Air_MASK;   // turn the air on
 830              		.loc 1 280 0
 831 001a 0A4A     		ldr	r2, .L78+8
 832 001c 1378     		ldrb	r3, [r2]	@ zero_extendqisi2
 833 001e 43F00203 		orr	r3, r3, #2
 834 0022 1370     		strb	r3, [r2]
 835              	.L76:
 281:Cmds.c        ****     }
 282:Cmds.c        ****     if(strcmp(argv[1], "off") == 0)
 836              		.loc 1 282 0
 837 0024 0849     		ldr	r1, .L78+12
 838 0026 6068     		ldr	r0, [r4, #4]
 839 0028 FFF7FEFF 		bl	strcmp
 840              	.LVL107:
 841 002c 20B9     		cbnz	r0, .L75
 283:Cmds.c        ****     {
 284:Cmds.c        ****         TRIAC_PORT &= ~Pin_Tool_Air_MASK; // turn the air off
 842              		.loc 1 284 0
 843 002e 054A     		ldr	r2, .L78+8
 844 0030 1378     		ldrb	r3, [r2]	@ zero_extendqisi2
 845 0032 03F0FD03 		and	r3, r3, #253
 846 0036 1370     		strb	r3, [r2]
 847              	.LVL108:
 848              	.L75:
 285:Cmds.c        ****     }
 286:Cmds.c        ****     return 0;
 287:Cmds.c        **** }
 849              		.loc 1 287 0
ARM GAS  C:\Users\Dan\AppData\Local\Temp\ccqFDNPX.s 			page 21


 850 0038 0020     		movs	r0, #0
 851 003a 10BD     		pop	{r4, pc}
 852              	.L79:
 853              		.align	2
 854              	.L78:
 855 003c 5C010000 		.word	.LC22
 856 0040 60000000 		.word	.LC4
 857 0044 30510040 		.word	1073762608
 858 0048 8C000000 		.word	.LC7
 859              		.cfi_endproc
 860              	.LFE75:
 861              		.size	TC_Air_Cmd, .-TC_Air_Cmd
 862              		.section	.text.Load_Cmd,"ax",%progbits
 863              		.align	2
 864              		.global	Load_Cmd
 865              		.thumb
 866              		.thumb_func
 867              		.type	Load_Cmd, %function
 868              	Load_Cmd:
 869              	.LFB76:
 288:Cmds.c        **** 
 289:Cmds.c        **** CLI_CMD(Load_Cmd)
 290:Cmds.c        **** {
 870              		.loc 1 290 0
 871              		.cfi_startproc
 872              		@ args = 0, pretend = 0, frame = 0
 873              		@ frame_needed = 0, uses_anonymous_args = 0
 874              	.LVL109:
 875 0000 08B5     		push	{r3, lr}
 876              		.cfi_def_cfa_offset 8
 877              		.cfi_offset 3, -8
 878              		.cfi_offset 14, -4
 291:Cmds.c        ****     UNUSED_ARG(argc);UNUSED_ARG(argv);
 292:Cmds.c        ****     Bootloadable_Load();      // uncomment when the bootloadable is active
 879              		.loc 1 292 0
 880 0002 FFF7FEFF 		bl	Bootloadable_Load
 881              	.LVL110:
 293:Cmds.c        ****     
 294:Cmds.c        ****     return 0;
 295:Cmds.c        **** }
 882              		.loc 1 295 0
 883 0006 0020     		movs	r0, #0
 884 0008 08BD     		pop	{r3, pc}
 885              		.cfi_endproc
 886              	.LFE76:
 887              		.size	Load_Cmd, .-Load_Cmd
 888 000a 00BF     		.section	.text.WDT_Cmd,"ax",%progbits
 889              		.align	2
 890              		.global	WDT_Cmd
 891              		.thumb
 892              		.thumb_func
 893              		.type	WDT_Cmd, %function
 894              	WDT_Cmd:
 895              	.LFB77:
 296:Cmds.c        **** CLI_CMD(WDT_Cmd)
 297:Cmds.c        **** {
 896              		.loc 1 297 0
ARM GAS  C:\Users\Dan\AppData\Local\Temp\ccqFDNPX.s 			page 22


 897              		.cfi_startproc
 898              		@ args = 0, pretend = 0, frame = 0
 899              		@ frame_needed = 0, uses_anonymous_args = 0
 900              		@ link register save eliminated.
 901              	.LVL111:
 298:Cmds.c        ****     UNUSED_ARG(argc);UNUSED_ARG(argv);
 299:Cmds.c        ****     return 0;
 300:Cmds.c        **** //    for(;;) // loop forever - causes Watchdog reset
 301:Cmds.c        **** //    {}
 302:Cmds.c        **** }
 902              		.loc 1 302 0
 903 0000 0020     		movs	r0, #0
 904              	.LVL112:
 905 0002 7047     		bx	lr
 906              		.cfi_endproc
 907              	.LFE77:
 908              		.size	WDT_Cmd, .-WDT_Cmd
 909              		.section	.text.Status_Cmd,"ax",%progbits
 910              		.align	2
 911              		.global	Status_Cmd
 912              		.thumb
 913              		.thumb_func
 914              		.type	Status_Cmd, %function
 915              	Status_Cmd:
 916              	.LFB78:
 303:Cmds.c        **** 
 304:Cmds.c        **** CLI_CMD(Status_Cmd)
 305:Cmds.c        **** {
 917              		.loc 1 305 0
 918              		.cfi_startproc
 919              		@ args = 0, pretend = 0, frame = 0
 920              		@ frame_needed = 0, uses_anonymous_args = 0
 921              	.LVL113:
 922 0000 10B5     		push	{r4, lr}
 923              		.cfi_def_cfa_offset 8
 924              		.cfi_offset 4, -8
 925              		.cfi_offset 14, -4
 306:Cmds.c        ****     UNUSED_ARG(argc);UNUSED_ARG(argv);
 307:Cmds.c        ****     
 308:Cmds.c        ****     int status1 = ToolStatusQuery();
 926              		.loc 1 308 0
 927 0002 FFF7FEFF 		bl	ToolStatusQuery
 928              	.LVL114:
 309:Cmds.c        ****     sprintf(u_msg, "Status: 0x%X ", status1);
 929              		.loc 1 309 0
 930 0006 064C     		ldr	r4, .L85
 931 0008 0246     		mov	r2, r0
 932 000a 0649     		ldr	r1, .L85+4
 933 000c 2046     		mov	r0, r4
 934              	.LVL115:
 935 000e FFF7FEFF 		bl	sprintf
 936              	.LVL116:
 310:Cmds.c        ****     PutStr(u_msg);
 937              		.loc 1 310 0
 938 0012 2046     		mov	r0, r4
 939 0014 FFF7FEFF 		bl	USB_PutString
 940              	.LVL117:
ARM GAS  C:\Users\Dan\AppData\Local\Temp\ccqFDNPX.s 			page 23


 311:Cmds.c        ****     TC_Status();
 941              		.loc 1 311 0
 942 0018 FFF7FEFF 		bl	TC_Status
 943              	.LVL118:
 312:Cmds.c        ****     return 0;
 313:Cmds.c        **** }
 944              		.loc 1 313 0
 945 001c 0020     		movs	r0, #0
 946 001e 10BD     		pop	{r4, pc}
 947              	.L86:
 948              		.align	2
 949              	.L85:
 950 0020 00000000 		.word	u_msg
 951 0024 80010000 		.word	.LC23
 952              		.cfi_endproc
 953              	.LFE78:
 954              		.size	Status_Cmd, .-Status_Cmd
 955              		.section	.text.Arm_In_Cmd,"ax",%progbits
 956              		.align	2
 957              		.global	Arm_In_Cmd
 958              		.thumb
 959              		.thumb_func
 960              		.type	Arm_In_Cmd, %function
 961              	Arm_In_Cmd:
 962              	.LFB79:
 314:Cmds.c        **** 
 315:Cmds.c        **** // actual operational commands
 316:Cmds.c        **** CLI_CMD(Arm_In_Cmd)
 317:Cmds.c        **** {
 963              		.loc 1 317 0
 964              		.cfi_startproc
 965              		@ args = 0, pretend = 0, frame = 0
 966              		@ frame_needed = 0, uses_anonymous_args = 0
 967              	.LVL119:
 968 0000 08B5     		push	{r3, lr}
 969              		.cfi_def_cfa_offset 8
 970              		.cfi_offset 3, -8
 971              		.cfi_offset 14, -4
 318:Cmds.c        ****     UNUSED_ARG(argc);UNUSED_ARG(argv);
 319:Cmds.c        ****     Arm_Cmd(1); // exactly the same command function as serial
 972              		.loc 1 319 0
 973 0002 0120     		movs	r0, #1
 974              	.LVL120:
 975 0004 FFF7FEFF 		bl	Arm_Cmd
 976              	.LVL121:
 320:Cmds.c        ****     return 0;
 321:Cmds.c        **** }
 977              		.loc 1 321 0
 978 0008 0020     		movs	r0, #0
 979 000a 08BD     		pop	{r3, pc}
 980              		.cfi_endproc
 981              	.LFE79:
 982              		.size	Arm_In_Cmd, .-Arm_In_Cmd
 983              		.section	.text.Arm_Out_Cmd,"ax",%progbits
 984              		.align	2
 985              		.global	Arm_Out_Cmd
 986              		.thumb
ARM GAS  C:\Users\Dan\AppData\Local\Temp\ccqFDNPX.s 			page 24


 987              		.thumb_func
 988              		.type	Arm_Out_Cmd, %function
 989              	Arm_Out_Cmd:
 990              	.LFB80:
 322:Cmds.c        **** CLI_CMD(Arm_Out_Cmd)
 323:Cmds.c        **** {
 991              		.loc 1 323 0
 992              		.cfi_startproc
 993              		@ args = 0, pretend = 0, frame = 0
 994              		@ frame_needed = 0, uses_anonymous_args = 0
 995              	.LVL122:
 996 0000 08B5     		push	{r3, lr}
 997              		.cfi_def_cfa_offset 8
 998              		.cfi_offset 3, -8
 999              		.cfi_offset 14, -4
 324:Cmds.c        ****     UNUSED_ARG(argc);UNUSED_ARG(argv);
 325:Cmds.c        ****     Arm_Cmd(2);
 1000              		.loc 1 325 0
 1001 0002 0220     		movs	r0, #2
 1002              	.LVL123:
 1003 0004 FFF7FEFF 		bl	Arm_Cmd
 1004              	.LVL124:
 326:Cmds.c        ****     return 0;
 327:Cmds.c        **** }
 1005              		.loc 1 327 0
 1006 0008 0020     		movs	r0, #0
 1007 000a 08BD     		pop	{r3, pc}
 1008              		.cfi_endproc
 1009              	.LFE80:
 1010              		.size	Arm_Out_Cmd, .-Arm_Out_Cmd
 1011              		.section	.text.ToolChange_Cmd,"ax",%progbits
 1012              		.align	2
 1013              		.global	ToolChange_Cmd
 1014              		.thumb
 1015              		.thumb_func
 1016              		.type	ToolChange_Cmd, %function
 1017              	ToolChange_Cmd:
 1018              	.LFB81:
 328:Cmds.c        **** 
 329:Cmds.c        **** CLI_CMD(ToolChange_Cmd)
 330:Cmds.c        **** {
 1019              		.loc 1 330 0
 1020              		.cfi_startproc
 1021              		@ args = 0, pretend = 0, frame = 0
 1022              		@ frame_needed = 0, uses_anonymous_args = 0
 1023              	.LVL125:
 1024 0000 10B5     		push	{r4, lr}
 1025              		.cfi_def_cfa_offset 8
 1026              		.cfi_offset 4, -8
 1027              		.cfi_offset 14, -4
 331:Cmds.c        ****     // get the tool number
 332:Cmds.c        ****     int tool;
 333:Cmds.c        ****     if(argc < 2)
 1028              		.loc 1 333 0
 1029 0002 0128     		cmp	r0, #1
 1030 0004 0BDC     		bgt	.L92
 334:Cmds.c        ****     {
ARM GAS  C:\Users\Dan\AppData\Local\Temp\ccqFDNPX.s 			page 25


 335:Cmds.c        ****         tool = Get_Current_Tool();  // 1 second 
 1031              		.loc 1 335 0
 1032 0006 FFF7FEFF 		bl	Get_Current_Tool
 1033              	.LVL126:
 336:Cmds.c        ****         sprintf(u_msg, "Current Tool is %d", tool);
 1034              		.loc 1 336 0
 1035 000a 114C     		ldr	r4, .L96
 1036 000c 0246     		mov	r2, r0
 1037 000e 1149     		ldr	r1, .L96+4
 1038 0010 2046     		mov	r0, r4
 1039              	.LVL127:
 1040 0012 FFF7FEFF 		bl	sprintf
 1041              	.LVL128:
 337:Cmds.c        ****         PutStr(u_msg);
 1042              		.loc 1 337 0
 1043 0016 2046     		mov	r0, r4
 1044 0018 FFF7FEFF 		bl	USB_PutString
 1045              	.LVL129:
 1046 001c 15E0     		b	.L93
 1047              	.LVL130:
 1048              	.L92:
 1049 001e 0B46     		mov	r3, r1
 338:Cmds.c        ****     }
 339:Cmds.c        ****     else
 340:Cmds.c        ****     {
 341:Cmds.c        ****         tool = strtoul(argv[1], NULL, 0);
 1050              		.loc 1 341 0
 1051 0020 0022     		movs	r2, #0
 1052 0022 1146     		mov	r1, r2
 1053              	.LVL131:
 1054 0024 5868     		ldr	r0, [r3, #4]
 1055              	.LVL132:
 1056 0026 FFF7FEFF 		bl	strtoul
 1057              	.LVL133:
 342:Cmds.c        ****         if((tool > NUMBER_OF_TOOLS) || (tool < 1)) 
 1058              		.loc 1 342 0
 1059 002a 431E     		subs	r3, r0, #1
 1060 002c 072B     		cmp	r3, #7
 1061 002e 09D9     		bls	.L94
 343:Cmds.c        ****         {
 344:Cmds.c        ****             sprintf(u_msg,"Tool out of range! 1 to %d", NUMBER_OF_TOOLS);
 1062              		.loc 1 344 0
 1063 0030 074C     		ldr	r4, .L96
 1064 0032 0822     		movs	r2, #8
 1065 0034 0849     		ldr	r1, .L96+8
 1066 0036 2046     		mov	r0, r4
 1067              	.LVL134:
 1068 0038 FFF7FEFF 		bl	sprintf
 1069              	.LVL135:
 345:Cmds.c        ****             PutStr(u_msg);
 1070              		.loc 1 345 0
 1071 003c 2046     		mov	r0, r4
 1072 003e FFF7FEFF 		bl	USB_PutString
 1073              	.LVL136:
 346:Cmds.c        ****             return 0;
 1074              		.loc 1 346 0
 1075 0042 02E0     		b	.L93
ARM GAS  C:\Users\Dan\AppData\Local\Temp\ccqFDNPX.s 			page 26


 1076              	.LVL137:
 1077              	.L94:
 347:Cmds.c        ****         }
 348:Cmds.c        ****         else
 349:Cmds.c        ****         {
 350:Cmds.c        ****             Carousel_Cmd((int8)(tool));
 1078              		.loc 1 350 0
 1079 0044 C0B2     		uxtb	r0, r0
 1080              	.LVL138:
 1081 0046 FFF7FEFF 		bl	Carousel_Cmd
 1082              	.LVL139:
 1083              	.L93:
 351:Cmds.c        ****         }
 352:Cmds.c        ****     }
 353:Cmds.c        ****     
 354:Cmds.c        ****     return 0;
 355:Cmds.c        **** }
 1084              		.loc 1 355 0
 1085 004a 0020     		movs	r0, #0
 1086 004c 10BD     		pop	{r4, pc}
 1087              	.L97:
 1088 004e 00BF     		.align	2
 1089              	.L96:
 1090 0050 00000000 		.word	u_msg
 1091 0054 90010000 		.word	.LC24
 1092 0058 A4010000 		.word	.LC25
 1093              		.cfi_endproc
 1094              	.LFE81:
 1095              		.size	ToolChange_Cmd, .-ToolChange_Cmd
 1096              		.section	.text.ToolRelease_Cmd,"ax",%progbits
 1097              		.align	2
 1098              		.global	ToolRelease_Cmd
 1099              		.thumb
 1100              		.thumb_func
 1101              		.type	ToolRelease_Cmd, %function
 1102              	ToolRelease_Cmd:
 1103              	.LFB82:
 356:Cmds.c        **** 
 357:Cmds.c        **** CLI_CMD(ToolRelease_Cmd)
 358:Cmds.c        **** {
 1104              		.loc 1 358 0
 1105              		.cfi_startproc
 1106              		@ args = 0, pretend = 0, frame = 0
 1107              		@ frame_needed = 0, uses_anonymous_args = 0
 1108              	.LVL140:
 1109 0000 08B5     		push	{r3, lr}
 1110              		.cfi_def_cfa_offset 8
 1111              		.cfi_offset 3, -8
 1112              		.cfi_offset 14, -4
 359:Cmds.c        ****     UNUSED_ARG(argc);UNUSED_ARG(argv);
 360:Cmds.c        ****     Clamp_Cmd(2);
 1113              		.loc 1 360 0
 1114 0002 0220     		movs	r0, #2
 1115              	.LVL141:
 1116 0004 FFF7FEFF 		bl	Clamp_Cmd
 1117              	.LVL142:
 361:Cmds.c        ****     return 0;
ARM GAS  C:\Users\Dan\AppData\Local\Temp\ccqFDNPX.s 			page 27


 362:Cmds.c        **** }
 1118              		.loc 1 362 0
 1119 0008 0020     		movs	r0, #0
 1120 000a 08BD     		pop	{r3, pc}
 1121              		.cfi_endproc
 1122              	.LFE82:
 1123              		.size	ToolRelease_Cmd, .-ToolRelease_Cmd
 1124              		.section	.text.ToolGrab_Cmd,"ax",%progbits
 1125              		.align	2
 1126              		.global	ToolGrab_Cmd
 1127              		.thumb
 1128              		.thumb_func
 1129              		.type	ToolGrab_Cmd, %function
 1130              	ToolGrab_Cmd:
 1131              	.LFB83:
 363:Cmds.c        **** 
 364:Cmds.c        **** CLI_CMD(ToolGrab_Cmd)
 365:Cmds.c        **** {
 1132              		.loc 1 365 0
 1133              		.cfi_startproc
 1134              		@ args = 0, pretend = 0, frame = 0
 1135              		@ frame_needed = 0, uses_anonymous_args = 0
 1136              	.LVL143:
 1137 0000 08B5     		push	{r3, lr}
 1138              		.cfi_def_cfa_offset 8
 1139              		.cfi_offset 3, -8
 1140              		.cfi_offset 14, -4
 366:Cmds.c        ****     UNUSED_ARG(argc);UNUSED_ARG(argv);
 367:Cmds.c        ****     Clamp_Cmd(4);
 1141              		.loc 1 367 0
 1142 0002 0420     		movs	r0, #4
 1143              	.LVL144:
 1144 0004 FFF7FEFF 		bl	Clamp_Cmd
 1145              	.LVL145:
 368:Cmds.c        ****     return 0;
 369:Cmds.c        **** }
 1146              		.loc 1 369 0
 1147 0008 0020     		movs	r0, #0
 1148 000a 08BD     		pop	{r3, pc}
 1149              		.cfi_endproc
 1150              	.LFE83:
 1151              		.size	ToolGrab_Cmd, .-ToolGrab_Cmd
 1152              		.section	.text.Test_Home_Cmd,"ax",%progbits
 1153              		.align	2
 1154              		.global	Test_Home_Cmd
 1155              		.thumb
 1156              		.thumb_func
 1157              		.type	Test_Home_Cmd, %function
 1158              	Test_Home_Cmd:
 1159              	.LFB84:
 370:Cmds.c        **** 
 371:Cmds.c        **** CLI_CMD(Test_Home_Cmd)
 372:Cmds.c        **** {
 1160              		.loc 1 372 0
 1161              		.cfi_startproc
 1162              		@ args = 0, pretend = 0, frame = 0
 1163              		@ frame_needed = 0, uses_anonymous_args = 0
ARM GAS  C:\Users\Dan\AppData\Local\Temp\ccqFDNPX.s 			page 28


 1164              	.LVL146:
 1165 0000 08B5     		push	{r3, lr}
 1166              		.cfi_def_cfa_offset 8
 1167              		.cfi_offset 3, -8
 1168              		.cfi_offset 14, -4
 373:Cmds.c        ****     UNUSED_ARG(argc);UNUSED_ARG(argv);
 374:Cmds.c        ****     Home_Cmd(0);
 1169              		.loc 1 374 0
 1170 0002 0020     		movs	r0, #0
 1171              	.LVL147:
 1172 0004 FFF7FEFF 		bl	Home_Cmd
 1173              	.LVL148:
 375:Cmds.c        ****     return 0;
 376:Cmds.c        **** }
 1174              		.loc 1 376 0
 1175 0008 0020     		movs	r0, #0
 1176 000a 08BD     		pop	{r3, pc}
 1177              		.cfi_endproc
 1178              	.LFE84:
 1179              		.size	Test_Home_Cmd, .-Test_Home_Cmd
 1180              		.section	.text.Sense_Cmd,"ax",%progbits
 1181              		.align	2
 1182              		.global	Sense_Cmd
 1183              		.thumb
 1184              		.thumb_func
 1185              		.type	Sense_Cmd, %function
 1186              	Sense_Cmd:
 1187              	.LFB85:
 377:Cmds.c        **** 
 378:Cmds.c        **** CLI_CMD(Sense_Cmd)
 379:Cmds.c        **** {
 1188              		.loc 1 379 0
 1189              		.cfi_startproc
 1190              		@ args = 0, pretend = 0, frame = 0
 1191              		@ frame_needed = 0, uses_anonymous_args = 0
 1192              	.LVL149:
 1193 0000 10B5     		push	{r4, lr}
 1194              		.cfi_def_cfa_offset 8
 1195              		.cfi_offset 4, -8
 1196              		.cfi_offset 14, -4
 380:Cmds.c        ****     UNUSED_ARG(argc);UNUSED_ARG(argv);
 381:Cmds.c        ****     uint8  p0, p1;
 382:Cmds.c        ****     p0 = SENSE_PORT;
 1197              		.loc 1 382 0
 1198 0002 074B     		ldr	r3, .L106
 1199 0004 1A78     		ldrb	r2, [r3]	@ zero_extendqisi2
 1200              	.LVL150:
 383:Cmds.c        ****     p1 = FAULT_PORT;
 1201              		.loc 1 383 0
 1202 0006 1033     		adds	r3, r3, #16
 1203 0008 1B78     		ldrb	r3, [r3]	@ zero_extendqisi2
 1204              	.LVL151:
 384:Cmds.c        ****     sprintf(u_msg, "Port0: 0x%X, Port1: 0x%X", p0, p1);
 1205              		.loc 1 384 0
 1206 000a 064C     		ldr	r4, .L106+4
 1207 000c 0649     		ldr	r1, .L106+8
 1208              	.LVL152:
ARM GAS  C:\Users\Dan\AppData\Local\Temp\ccqFDNPX.s 			page 29


 1209 000e 2046     		mov	r0, r4
 1210              	.LVL153:
 1211 0010 FFF7FEFF 		bl	sprintf
 1212              	.LVL154:
 385:Cmds.c        ****     PutStr(u_msg);
 1213              		.loc 1 385 0
 1214 0014 2046     		mov	r0, r4
 1215 0016 FFF7FEFF 		bl	USB_PutString
 1216              	.LVL155:
 386:Cmds.c        ****     return 0;
 387:Cmds.c        **** }
 1217              		.loc 1 387 0
 1218 001a 0020     		movs	r0, #0
 1219 001c 10BD     		pop	{r4, pc}
 1220              	.L107:
 1221 001e 00BF     		.align	2
 1222              	.L106:
 1223 0020 01510040 		.word	1073762561
 1224 0024 00000000 		.word	u_msg
 1225 0028 C0010000 		.word	.LC26
 1226              		.cfi_endproc
 1227              	.LFE85:
 1228              		.size	Sense_Cmd, .-Sense_Cmd
 1229              		.section	.text.At_Home_Cmd,"ax",%progbits
 1230              		.align	2
 1231              		.global	At_Home_Cmd
 1232              		.thumb
 1233              		.thumb_func
 1234              		.type	At_Home_Cmd, %function
 1235              	At_Home_Cmd:
 1236              	.LFB86:
 388:Cmds.c        **** 
 389:Cmds.c        **** CLI_CMD(At_Home_Cmd)
 390:Cmds.c        **** {
 1237              		.loc 1 390 0
 1238              		.cfi_startproc
 1239              		@ args = 0, pretend = 0, frame = 0
 1240              		@ frame_needed = 0, uses_anonymous_args = 0
 1241              	.LVL156:
 1242 0000 08B5     		push	{r3, lr}
 1243              		.cfi_def_cfa_offset 8
 1244              		.cfi_offset 3, -8
 1245              		.cfi_offset 14, -4
 391:Cmds.c        ****     UNUSED_ARG(argc);UNUSED_ARG(argv);
 392:Cmds.c        ****     if(At_Home() == 0)
 1246              		.loc 1 392 0
 1247 0002 FFF7FEFF 		bl	At_Home
 1248              	.LVL157:
 1249 0006 18B9     		cbnz	r0, .L109
 393:Cmds.c        ****     {
 394:Cmds.c        ****         PutStr("Not HOME!");
 1250              		.loc 1 394 0
 1251 0008 0448     		ldr	r0, .L112
 1252 000a FFF7FEFF 		bl	USB_PutString
 1253              	.LVL158:
 1254 000e 02E0     		b	.L110
 1255              	.L109:
ARM GAS  C:\Users\Dan\AppData\Local\Temp\ccqFDNPX.s 			page 30


 395:Cmds.c        ****     }
 396:Cmds.c        ****     else
 397:Cmds.c        ****     {
 398:Cmds.c        ****         PutStr("HOME!");
 1256              		.loc 1 398 0
 1257 0010 0348     		ldr	r0, .L112+4
 1258 0012 FFF7FEFF 		bl	USB_PutString
 1259              	.LVL159:
 1260              	.L110:
 399:Cmds.c        ****     }
 400:Cmds.c        ****     return 0;
 401:Cmds.c        **** }
 1261              		.loc 1 401 0
 1262 0016 0020     		movs	r0, #0
 1263 0018 08BD     		pop	{r3, pc}
 1264              	.L113:
 1265 001a 00BF     		.align	2
 1266              	.L112:
 1267 001c DC010000 		.word	.LC27
 1268 0020 E8010000 		.word	.LC28
 1269              		.cfi_endproc
 1270              	.LFE86:
 1271              		.size	At_Home_Cmd, .-At_Home_Cmd
 1272              		.section	.text.In_Fault_Cmd,"ax",%progbits
 1273              		.align	2
 1274              		.global	In_Fault_Cmd
 1275              		.thumb
 1276              		.thumb_func
 1277              		.type	In_Fault_Cmd, %function
 1278              	In_Fault_Cmd:
 1279              	.LFB87:
 402:Cmds.c        **** 
 403:Cmds.c        **** CLI_CMD(In_Fault_Cmd)
 404:Cmds.c        **** {
 1280              		.loc 1 404 0
 1281              		.cfi_startproc
 1282              		@ args = 0, pretend = 0, frame = 0
 1283              		@ frame_needed = 0, uses_anonymous_args = 0
 1284              	.LVL160:
 1285 0000 08B5     		push	{r3, lr}
 1286              		.cfi_def_cfa_offset 8
 1287              		.cfi_offset 3, -8
 1288              		.cfi_offset 14, -4
 405:Cmds.c        ****     UNUSED_ARG(argc);UNUSED_ARG(argv);
 406:Cmds.c        ****     if(In_Fault() == 0)
 1289              		.loc 1 406 0
 1290 0002 FFF7FEFF 		bl	In_Fault
 1291              	.LVL161:
 1292 0006 18B9     		cbnz	r0, .L115
 407:Cmds.c        ****     {
 408:Cmds.c        ****         PutStr("NO FAULT");
 1293              		.loc 1 408 0
 1294 0008 0448     		ldr	r0, .L118
 1295 000a FFF7FEFF 		bl	USB_PutString
 1296              	.LVL162:
 1297 000e 02E0     		b	.L116
 1298              	.L115:
ARM GAS  C:\Users\Dan\AppData\Local\Temp\ccqFDNPX.s 			page 31


 409:Cmds.c        ****     }
 410:Cmds.c        ****     else
 411:Cmds.c        ****     {
 412:Cmds.c        ****         PutStr("*** FAULT ***");
 1299              		.loc 1 412 0
 1300 0010 0348     		ldr	r0, .L118+4
 1301 0012 FFF7FEFF 		bl	USB_PutString
 1302              	.LVL163:
 1303              	.L116:
 413:Cmds.c        ****     }
 414:Cmds.c        ****     return 0;
 415:Cmds.c        **** }
 1304              		.loc 1 415 0
 1305 0016 0020     		movs	r0, #0
 1306 0018 08BD     		pop	{r3, pc}
 1307              	.L119:
 1308 001a 00BF     		.align	2
 1309              	.L118:
 1310 001c F0010000 		.word	.LC29
 1311 0020 FC010000 		.word	.LC30
 1312              		.cfi_endproc
 1313              	.LFE87:
 1314              		.size	In_Fault_Cmd, .-In_Fault_Cmd
 1315              		.comm	u_msg,32,4
 1316              		.section	.rodata.str1.4,"aMS",%progbits,1
 1317              		.align	2
 1318              	.LC0:
 1319 0000 0D2A2A20 		.ascii	"\015** BP308 TLAUX with PSOC-5 **\015\000"
 1319      42503330 
 1319      3820544C 
 1319      41555820 
 1319      77697468 
 1320              	.LC1:
 1321 0020 20205665 		.ascii	"  Version 1.00\015\000"
 1321      7273696F 
 1321      6E20312E 
 1321      30300D00 
 1322              	.LC2:
 1323 0030 4D617220 		.ascii	"Mar 23 2019 14:59:10\015\000"
 1323      32332032 
 1323      30313920 
 1323      31343A35 
 1323      393A3130 
 1324 0046 0000     		.space	2
 1325              	.LC3:
 1326 0048 75736167 		.ascii	"usage: count {on/off}\000"
 1326      653A2063 
 1326      6F756E74 
 1326      207B6F6E 
 1326      2F6F6666 
 1327 005e 0000     		.space	2
 1328              	.LC4:
 1329 0060 6F6E00   		.ascii	"on\000"
 1330 0063 00       		.space	1
 1331              	.LC5:
 1332 0064 436F756E 		.ascii	"Count already running!\000"
 1332      7420616C 
ARM GAS  C:\Users\Dan\AppData\Local\Temp\ccqFDNPX.s 			page 32


 1332      72656164 
 1332      79207275 
 1332      6E6E696E 
 1333 007b 00       		.space	1
 1334              	.LC6:
 1335 007c 436F756E 		.ascii	"Count is ON!\000"
 1335      74206973 
 1335      204F4E21 
 1335      00
 1336 0089 000000   		.space	3
 1337              	.LC7:
 1338 008c 6F666600 		.ascii	"off\000"
 1339              	.LC8:
 1340 0090 436F756E 		.ascii	"Count is OFF!\000"
 1340      74206973 
 1340      204F4646 
 1340      2100
 1341 009e 0000     		.space	2
 1342              	.LC9:
 1343 00a0 75736167 		.ascii	"usage: alpha {on/off}\000"
 1343      653A2061 
 1343      6C706861 
 1343      207B6F6E 
 1343      2F6F6666 
 1344 00b6 0000     		.space	2
 1345              	.LC10:
 1346 00b8 416C7068 		.ascii	"Alpha already running!\000"
 1346      6120616C 
 1346      72656164 
 1346      79207275 
 1346      6E6E696E 
 1347 00cf 00       		.space	1
 1348              	.LC11:
 1349 00d0 416C7068 		.ascii	"Alpha is ON!\000"
 1349      61206973 
 1349      204F4E21 
 1349      00
 1350 00dd 000000   		.space	3
 1351              	.LC12:
 1352 00e0 416C7068 		.ascii	"Alpha is OFF!\000"
 1352      61206973 
 1352      204F4646 
 1352      2100
 1353 00ee 0000     		.space	2
 1354              	.LC13:
 1355 00f0 41726D20 		.ascii	"Arm Dir: OUT\000"
 1355      4469723A 
 1355      204F5554 
 1355      00
 1356 00fd 000000   		.space	3
 1357              	.LC14:
 1358 0100 41726D20 		.ascii	"Arm Dir: IN\000"
 1358      4469723A 
 1358      20494E00 
 1359              	.LC15:
 1360 010c 696E00   		.ascii	"in\000"
 1361 010f 00       		.space	1
ARM GAS  C:\Users\Dan\AppData\Local\Temp\ccqFDNPX.s 			page 33


 1362              	.LC16:
 1363 0110 6F757400 		.ascii	"out\000"
 1364              	.LC17:
 1365 0114 4361726F 		.ascii	"Carousel Dir: CW\000"
 1365      7573656C 
 1365      20446972 
 1365      3A204357 
 1365      00
 1366 0125 000000   		.space	3
 1367              	.LC18:
 1368 0128 4361726F 		.ascii	"Carousel Dir: CCW\000"
 1368      7573656C 
 1368      20446972 
 1368      3A204343 
 1368      5700
 1369 013a 0000     		.space	2
 1370              	.LC19:
 1371 013c 637700   		.ascii	"cw\000"
 1372 013f 00       		.space	1
 1373              	.LC20:
 1374 0140 63637700 		.ascii	"ccw\000"
 1375              	.LC21:
 1376 0144 75736167 		.ascii	"usage: tclamp {on/off}\000"
 1376      653A2074 
 1376      636C616D 
 1376      70207B6F 
 1376      6E2F6F66 
 1377 015b 00       		.space	1
 1378              	.LC22:
 1379 015c 75736167 		.ascii	"usage: Tool Changer Air {on/off}\000"
 1379      653A2054 
 1379      6F6F6C20 
 1379      4368616E 
 1379      67657220 
 1380 017d 000000   		.space	3
 1381              	.LC23:
 1382 0180 53746174 		.ascii	"Status: 0x%X \000"
 1382      75733A20 
 1382      30782558 
 1382      2000
 1383 018e 0000     		.space	2
 1384              	.LC24:
 1385 0190 43757272 		.ascii	"Current Tool is %d\000"
 1385      656E7420 
 1385      546F6F6C 
 1385      20697320 
 1385      256400
 1386 01a3 00       		.space	1
 1387              	.LC25:
 1388 01a4 546F6F6C 		.ascii	"Tool out of range! 1 to %d\000"
 1388      206F7574 
 1388      206F6620 
 1388      72616E67 
 1388      65212031 
 1389 01bf 00       		.space	1
 1390              	.LC26:
 1391 01c0 506F7274 		.ascii	"Port0: 0x%X, Port1: 0x%X\000"
ARM GAS  C:\Users\Dan\AppData\Local\Temp\ccqFDNPX.s 			page 34


 1391      303A2030 
 1391      7825582C 
 1391      20506F72 
 1391      74313A20 
 1392 01d9 000000   		.space	3
 1393              	.LC27:
 1394 01dc 4E6F7420 		.ascii	"Not HOME!\000"
 1394      484F4D45 
 1394      2100
 1395 01e6 0000     		.space	2
 1396              	.LC28:
 1397 01e8 484F4D45 		.ascii	"HOME!\000"
 1397      2100
 1398 01ee 0000     		.space	2
 1399              	.LC29:
 1400 01f0 4E4F2046 		.ascii	"NO FAULT\000"
 1400      41554C54 
 1400      00
 1401 01f9 000000   		.space	3
 1402              	.LC30:
 1403 01fc 2A2A2A20 		.ascii	"*** FAULT ***\000"
 1403      4641554C 
 1403      54202A2A 
 1403      2A00
 1404              		.bss
 1405              		.align	2
 1406              		.set	.LANCHOR0,. + 0
 1407              		.type	ArmDir, %object
 1408              		.size	ArmDir, 4
 1409              	ArmDir:
 1410 0000 00000000 		.space	4
 1411              		.type	CarouselDir, %object
 1412              		.size	CarouselDir, 4
 1413              	CarouselDir:
 1414 0004 00000000 		.space	4
 1415              		.text
 1416              	.Letext0:
 1417              		.file 2 "c:\\program files (x86)\\cypress\\psoc creator\\4.2\\psoc creator\\import\\gnu\\arm\\5.4.
 1418              		.file 3 "c:\\program files (x86)\\cypress\\psoc creator\\4.2\\psoc creator\\import\\gnu\\arm\\5.4.
 1419              		.file 4 "Generated_Source\\PSoC5/cytypes.h"
 1420              		.file 5 "State_Machine.h"
 1421              		.file 6 "Generated_Source\\PSoC5/core_cm3.h"
 1422              		.file 7 "U_HW.h"
 1423              		.file 8 "c:\\program files (x86)\\cypress\\psoc creator\\4.2\\psoc creator\\import\\gnu\\arm\\5.4.
 1424              		.file 9 "Processes.h"
 1425              		.file 10 "c:\\program files (x86)\\cypress\\psoc creator\\4.2\\psoc creator\\import\\gnu\\arm\\5.4
 1426              		.file 11 "Generated_Source\\PSoC5/Bootloadable.h"
 1427              		.file 12 "ToolCmds.h"
 1428              		.file 13 "c:\\program files (x86)\\cypress\\psoc creator\\4.2\\psoc creator\\import\\gnu\\arm\\5.4