ARM GAS  C:\Users\Dan\AppData\Local\Temp\cctBGMLt.s 			page 1


   1              		.syntax unified
   2              		.cpu cortex-m3
   3              		.fpu softvfp
   4              		.eabi_attribute 20, 1
   5              		.eabi_attribute 21, 1
   6              		.eabi_attribute 23, 3
   7              		.eabi_attribute 24, 1
   8              		.eabi_attribute 25, 1
   9              		.eabi_attribute 26, 1
  10              		.eabi_attribute 30, 1
  11              		.eabi_attribute 34, 1
  12              		.eabi_attribute 18, 4
  13              		.thumb
  14              		.syntax unified
  15              		.file	"Processes.c"
  16              		.text
  17              	.Ltext0:
  18              		.cfi_sections	.debug_frame
  19              		.section	.text.TC_StateMachine,"ax",%progbits
  20              		.align	2
  21              		.global	TC_StateMachine
  22              		.thumb
  23              		.thumb_func
  24              		.type	TC_StateMachine, %function
  25              	TC_StateMachine:
  26              	.LFB69:
  27              		.file 1 "Processes.c"
   1:Processes.c   **** /* ========================================
   2:Processes.c   ****  *
   3:Processes.c   ****  * Copyright YOUR COMPANY, THE YEAR
   4:Processes.c   ****  * All Rights Reserved
   5:Processes.c   ****  * UNPUBLISHED, LICENSED SOFTWARE.
   6:Processes.c   ****  *
   7:Processes.c   ****  * CONFIDENTIAL AND PROPRIETARY INFORMATION
   8:Processes.c   ****  * WHICH IS THE PROPERTY OF your company.
   9:Processes.c   ****  *
  10:Processes.c   ****  * ========================================
  11:Processes.c   **** */
  12:Processes.c   **** 
  13:Processes.c   **** #include "Processes.h"
  14:Processes.c   **** #include <project.h>
  15:Processes.c   **** #include <stdio.h>
  16:Processes.c   **** #include "ToolCmds.h"
  17:Processes.c   **** #include "State_Machine.h"
  18:Processes.c   **** 
  19:Processes.c   **** #include "U_HW.h"
  20:Processes.c   **** 
  21:Processes.c   **** extern uint32_t STATUS_FLAG1;
  22:Processes.c   **** 
  23:Processes.c   **** extern func_ptr FastProcess[];
  24:Processes.c   **** extern func_ptr MsProcess[];
  25:Processes.c   **** extern func_ptr SlowProcess[];
  26:Processes.c   **** extern volatile uint32 MS_Time;
  27:Processes.c   **** 
  28:Processes.c   **** func_ptr TC_SM;
  29:Processes.c   **** uint8   TC_STATE;
  30:Processes.c   **** 
ARM GAS  C:\Users\Dan\AppData\Local\Temp\cctBGMLt.s 			page 2


  31:Processes.c   **** uint8 Current_Tool;
  32:Processes.c   **** uint8 Target_Tool;
  33:Processes.c   **** int8  Carousel_Dir;
  34:Processes.c   **** 
  35:Processes.c   **** static uint16_t C_Count;
  36:Processes.c   **** static uint16_t SecCount;
  37:Processes.c   **** 
  38:Processes.c   **** void InitCountProcess(void)
  39:Processes.c   **** {
  40:Processes.c   ****     C_Count = 0;
  41:Processes.c   ****     SecCount = 1000;
  42:Processes.c   **** }
  43:Processes.c   **** void CountProcess(void)
  44:Processes.c   **** {
  45:Processes.c   ****     char msg[20];
  46:Processes.c   ****     if((--SecCount) == 0)
  47:Processes.c   ****     {
  48:Processes.c   ****         SecCount = 1000; // reset the counter
  49:Processes.c   ****         sprintf(msg, "Count = %d\r", C_Count++);
  50:Processes.c   ****         PutStr(msg);
  51:Processes.c   **** //        Pin_LED_Write(~(Pin_LED_Read()));    // toggle the LED
  52:Processes.c   ****     }
  53:Processes.c   **** }
  54:Processes.c   **** 
  55:Processes.c   **** static uint8 A_Count;
  56:Processes.c   **** static uint16 S_Count;
  57:Processes.c   **** 
  58:Processes.c   **** void InitAlphaProcess(void)
  59:Processes.c   **** {
  60:Processes.c   ****     A_Count = 0;
  61:Processes.c   ****     S_Count = 1000;
  62:Processes.c   **** }
  63:Processes.c   **** 
  64:Processes.c   **** void AlphaProcess(void)
  65:Processes.c   **** {
  66:Processes.c   **** 
  67:Processes.c   ****     char msg[20];
  68:Processes.c   ****     if((--S_Count) == 0)
  69:Processes.c   ****     {
  70:Processes.c   ****         S_Count = 1000u; // reset the counter
  71:Processes.c   ****         sprintf(msg, "Alpha = %c\r", (A_Count + 'A'));
  72:Processes.c   ****         PutStr(msg);
  73:Processes.c   ****         if(A_Count++ > 56) A_Count = 0;
  74:Processes.c   **** //        Pin_LED_Write(~(Pin_LED_Read()));    // toggle the LED
  75:Processes.c   ****     }
  76:Processes.c   **** }
  77:Processes.c   **** 
  78:Processes.c   **** 
  79:Processes.c   **** // delay timer variables
  80:Processes.c   **** static uint32 TC_Delay; // the amount of time to delay
  81:Processes.c   **** static uint32 TC_DelayStart; // the time tick when the delay started
  82:Processes.c   **** 
  83:Processes.c   **** 
  84:Processes.c   **** // tool changer state machine
  85:Processes.c   **** void Init_TC_StateMachine(void)
  86:Processes.c   **** {
  87:Processes.c   ****     if(Process_Running(FastProcess, TC_StateMachine))
ARM GAS  C:\Users\Dan\AppData\Local\Temp\cctBGMLt.s 			page 3


  88:Processes.c   ****     {
  89:Processes.c   ****         PutStr("Status Process already running!\n");
  90:Processes.c   ****     } else {
  91:Processes.c   ****     // start all the constantaly running processes.
  92:Processes.c   ****     // Status Monitor
  93:Processes.c   ****         Add_Process(FastProcess, &(TC_StateMachine));
  94:Processes.c   ****         PutStr("TC_State Machine Started");
  95:Processes.c   ****         TC_SM = &TC_Fault;
  96:Processes.c   ****     } 
  97:Processes.c   **** }
  98:Processes.c   **** 
  99:Processes.c   **** void TC_StateMachine(void)
 100:Processes.c   **** {
  28              		.loc 1 100 0
  29              		.cfi_startproc
  30              		@ args = 0, pretend = 0, frame = 0
  31              		@ frame_needed = 0, uses_anonymous_args = 0
  32 0000 08B5     		push	{r3, lr}
  33              		.cfi_def_cfa_offset 8
  34              		.cfi_offset 3, -8
  35              		.cfi_offset 14, -4
 101:Processes.c   ****     // check for things that may cause a fault
 102:Processes.c   ****     // if there is a fault then TC_SM = &TC_Fault;
 103:Processes.c   ****     // 
 104:Processes.c   ****     TC_SM();
  36              		.loc 1 104 0
  37 0002 024B     		ldr	r3, .L3
  38 0004 1B68     		ldr	r3, [r3]
  39 0006 9847     		blx	r3
  40              	.LVL0:
  41 0008 08BD     		pop	{r3, pc}
  42              	.L4:
  43 000a 00BF     		.align	2
  44              	.L3:
  45 000c 00000000 		.word	TC_SM
  46              		.cfi_endproc
  47              	.LFE69:
  48              		.size	TC_StateMachine, .-TC_StateMachine
  49              		.section	.text.InitCountProcess,"ax",%progbits
  50              		.align	2
  51              		.global	InitCountProcess
  52              		.thumb
  53              		.thumb_func
  54              		.type	InitCountProcess, %function
  55              	InitCountProcess:
  56              	.LFB64:
  39:Processes.c   ****     C_Count = 0;
  57              		.loc 1 39 0
  58              		.cfi_startproc
  59              		@ args = 0, pretend = 0, frame = 0
  60              		@ frame_needed = 0, uses_anonymous_args = 0
  61              		@ link register save eliminated.
  40:Processes.c   ****     SecCount = 1000;
  62              		.loc 1 40 0
  63 0000 034B     		ldr	r3, .L6
  64 0002 0022     		movs	r2, #0
  65 0004 1A80     		strh	r2, [r3]	@ movhi
ARM GAS  C:\Users\Dan\AppData\Local\Temp\cctBGMLt.s 			page 4


  41:Processes.c   **** }
  66              		.loc 1 41 0
  67 0006 4FF47A72 		mov	r2, #1000
  68 000a 5A80     		strh	r2, [r3, #2]	@ movhi
  69 000c 7047     		bx	lr
  70              	.L7:
  71 000e 00BF     		.align	2
  72              	.L6:
  73 0010 00000000 		.word	.LANCHOR0
  74              		.cfi_endproc
  75              	.LFE64:
  76              		.size	InitCountProcess, .-InitCountProcess
  77              		.section	.text.CountProcess,"ax",%progbits
  78              		.align	2
  79              		.global	CountProcess
  80              		.thumb
  81              		.thumb_func
  82              		.type	CountProcess, %function
  83              	CountProcess:
  84              	.LFB65:
  44:Processes.c   ****     char msg[20];
  85              		.loc 1 44 0
  86              		.cfi_startproc
  87              		@ args = 0, pretend = 0, frame = 24
  88              		@ frame_needed = 0, uses_anonymous_args = 0
  46:Processes.c   ****     {
  89              		.loc 1 46 0
  90 0000 0C4A     		ldr	r2, .L12
  91 0002 5388     		ldrh	r3, [r2, #2]
  92 0004 013B     		subs	r3, r3, #1
  93 0006 9BB2     		uxth	r3, r3
  94 0008 5380     		strh	r3, [r2, #2]	@ movhi
  95 000a 93B9     		cbnz	r3, .L11
  44:Processes.c   ****     char msg[20];
  96              		.loc 1 44 0
  97 000c 00B5     		push	{lr}
  98              		.cfi_def_cfa_offset 4
  99              		.cfi_offset 14, -4
 100 000e 87B0     		sub	sp, sp, #28
 101              		.cfi_def_cfa_offset 32
  48:Processes.c   ****         sprintf(msg, "Count = %d\r", C_Count++);
 102              		.loc 1 48 0
 103 0010 1346     		mov	r3, r2
 104 0012 4FF47A72 		mov	r2, #1000
 105 0016 5A80     		strh	r2, [r3, #2]	@ movhi
  49:Processes.c   ****         PutStr(msg);
 106              		.loc 1 49 0
 107 0018 1A88     		ldrh	r2, [r3]
 108 001a 511C     		adds	r1, r2, #1
 109 001c 1980     		strh	r1, [r3]	@ movhi
 110 001e 0649     		ldr	r1, .L12+4
 111 0020 01A8     		add	r0, sp, #4
 112 0022 FFF7FEFF 		bl	sprintf
 113              	.LVL1:
  50:Processes.c   **** //        Pin_LED_Write(~(Pin_LED_Read()));    // toggle the LED
 114              		.loc 1 50 0
 115 0026 01A8     		add	r0, sp, #4
ARM GAS  C:\Users\Dan\AppData\Local\Temp\cctBGMLt.s 			page 5


 116 0028 FFF7FEFF 		bl	USB_PutString
 117              	.LVL2:
  53:Processes.c   **** 
 118              		.loc 1 53 0
 119 002c 07B0     		add	sp, sp, #28
 120              		.cfi_def_cfa_offset 4
 121              		@ sp needed
 122 002e 5DF804FB 		ldr	pc, [sp], #4
 123              	.L11:
 124              		.cfi_def_cfa_offset 0
 125              		.cfi_restore 14
 126 0032 7047     		bx	lr
 127              	.L13:
 128              		.align	2
 129              	.L12:
 130 0034 00000000 		.word	.LANCHOR0
 131 0038 00000000 		.word	.LC0
 132              		.cfi_endproc
 133              	.LFE65:
 134              		.size	CountProcess, .-CountProcess
 135              		.section	.text.InitAlphaProcess,"ax",%progbits
 136              		.align	2
 137              		.global	InitAlphaProcess
 138              		.thumb
 139              		.thumb_func
 140              		.type	InitAlphaProcess, %function
 141              	InitAlphaProcess:
 142              	.LFB66:
  59:Processes.c   ****     A_Count = 0;
 143              		.loc 1 59 0
 144              		.cfi_startproc
 145              		@ args = 0, pretend = 0, frame = 0
 146              		@ frame_needed = 0, uses_anonymous_args = 0
 147              		@ link register save eliminated.
  60:Processes.c   ****     S_Count = 1000;
 148              		.loc 1 60 0
 149 0000 034B     		ldr	r3, .L15
 150 0002 0022     		movs	r2, #0
 151 0004 1A71     		strb	r2, [r3, #4]
  61:Processes.c   **** }
 152              		.loc 1 61 0
 153 0006 4FF47A72 		mov	r2, #1000
 154 000a DA80     		strh	r2, [r3, #6]	@ movhi
 155 000c 7047     		bx	lr
 156              	.L16:
 157 000e 00BF     		.align	2
 158              	.L15:
 159 0010 00000000 		.word	.LANCHOR0
 160              		.cfi_endproc
 161              	.LFE66:
 162              		.size	InitAlphaProcess, .-InitAlphaProcess
 163              		.section	.text.AlphaProcess,"ax",%progbits
 164              		.align	2
 165              		.global	AlphaProcess
 166              		.thumb
 167              		.thumb_func
 168              		.type	AlphaProcess, %function
ARM GAS  C:\Users\Dan\AppData\Local\Temp\cctBGMLt.s 			page 6


 169              	AlphaProcess:
 170              	.LFB67:
  65:Processes.c   **** 
 171              		.loc 1 65 0
 172              		.cfi_startproc
 173              		@ args = 0, pretend = 0, frame = 24
 174              		@ frame_needed = 0, uses_anonymous_args = 0
  68:Processes.c   ****     {
 175              		.loc 1 68 0
 176 0000 0F4A     		ldr	r2, .L21
 177 0002 D388     		ldrh	r3, [r2, #6]
 178 0004 013B     		subs	r3, r3, #1
 179 0006 9BB2     		uxth	r3, r3
 180 0008 D380     		strh	r3, [r2, #6]	@ movhi
 181 000a BBB9     		cbnz	r3, .L20
  65:Processes.c   **** 
 182              		.loc 1 65 0
 183 000c 10B5     		push	{r4, lr}
 184              		.cfi_def_cfa_offset 8
 185              		.cfi_offset 4, -8
 186              		.cfi_offset 14, -4
 187 000e 86B0     		sub	sp, sp, #24
 188              		.cfi_def_cfa_offset 32
  70:Processes.c   ****         sprintf(msg, "Alpha = %c\r", (A_Count + 'A'));
 189              		.loc 1 70 0
 190 0010 1446     		mov	r4, r2
 191 0012 4FF47A73 		mov	r3, #1000
 192 0016 D380     		strh	r3, [r2, #6]	@ movhi
  71:Processes.c   ****         PutStr(msg);
 193              		.loc 1 71 0
 194 0018 1279     		ldrb	r2, [r2, #4]	@ zero_extendqisi2
 195 001a 4132     		adds	r2, r2, #65
 196 001c 0949     		ldr	r1, .L21+4
 197 001e 01A8     		add	r0, sp, #4
 198 0020 FFF7FEFF 		bl	sprintf
 199              	.LVL3:
  72:Processes.c   ****         if(A_Count++ > 56) A_Count = 0;
 200              		.loc 1 72 0
 201 0024 01A8     		add	r0, sp, #4
 202 0026 FFF7FEFF 		bl	USB_PutString
 203              	.LVL4:
  73:Processes.c   **** //        Pin_LED_Write(~(Pin_LED_Read()));    // toggle the LED
 204              		.loc 1 73 0
 205 002a 2379     		ldrb	r3, [r4, #4]	@ zero_extendqisi2
 206 002c 5A1C     		adds	r2, r3, #1
 207 002e 2271     		strb	r2, [r4, #4]
 208 0030 382B     		cmp	r3, #56
 209 0032 01D9     		bls	.L17
  73:Processes.c   **** //        Pin_LED_Write(~(Pin_LED_Read()));    // toggle the LED
 210              		.loc 1 73 0 is_stmt 0 discriminator 1
 211 0034 0022     		movs	r2, #0
 212 0036 2271     		strb	r2, [r4, #4]
 213              	.L17:
  76:Processes.c   **** 
 214              		.loc 1 76 0 is_stmt 1
 215 0038 06B0     		add	sp, sp, #24
 216              		.cfi_def_cfa_offset 8
ARM GAS  C:\Users\Dan\AppData\Local\Temp\cctBGMLt.s 			page 7


 217              		@ sp needed
 218 003a 10BD     		pop	{r4, pc}
 219              	.L20:
 220              		.cfi_def_cfa_offset 0
 221              		.cfi_restore 4
 222              		.cfi_restore 14
 223 003c 7047     		bx	lr
 224              	.L22:
 225 003e 00BF     		.align	2
 226              	.L21:
 227 0040 00000000 		.word	.LANCHOR0
 228 0044 0C000000 		.word	.LC1
 229              		.cfi_endproc
 230              	.LFE67:
 231              		.size	AlphaProcess, .-AlphaProcess
 232              		.section	.text.Init_TC_StateMachine,"ax",%progbits
 233              		.align	2
 234              		.global	Init_TC_StateMachine
 235              		.thumb
 236              		.thumb_func
 237              		.type	Init_TC_StateMachine, %function
 238              	Init_TC_StateMachine:
 239              	.LFB68:
  86:Processes.c   ****     if(Process_Running(FastProcess, TC_StateMachine))
 240              		.loc 1 86 0
 241              		.cfi_startproc
 242              		@ args = 0, pretend = 0, frame = 0
 243              		@ frame_needed = 0, uses_anonymous_args = 0
 244 0000 08B5     		push	{r3, lr}
 245              		.cfi_def_cfa_offset 8
 246              		.cfi_offset 3, -8
 247              		.cfi_offset 14, -4
  87:Processes.c   ****     {
 248              		.loc 1 87 0
 249 0002 0A49     		ldr	r1, .L27
 250 0004 0A48     		ldr	r0, .L27+4
 251 0006 FFF7FEFF 		bl	Process_Running
 252              	.LVL5:
 253 000a 18B1     		cbz	r0, .L24
  89:Processes.c   ****     } else {
 254              		.loc 1 89 0
 255 000c 0948     		ldr	r0, .L27+8
 256 000e FFF7FEFF 		bl	USB_PutString
 257              	.LVL6:
 258 0012 08BD     		pop	{r3, pc}
 259              	.L24:
  93:Processes.c   ****         PutStr("TC_State Machine Started");
 260              		.loc 1 93 0
 261 0014 0549     		ldr	r1, .L27
 262 0016 0648     		ldr	r0, .L27+4
 263 0018 FFF7FEFF 		bl	Add_Process
 264              	.LVL7:
  94:Processes.c   ****         TC_SM = &TC_Fault;
 265              		.loc 1 94 0
 266 001c 0648     		ldr	r0, .L27+12
 267 001e FFF7FEFF 		bl	USB_PutString
 268              	.LVL8:
ARM GAS  C:\Users\Dan\AppData\Local\Temp\cctBGMLt.s 			page 8


  95:Processes.c   ****     } 
 269              		.loc 1 95 0
 270 0022 064A     		ldr	r2, .L27+16
 271 0024 064B     		ldr	r3, .L27+20
 272 0026 1A60     		str	r2, [r3]
 273 0028 08BD     		pop	{r3, pc}
 274              	.L28:
 275 002a 00BF     		.align	2
 276              	.L27:
 277 002c 00000000 		.word	TC_StateMachine
 278 0030 00000000 		.word	FastProcess
 279 0034 18000000 		.word	.LC2
 280 0038 3C000000 		.word	.LC3
 281 003c 00000000 		.word	TC_Fault
 282 0040 00000000 		.word	TC_SM
 283              		.cfi_endproc
 284              	.LFE68:
 285              		.size	Init_TC_StateMachine, .-Init_TC_StateMachine
 286              		.section	.text.TC_Clamp_AirBlast,"ax",%progbits
 287              		.align	2
 288              		.global	TC_Clamp_AirBlast
 289              		.thumb
 290              		.thumb_func
 291              		.type	TC_Clamp_AirBlast, %function
 292              	TC_Clamp_AirBlast:
 293              	.LFB78:
 105:Processes.c   **** }
 106:Processes.c   **** 
 107:Processes.c   **** // state machine states
 108:Processes.c   **** void TC_IDLE(void)
 109:Processes.c   **** {
 110:Processes.c   ****     TC_STATE = TC_STATE_IDLE;
 111:Processes.c   ****     // waiting for a command to start a motion
 112:Processes.c   ****     // check for an error condition.
 113:Processes.c   ****     if(In_Fault() == 1)
 114:Processes.c   ****     {
 115:Processes.c   ****         TC_SM = &TC_Fault;
 116:Processes.c   ****     }
 117:Processes.c   **** }
 118:Processes.c   **** 
 119:Processes.c   **** void TC_Arm_Move_In_Start(void)
 120:Processes.c   **** {
 121:Processes.c   ****     TC_STATE = TC_STATE_ARM_IN_START;
 122:Processes.c   ****     if((SENSE_PORT & Pin_Tool_Arm_Out_MASK) != 0)  // check for tool to get off the Arm Out sensor
 123:Processes.c   ****     {
 124:Processes.c   ****         TC_SM = &TC_Arm_Move_In;    // change the state to Arm Move In
 125:Processes.c   ****         TC_Set_Delay(ARM_MOVE_TIME);
 126:Processes.c   ****     }
 127:Processes.c   ****     RunningTooLong();
 128:Processes.c   **** }
 129:Processes.c   **** 
 130:Processes.c   **** void TC_Arm_Move_In(void)
 131:Processes.c   **** {
 132:Processes.c   ****     TC_STATE = TC_STATE_ARM_IN;
 133:Processes.c   ****     RunningTooLong();
 134:Processes.c   ****     if((SENSE_PORT & Pin_Tool_Arm_In_MASK) == 0)   //  detect Arm In (retracted
 135:Processes.c   ****     {
ARM GAS  C:\Users\Dan\AppData\Local\Temp\cctBGMLt.s 			page 9


 136:Processes.c   ****         TC_Set_Delay(MOTOR_STOP_DELAY);  // change the state to motor brake - not really a brake, j
 137:Processes.c   ****         TC_SM = TC_Motor_Brake;
 138:Processes.c   ****     }
 139:Processes.c   **** }
 140:Processes.c   **** 
 141:Processes.c   **** void TC_Arm_Move_Out_Start(void)
 142:Processes.c   **** {
 143:Processes.c   ****     TC_STATE = TC_STATE_ARM_OUT_START;
 144:Processes.c   ****     if((SENSE_PORT & Pin_Tool_Arm_In_MASK) == 0)  // check for tool to get off the tool back sensor
 145:Processes.c   ****     {
 146:Processes.c   ****         TC_SM = &TC_Arm_Move_Out;    // change the state to Arm Move In
 147:Processes.c   ****         TC_Set_Delay(ARM_MOVE_TIME);
 148:Processes.c   ****     }
 149:Processes.c   ****     RunningTooLong();   // took too long to get off the sensor
 150:Processes.c   **** }
 151:Processes.c   **** 
 152:Processes.c   **** void TC_Arm_Move_Out(void)
 153:Processes.c   **** {
 154:Processes.c   ****     TC_STATE = TC_STATE_ARM_OUT;
 155:Processes.c   ****     RunningTooLong();    
 156:Processes.c   ****     if((SENSE_PORT & Pin_Tool_Arm_Out_MASK) == 0)   //  detect Arm Back
 157:Processes.c   ****     {
 158:Processes.c   ****         TC_Set_Delay(MOTOR_STOP_DELAY);  // change the state to motor brake - not really a brake, j
 159:Processes.c   ****         TC_SM = TC_Motor_Brake;
 160:Processes.c   ****     }
 161:Processes.c   **** }
 162:Processes.c   **** 
 163:Processes.c   **** void TC_Motor_Brake(void)
 164:Processes.c   **** {
 165:Processes.c   ****     TC_STATE = TC_STATE_BRAKE;
 166:Processes.c   ****     if((MS_Time - TC_DelayStart) > TC_Delay)
 167:Processes.c   ****     {
 168:Processes.c   ****         Motors_Off();   // after a short delay then all motors off, change state to Idle
 169:Processes.c   ****         TC_SM = &TC_IDLE;
 170:Processes.c   ****     }
 171:Processes.c   **** }
 172:Processes.c   **** 
 173:Processes.c   **** void TC_Carousel_Moving_Start(void)
 174:Processes.c   **** {
 175:Processes.c   ****     TC_STATE = TC_STATE_CAROUSEL_START;
 176:Processes.c   ****      // look for both sensor to be high, ie. off of he currrent tool position
 177:Processes.c   ****     if((SENSE_PORT & Pin_Tool_Count_MASK) != 0)   // stay in this state until off the sensor or tim
 178:Processes.c   ****     {
 179:Processes.c   ****         TC_SM = &TC_Carousel_Moving;    // change status to carousel moving
 180:Processes.c   ****         TC_Set_Delay(CAROUSEL_MOVING_DELAY);
 181:Processes.c   ****         // PutStr("P_Car 1\n");
 182:Processes.c   ****     }
 183:Processes.c   ****     RunningTooLong();   // too long on sensor? then timeout ie. next state is Fault...
 184:Processes.c   **** }
 185:Processes.c   **** 
 186:Processes.c   **** void TC_Carousel_Moving(void)
 187:Processes.c   **** {
 188:Processes.c   ****     TC_STATE = TC_STATE_CAROUSEL;
 189:Processes.c   ****     RunningTooLong();   // if timeout then next state is Fault.
 190:Processes.c   ****     
 191:Processes.c   ****     if((SENSE_PORT & Pin_Tool_Count_MASK) == 0) // look for next sensor detect 
 192:Processes.c   ****     {
ARM GAS  C:\Users\Dan\AppData\Local\Temp\cctBGMLt.s 			page 10


 193:Processes.c   ****         // PutStr("P_Car 2\n");
 194:Processes.c   ****         Current_Tool = Current_Tool + Carousel_Dir;     // Increment/decrement Current Tool positio
 195:Processes.c   ****         if(Current_Tool > NUMBER_OF_TOOLS)              // There has to be some modulus stuff here 
 196:Processes.c   ****         {
 197:Processes.c   ****             Current_Tool = 1;
 198:Processes.c   ****         }
 199:Processes.c   ****         else if(Current_Tool < 1)
 200:Processes.c   ****         {
 201:Processes.c   ****             Current_Tool = NUMBER_OF_TOOLS;
 202:Processes.c   ****         }
 203:Processes.c   ****         
 204:Processes.c   ****         if((Current_Tool == 1) && ((SENSE_PORT & Pin_Tool_1_MASK) != 0))    // if the current tool 
 205:Processes.c   ****         {   
 206:Processes.c   ****             // PutStr("Not on tool 1\n");
 207:Processes.c   ****             TC_SM = &TC_Fault;
 208:Processes.c   ****             Motors_Off();
 209:Processes.c   ****         }
 210:Processes.c   ****         if(Current_Tool == Target_Tool)    // if sensor detected position is destination, then done
 211:Processes.c   ****         {
 212:Processes.c   ****             // stop the tool
 213:Processes.c   ****             TC_Set_Delay(CAROUSEL_STOP_DELAY);
 214:Processes.c   ****             TC_SM = &TC_Motor_Brake;
 215:Processes.c   ****         }
 216:Processes.c   ****         else
 217:Processes.c   ****         {
 218:Processes.c   ****             TC_Set_Delay(CAROUSEL_START_DELAY); // otherwise continue - back to moving start until 
 219:Processes.c   ****             TC_SM = &TC_Carousel_Moving_Start;
 220:Processes.c   ****             // PutStr("P_Car Restart\n");
 221:Processes.c   ****         }
 222:Processes.c   ****     }  
 223:Processes.c   **** }
 224:Processes.c   **** 
 225:Processes.c   **** void TC_Clamp_AirBlast(void)
 226:Processes.c   **** {
 294              		.loc 1 226 0
 295              		.cfi_startproc
 296              		@ args = 0, pretend = 0, frame = 0
 297              		@ frame_needed = 0, uses_anonymous_args = 0
 298              		@ link register save eliminated.
 227:Processes.c   ****     TC_STATE = TC_STATE_AIR_BLAST;
 299              		.loc 1 227 0
 300 0000 0922     		movs	r2, #9
 301 0002 094B     		ldr	r3, .L31
 302 0004 1A70     		strb	r2, [r3]
 228:Processes.c   ****     // clamp is released - Air Blast for XX ms
 229:Processes.c   ****     if((MS_Time - TC_DelayStart) > TC_Delay)
 303              		.loc 1 229 0
 304 0006 094B     		ldr	r3, .L31+4
 305 0008 1B68     		ldr	r3, [r3]
 306 000a 094A     		ldr	r2, .L31+8
 307 000c 9168     		ldr	r1, [r2, #8]
 308 000e 5B1A     		subs	r3, r3, r1
 309 0010 D268     		ldr	r2, [r2, #12]
 310 0012 9342     		cmp	r3, r2
 311 0014 07D9     		bls	.L29
 230:Processes.c   ****     {
 231:Processes.c   ****         // after timeout shut off air and move to IDLE
ARM GAS  C:\Users\Dan\AppData\Local\Temp\cctBGMLt.s 			page 11


 232:Processes.c   ****         TRIAC_PORT &= ~(Pin_Tool_Air_MASK);
 312              		.loc 1 232 0
 313 0016 074A     		ldr	r2, .L31+12
 314 0018 1378     		ldrb	r3, [r2]	@ zero_extendqisi2
 315 001a 03F0FD03 		and	r3, r3, #253
 316 001e 1370     		strb	r3, [r2]
 233:Processes.c   ****         TC_SM = &TC_IDLE;
 317              		.loc 1 233 0
 318 0020 054A     		ldr	r2, .L31+16
 319 0022 064B     		ldr	r3, .L31+20
 320 0024 1A60     		str	r2, [r3]
 321              	.L29:
 322 0026 7047     		bx	lr
 323              	.L32:
 324              		.align	2
 325              	.L31:
 326 0028 00000000 		.word	TC_STATE
 327 002c 00000000 		.word	MS_Time
 328 0030 00000000 		.word	.LANCHOR0
 329 0034 30510040 		.word	1073762608
 330 0038 00000000 		.word	TC_IDLE
 331 003c 00000000 		.word	TC_SM
 332              		.cfi_endproc
 333              	.LFE78:
 334              		.size	TC_Clamp_AirBlast, .-TC_Clamp_AirBlast
 335              		.section	.text.TC_Set_Delay,"ax",%progbits
 336              		.align	2
 337              		.global	TC_Set_Delay
 338              		.thumb
 339              		.thumb_func
 340              		.type	TC_Set_Delay, %function
 341              	TC_Set_Delay:
 342              	.LFB81:
 234:Processes.c   ****     }
 235:Processes.c   **** }
 236:Processes.c   **** 
 237:Processes.c   **** void TC_Fault(void)
 238:Processes.c   **** {
 239:Processes.c   ****     TC_STATE = TC_STATE_FAULT;
 240:Processes.c   ****     // Fault!
 241:Processes.c   ****     // There are two ways to get out of the fault state.
 242:Processes.c   ****     // the first is via a HOME command 
 243:Processes.c   ****     // the second is for the tool changer to be in the HOME position with no faults.
 244:Processes.c   ****     if((At_Home() == 1) && (In_Fault() == 0))
 245:Processes.c   ****     {
 246:Processes.c   ****         Set_Current_Tool(1);    //this is needed for coming out of fault on startup 
 247:Processes.c   ****         TC_SM = &TC_IDLE;   // change state back to idle
 248:Processes.c   ****         Motors_Off();       // make sure the motors are off... 
 249:Processes.c   ****     }
 250:Processes.c   **** }
 251:Processes.c   **** 
 252:Processes.c   **** void TC_Test_Delay(void)
 253:Processes.c   **** {
 254:Processes.c   ****     TC_STATE = TC_STATE_TEST;
 255:Processes.c   ****     
 256:Processes.c   ****     if((MS_Time - TC_DelayStart) > TC_Delay)
 257:Processes.c   ****     {
ARM GAS  C:\Users\Dan\AppData\Local\Temp\cctBGMLt.s 			page 12


 258:Processes.c   ****         // when done move state back to IDLE
 259:Processes.c   ****         Motors_Off();   // turn everything that can move off first... 
 260:Processes.c   ****         TC_SM = &TC_IDLE;    
 261:Processes.c   ****         PutStr("Delay Done\n");
 262:Processes.c   ****     }
 263:Processes.c   **** }
 264:Processes.c   **** 
 265:Processes.c   **** void TC_Set_Delay(uint32 delay)
 266:Processes.c   **** {
 343              		.loc 1 266 0
 344              		.cfi_startproc
 345              		@ args = 0, pretend = 0, frame = 0
 346              		@ frame_needed = 0, uses_anonymous_args = 0
 347              		@ link register save eliminated.
 348              	.LVL9:
 267:Processes.c   ****     TC_Delay = delay;
 349              		.loc 1 267 0
 350 0000 024B     		ldr	r3, .L34
 351 0002 D860     		str	r0, [r3, #12]
 268:Processes.c   ****     TC_DelayStart = MS_Time;
 352              		.loc 1 268 0
 353 0004 024A     		ldr	r2, .L34+4
 354 0006 1268     		ldr	r2, [r2]
 355 0008 9A60     		str	r2, [r3, #8]
 356 000a 7047     		bx	lr
 357              	.L35:
 358              		.align	2
 359              	.L34:
 360 000c 00000000 		.word	.LANCHOR0
 361 0010 00000000 		.word	MS_Time
 362              		.cfi_endproc
 363              	.LFE81:
 364              		.size	TC_Set_Delay, .-TC_Set_Delay
 365              		.section	.text.Motors_Off,"ax",%progbits
 366              		.align	2
 367              		.global	Motors_Off
 368              		.thumb
 369              		.thumb_func
 370              		.type	Motors_Off, %function
 371              	Motors_Off:
 372              	.LFB82:
 269:Processes.c   **** }
 270:Processes.c   **** 
 271:Processes.c   **** // Turn all the motors off - precursor to switching back to Idle or fault
 272:Processes.c   **** void Motors_Off(void)
 273:Processes.c   **** {
 373              		.loc 1 273 0
 374              		.cfi_startproc
 375              		@ args = 0, pretend = 0, frame = 0
 376              		@ frame_needed = 0, uses_anonymous_args = 0
 377              		@ link register save eliminated.
 274:Processes.c   ****     // since all motors are on the same port... 
 275:Processes.c   ****     TRIAC_PORT &= ~(Pin_Tool_Arm_FWD_MASK | Pin_Tool_Arm_REV_MASK | Pin_Car_FWD_MASK | Pin_Car_REV_
 378              		.loc 1 275 0
 379 0000 024A     		ldr	r2, .L37
 380 0002 1378     		ldrb	r3, [r2]	@ zero_extendqisi2
 381 0004 03F00703 		and	r3, r3, #7
ARM GAS  C:\Users\Dan\AppData\Local\Temp\cctBGMLt.s 			page 13


 382 0008 1370     		strb	r3, [r2]
 383 000a 7047     		bx	lr
 384              	.L38:
 385              		.align	2
 386              	.L37:
 387 000c 30510040 		.word	1073762608
 388              		.cfi_endproc
 389              	.LFE82:
 390              		.size	Motors_Off, .-Motors_Off
 391              		.section	.text.TC_Motor_Brake,"ax",%progbits
 392              		.align	2
 393              		.global	TC_Motor_Brake
 394              		.thumb
 395              		.thumb_func
 396              		.type	TC_Motor_Brake, %function
 397              	TC_Motor_Brake:
 398              	.LFB75:
 164:Processes.c   ****     TC_STATE = TC_STATE_BRAKE;
 399              		.loc 1 164 0
 400              		.cfi_startproc
 401              		@ args = 0, pretend = 0, frame = 0
 402              		@ frame_needed = 0, uses_anonymous_args = 0
 403 0000 08B5     		push	{r3, lr}
 404              		.cfi_def_cfa_offset 8
 405              		.cfi_offset 3, -8
 406              		.cfi_offset 14, -4
 165:Processes.c   ****     if((MS_Time - TC_DelayStart) > TC_Delay)
 407              		.loc 1 165 0
 408 0002 0622     		movs	r2, #6
 409 0004 074B     		ldr	r3, .L42
 410 0006 1A70     		strb	r2, [r3]
 166:Processes.c   ****     {
 411              		.loc 1 166 0
 412 0008 074B     		ldr	r3, .L42+4
 413 000a 1B68     		ldr	r3, [r3]
 414 000c 074A     		ldr	r2, .L42+8
 415 000e 9168     		ldr	r1, [r2, #8]
 416 0010 5B1A     		subs	r3, r3, r1
 417 0012 D268     		ldr	r2, [r2, #12]
 418 0014 9342     		cmp	r3, r2
 419 0016 04D9     		bls	.L39
 168:Processes.c   ****         TC_SM = &TC_IDLE;
 420              		.loc 1 168 0
 421 0018 FFF7FEFF 		bl	Motors_Off
 422              	.LVL10:
 169:Processes.c   ****     }
 423              		.loc 1 169 0
 424 001c 044A     		ldr	r2, .L42+12
 425 001e 054B     		ldr	r3, .L42+16
 426 0020 1A60     		str	r2, [r3]
 427              	.L39:
 428 0022 08BD     		pop	{r3, pc}
 429              	.L43:
 430              		.align	2
 431              	.L42:
 432 0024 00000000 		.word	TC_STATE
 433 0028 00000000 		.word	MS_Time
ARM GAS  C:\Users\Dan\AppData\Local\Temp\cctBGMLt.s 			page 14


 434 002c 00000000 		.word	.LANCHOR0
 435 0030 00000000 		.word	TC_IDLE
 436 0034 00000000 		.word	TC_SM
 437              		.cfi_endproc
 438              	.LFE75:
 439              		.size	TC_Motor_Brake, .-TC_Motor_Brake
 440              		.section	.text.TC_Test_Delay,"ax",%progbits
 441              		.align	2
 442              		.global	TC_Test_Delay
 443              		.thumb
 444              		.thumb_func
 445              		.type	TC_Test_Delay, %function
 446              	TC_Test_Delay:
 447              	.LFB80:
 253:Processes.c   ****     TC_STATE = TC_STATE_TEST;
 448              		.loc 1 253 0
 449              		.cfi_startproc
 450              		@ args = 0, pretend = 0, frame = 0
 451              		@ frame_needed = 0, uses_anonymous_args = 0
 452 0000 08B5     		push	{r3, lr}
 453              		.cfi_def_cfa_offset 8
 454              		.cfi_offset 3, -8
 455              		.cfi_offset 14, -4
 254:Processes.c   ****     
 456              		.loc 1 254 0
 457 0002 0C22     		movs	r2, #12
 458 0004 094B     		ldr	r3, .L47
 459 0006 1A70     		strb	r2, [r3]
 256:Processes.c   ****     {
 460              		.loc 1 256 0
 461 0008 094B     		ldr	r3, .L47+4
 462 000a 1B68     		ldr	r3, [r3]
 463 000c 094A     		ldr	r2, .L47+8
 464 000e 9168     		ldr	r1, [r2, #8]
 465 0010 5B1A     		subs	r3, r3, r1
 466 0012 D268     		ldr	r2, [r2, #12]
 467 0014 9342     		cmp	r3, r2
 468 0016 07D9     		bls	.L44
 259:Processes.c   ****         TC_SM = &TC_IDLE;    
 469              		.loc 1 259 0
 470 0018 FFF7FEFF 		bl	Motors_Off
 471              	.LVL11:
 260:Processes.c   ****         PutStr("Delay Done\n");
 472              		.loc 1 260 0
 473 001c 064A     		ldr	r2, .L47+12
 474 001e 074B     		ldr	r3, .L47+16
 475 0020 1A60     		str	r2, [r3]
 261:Processes.c   ****     }
 476              		.loc 1 261 0
 477 0022 0748     		ldr	r0, .L47+20
 478 0024 FFF7FEFF 		bl	USB_PutString
 479              	.LVL12:
 480              	.L44:
 481 0028 08BD     		pop	{r3, pc}
 482              	.L48:
 483 002a 00BF     		.align	2
 484              	.L47:
ARM GAS  C:\Users\Dan\AppData\Local\Temp\cctBGMLt.s 			page 15


 485 002c 00000000 		.word	TC_STATE
 486 0030 00000000 		.word	MS_Time
 487 0034 00000000 		.word	.LANCHOR0
 488 0038 00000000 		.word	TC_IDLE
 489 003c 00000000 		.word	TC_SM
 490 0040 58000000 		.word	.LC4
 491              		.cfi_endproc
 492              	.LFE80:
 493              		.size	TC_Test_Delay, .-TC_Test_Delay
 494              		.section	.text.TC_Home_Delay,"ax",%progbits
 495              		.align	2
 496              		.global	TC_Home_Delay
 497              		.thumb
 498              		.thumb_func
 499              		.type	TC_Home_Delay, %function
 500              	TC_Home_Delay:
 501              	.LFB91:
 276:Processes.c   **** }
 277:Processes.c   **** 
 278:Processes.c   **** uint8 Get_Current_Tool(void)
 279:Processes.c   **** {
 280:Processes.c   ****     return Current_Tool;
 281:Processes.c   **** }
 282:Processes.c   **** 
 283:Processes.c   **** void Set_Current_Tool(uint8 tool)
 284:Processes.c   **** {
 285:Processes.c   ****     Current_Tool = tool;
 286:Processes.c   **** }
 287:Processes.c   **** 
 288:Processes.c   **** void Set_Target_Tool(uint8 targ, int8 dir)
 289:Processes.c   **** {
 290:Processes.c   ****     Target_Tool = targ;
 291:Processes.c   ****     Carousel_Dir = dir;
 292:Processes.c   **** }
 293:Processes.c   **** 
 294:Processes.c   **** void TC_Status(void)
 295:Processes.c   **** {
 296:Processes.c   ****     switch(TC_STATE)
 297:Processes.c   ****     {
 298:Processes.c   ****         case TC_STATE_IDLE  : 
 299:Processes.c   ****             PutStr("TC IDLE");
 300:Processes.c   ****             break;
 301:Processes.c   ****         case TC_STATE_ARM_IN_START :
 302:Processes.c   ****         case TC_STATE_ARM_IN :
 303:Processes.c   ****             PutStr("TC ARM REV");
 304:Processes.c   ****             break;
 305:Processes.c   ****         case TC_STATE_ARM_OUT_START :
 306:Processes.c   ****         case TC_STATE_ARM_OUT :
 307:Processes.c   ****             PutStr("TC ARM FWD");
 308:Processes.c   ****             break;
 309:Processes.c   ****         case TC_STATE_BRAKE :
 310:Processes.c   ****             PutStr("TC BRAKE");
 311:Processes.c   ****             break;
 312:Processes.c   ****         case TC_STATE_CAROUSEL_START :
 313:Processes.c   ****         case TC_STATE_CAROUSEL       :
 314:Processes.c   ****             PutStr("TC CAROUSEL");
 315:Processes.c   ****             break;
ARM GAS  C:\Users\Dan\AppData\Local\Temp\cctBGMLt.s 			page 16


 316:Processes.c   ****         case TC_STATE_AIR_BLAST :
 317:Processes.c   ****             PutStr("TC AIR BLAST");
 318:Processes.c   ****             break;
 319:Processes.c   ****         case TC_STATE_CLAMP :
 320:Processes.c   ****             PutStr("TC CLAMP");
 321:Processes.c   ****             break;
 322:Processes.c   ****         case TC_STATE_FAULT :
 323:Processes.c   ****             PutStr("TC FAULT");
 324:Processes.c   ****             break;
 325:Processes.c   ****         case TC_STATE_TEST :
 326:Processes.c   ****             PutStr("TC TEST");
 327:Processes.c   ****             break;
 328:Processes.c   ****     }
 329:Processes.c   **** }
 330:Processes.c   **** // is the tool changer at the home position? 1 = yes, 0 = no
 331:Processes.c   **** int At_Home(void)
 332:Processes.c   **** {
 333:Processes.c   ****     if((SENSE_PORT & (Pin_Tool_1_MASK | Pin_Tool_Count_MASK | Pin_Tool_Arm_In_MASK)) == 0)    // al
 334:Processes.c   ****     {
 335:Processes.c   ****         return 1;   // at home
 336:Processes.c   ****     } 
 337:Processes.c   ****     else 
 338:Processes.c   ****     {
 339:Processes.c   ****         return 0;   // not home
 340:Processes.c   ****     }
 341:Processes.c   **** }
 342:Processes.c   **** 
 343:Processes.c   **** // is there an existing fault condition? 1 = yes, 0 = no
 344:Processes.c   **** int In_Fault(void)
 345:Processes.c   **** {
 346:Processes.c   ****     uint8 fault = (FAULT_PORT & (Pin_V_Mon2_MASK | Pin_AC_Mon_MASK | Pin_ESTOP_MASK));
 347:Processes.c   ****     if(fault == (Pin_V_Mon2_MASK | Pin_ESTOP_MASK))
 348:Processes.c   ****     {
 349:Processes.c   ****         return 0;   // no fault
 350:Processes.c   ****     }
 351:Processes.c   ****     else
 352:Processes.c   ****     {
 353:Processes.c   ****         return 1;   // in fault
 354:Processes.c   ****     }
 355:Processes.c   **** }
 356:Processes.c   **** 
 357:Processes.c   **** void TC_Home_Arm(void)
 358:Processes.c   **** {
 359:Processes.c   ****     TC_STATE = TC_STATE_HOME_ARM;
 360:Processes.c   ****     RunningTooLong();
 361:Processes.c   ****     if((SENSE_PORT & Pin_Tool_Arm_In_MASK) == 0)   //  detect Arm Back
 362:Processes.c   ****     {
 363:Processes.c   ****         TC_Set_Delay(MOTOR_STOP_DELAY);  // change the state to motor brake - not really a brake, j
 364:Processes.c   ****         TC_SM = TC_Home_Delay;
 365:Processes.c   ****     }
 366:Processes.c   **** }
 367:Processes.c   **** 
 368:Processes.c   **** void TC_Home_Carousel(void)
 369:Processes.c   **** {
 370:Processes.c   ****     RunningTooLong();
 371:Processes.c   ****     // move until the carousel reaches tool 1
 372:Processes.c   ****     if((SENSE_PORT & (Pin_Tool_Count_MASK | Pin_Tool_1_MASK)) == 0) // is the carousel at tool 1?
ARM GAS  C:\Users\Dan\AppData\Local\Temp\cctBGMLt.s 			page 17


 373:Processes.c   ****     {
 374:Processes.c   ****         TC_Set_Delay(CAROUSEL_STOP_DELAY);
 375:Processes.c   ****         TC_SM = &TC_Motor_Brake;
 376:Processes.c   ****         Current_Tool = 1;   // current tool reset to 1! 
 377:Processes.c   ****     }
 378:Processes.c   **** }
 379:Processes.c   **** 
 380:Processes.c   **** void TC_Home_Delay(void)
 381:Processes.c   **** {
 502              		.loc 1 381 0
 503              		.cfi_startproc
 504              		@ args = 0, pretend = 0, frame = 0
 505              		@ frame_needed = 0, uses_anonymous_args = 0
 506 0000 08B5     		push	{r3, lr}
 507              		.cfi_def_cfa_offset 8
 508              		.cfi_offset 3, -8
 509              		.cfi_offset 14, -4
 382:Processes.c   ****     TC_STATE = TC_STATE_BRAKE;  // yes this really isn't the correct state...
 510              		.loc 1 382 0
 511 0002 0622     		movs	r2, #6
 512 0004 144B     		ldr	r3, .L53
 513 0006 1A70     		strb	r2, [r3]
 383:Processes.c   ****     if((MS_Time - TC_DelayStart) > TC_Delay)
 514              		.loc 1 383 0
 515 0008 144B     		ldr	r3, .L53+4
 516 000a 1B68     		ldr	r3, [r3]
 517 000c 144A     		ldr	r2, .L53+8
 518 000e 9168     		ldr	r1, [r2, #8]
 519 0010 5B1A     		subs	r3, r3, r1
 520 0012 D268     		ldr	r2, [r2, #12]
 521 0014 9342     		cmp	r3, r2
 522 0016 1DD9     		bls	.L49
 384:Processes.c   ****     {
 385:Processes.c   ****         Motors_Off();   // after a short delay then all motors off, change state to TC_Home_Carouse
 523              		.loc 1 385 0
 524 0018 FFF7FEFF 		bl	Motors_Off
 525              	.LVL13:
 386:Processes.c   ****         
 387:Processes.c   ****         if((SENSE_PORT & (Pin_Tool_Count_MASK | Pin_Tool_1_MASK)) == 0) // check for already at Too
 526              		.loc 1 387 0
 527 001c 114B     		ldr	r3, .L53+12
 528 001e 1B78     		ldrb	r3, [r3]	@ zero_extendqisi2
 529 0020 13F0050F 		tst	r3, #5
 530 0024 06D1     		bne	.L51
 388:Processes.c   ****         {
 389:Processes.c   ****             TC_SM = &TC_IDLE;
 531              		.loc 1 389 0
 532 0026 104A     		ldr	r2, .L53+16
 533 0028 104B     		ldr	r3, .L53+20
 534 002a 1A60     		str	r2, [r3]
 390:Processes.c   ****             Current_Tool = 1;
 535              		.loc 1 390 0
 536 002c 0122     		movs	r2, #1
 537 002e 104B     		ldr	r3, .L53+24
 538 0030 1A70     		strb	r2, [r3]
 539 0032 08BD     		pop	{r3, pc}
 540              	.L51:
ARM GAS  C:\Users\Dan\AppData\Local\Temp\cctBGMLt.s 			page 18


 391:Processes.c   ****         }
 392:Processes.c   ****         else
 393:Processes.c   ****         {
 394:Processes.c   ****             // start the carousel move
 395:Processes.c   ****             TC_Set_Delay(CAROUSEL_HOME_DELAY);
 541              		.loc 1 395 0
 542 0034 42F21070 		movw	r0, #10000
 543 0038 FFF7FEFF 		bl	TC_Set_Delay
 544              	.LVL14:
 396:Processes.c   ****             TC_SM = &TC_Home_Carousel; 
 545              		.loc 1 396 0
 546 003c 0D4A     		ldr	r2, .L53+28
 547 003e 0B4B     		ldr	r3, .L53+20
 548 0040 1A60     		str	r2, [r3]
 397:Processes.c   ****             TRIAC_PORT &= ~(Pin_Car_REV_MASK);  // make sure that REV is off!
 549              		.loc 1 397 0
 550 0042 0D4B     		ldr	r3, .L53+32
 551 0044 1A78     		ldrb	r2, [r3]	@ zero_extendqisi2
 552 0046 02F0F702 		and	r2, r2, #247
 553 004a 1A70     		strb	r2, [r3]
 398:Processes.c   ****             TRIAC_PORT |= Pin_Car_FWD_MASK; // start moving the carousel forward
 554              		.loc 1 398 0
 555 004c 1A78     		ldrb	r2, [r3]	@ zero_extendqisi2
 556 004e 42F01002 		orr	r2, r2, #16
 557 0052 1A70     		strb	r2, [r3]
 558              	.L49:
 559 0054 08BD     		pop	{r3, pc}
 560              	.L54:
 561 0056 00BF     		.align	2
 562              	.L53:
 563 0058 00000000 		.word	TC_STATE
 564 005c 00000000 		.word	MS_Time
 565 0060 00000000 		.word	.LANCHOR0
 566 0064 01510040 		.word	1073762561
 567 0068 00000000 		.word	TC_IDLE
 568 006c 00000000 		.word	TC_SM
 569 0070 00000000 		.word	Current_Tool
 570 0074 00000000 		.word	TC_Home_Carousel
 571 0078 30510040 		.word	1073762608
 572              		.cfi_endproc
 573              	.LFE91:
 574              		.size	TC_Home_Delay, .-TC_Home_Delay
 575              		.section	.text.Get_Current_Tool,"ax",%progbits
 576              		.align	2
 577              		.global	Get_Current_Tool
 578              		.thumb
 579              		.thumb_func
 580              		.type	Get_Current_Tool, %function
 581              	Get_Current_Tool:
 582              	.LFB83:
 279:Processes.c   ****     return Current_Tool;
 583              		.loc 1 279 0
 584              		.cfi_startproc
 585              		@ args = 0, pretend = 0, frame = 0
 586              		@ frame_needed = 0, uses_anonymous_args = 0
 587              		@ link register save eliminated.
 281:Processes.c   **** 
ARM GAS  C:\Users\Dan\AppData\Local\Temp\cctBGMLt.s 			page 19


 588              		.loc 1 281 0
 589 0000 014B     		ldr	r3, .L56
 590 0002 1878     		ldrb	r0, [r3]	@ zero_extendqisi2
 591 0004 7047     		bx	lr
 592              	.L57:
 593 0006 00BF     		.align	2
 594              	.L56:
 595 0008 00000000 		.word	Current_Tool
 596              		.cfi_endproc
 597              	.LFE83:
 598              		.size	Get_Current_Tool, .-Get_Current_Tool
 599              		.section	.text.Set_Current_Tool,"ax",%progbits
 600              		.align	2
 601              		.global	Set_Current_Tool
 602              		.thumb
 603              		.thumb_func
 604              		.type	Set_Current_Tool, %function
 605              	Set_Current_Tool:
 606              	.LFB84:
 284:Processes.c   ****     Current_Tool = tool;
 607              		.loc 1 284 0
 608              		.cfi_startproc
 609              		@ args = 0, pretend = 0, frame = 0
 610              		@ frame_needed = 0, uses_anonymous_args = 0
 611              		@ link register save eliminated.
 612              	.LVL15:
 285:Processes.c   **** }
 613              		.loc 1 285 0
 614 0000 014B     		ldr	r3, .L59
 615 0002 1870     		strb	r0, [r3]
 616 0004 7047     		bx	lr
 617              	.L60:
 618 0006 00BF     		.align	2
 619              	.L59:
 620 0008 00000000 		.word	Current_Tool
 621              		.cfi_endproc
 622              	.LFE84:
 623              		.size	Set_Current_Tool, .-Set_Current_Tool
 624              		.section	.text.Set_Target_Tool,"ax",%progbits
 625              		.align	2
 626              		.global	Set_Target_Tool
 627              		.thumb
 628              		.thumb_func
 629              		.type	Set_Target_Tool, %function
 630              	Set_Target_Tool:
 631              	.LFB85:
 289:Processes.c   ****     Target_Tool = targ;
 632              		.loc 1 289 0
 633              		.cfi_startproc
 634              		@ args = 0, pretend = 0, frame = 0
 635              		@ frame_needed = 0, uses_anonymous_args = 0
 636              		@ link register save eliminated.
 637              	.LVL16:
 290:Processes.c   ****     Carousel_Dir = dir;
 638              		.loc 1 290 0
 639 0000 024B     		ldr	r3, .L62
 640 0002 1870     		strb	r0, [r3]
ARM GAS  C:\Users\Dan\AppData\Local\Temp\cctBGMLt.s 			page 20


 291:Processes.c   **** }
 641              		.loc 1 291 0
 642 0004 024B     		ldr	r3, .L62+4
 643 0006 1970     		strb	r1, [r3]
 644 0008 7047     		bx	lr
 645              	.L63:
 646 000a 00BF     		.align	2
 647              	.L62:
 648 000c 00000000 		.word	Target_Tool
 649 0010 00000000 		.word	Carousel_Dir
 650              		.cfi_endproc
 651              	.LFE85:
 652              		.size	Set_Target_Tool, .-Set_Target_Tool
 653              		.section	.text.TC_Status,"ax",%progbits
 654              		.align	2
 655              		.global	TC_Status
 656              		.thumb
 657              		.thumb_func
 658              		.type	TC_Status, %function
 659              	TC_Status:
 660              	.LFB86:
 295:Processes.c   ****     switch(TC_STATE)
 661              		.loc 1 295 0
 662              		.cfi_startproc
 663              		@ args = 0, pretend = 0, frame = 0
 664              		@ frame_needed = 0, uses_anonymous_args = 0
 665 0000 08B5     		push	{r3, lr}
 666              		.cfi_def_cfa_offset 8
 667              		.cfi_offset 3, -8
 668              		.cfi_offset 14, -4
 296:Processes.c   ****     {
 669              		.loc 1 296 0
 670 0002 184B     		ldr	r3, .L77
 671 0004 1B78     		ldrb	r3, [r3]	@ zero_extendqisi2
 672 0006 013B     		subs	r3, r3, #1
 673 0008 0B2B     		cmp	r3, #11
 674 000a 2AD8     		bhi	.L64
 675 000c DFE803F0 		tbb	[pc, r3]
 676              	.L67:
 677 0010 06       		.byte	(.L66-.L67)/2
 678 0011 0A       		.byte	(.L68-.L67)/2
 679 0012 0A       		.byte	(.L68-.L67)/2
 680 0013 0E       		.byte	(.L69-.L67)/2
 681 0014 0E       		.byte	(.L69-.L67)/2
 682 0015 12       		.byte	(.L70-.L67)/2
 683 0016 16       		.byte	(.L71-.L67)/2
 684 0017 16       		.byte	(.L71-.L67)/2
 685 0018 1A       		.byte	(.L72-.L67)/2
 686 0019 1E       		.byte	(.L73-.L67)/2
 687 001a 22       		.byte	(.L74-.L67)/2
 688 001b 26       		.byte	(.L75-.L67)/2
 689              		.p2align 1
 690              	.L66:
 299:Processes.c   ****             break;
 691              		.loc 1 299 0
 692 001c 1248     		ldr	r0, .L77+4
 693 001e FFF7FEFF 		bl	USB_PutString
ARM GAS  C:\Users\Dan\AppData\Local\Temp\cctBGMLt.s 			page 21


 694              	.LVL17:
 300:Processes.c   ****         case TC_STATE_ARM_IN_START :
 695              		.loc 1 300 0
 696 0022 08BD     		pop	{r3, pc}
 697              	.L68:
 303:Processes.c   ****             break;
 698              		.loc 1 303 0
 699 0024 1148     		ldr	r0, .L77+8
 700 0026 FFF7FEFF 		bl	USB_PutString
 701              	.LVL18:
 304:Processes.c   ****         case TC_STATE_ARM_OUT_START :
 702              		.loc 1 304 0
 703 002a 08BD     		pop	{r3, pc}
 704              	.L69:
 307:Processes.c   ****             break;
 705              		.loc 1 307 0
 706 002c 1048     		ldr	r0, .L77+12
 707 002e FFF7FEFF 		bl	USB_PutString
 708              	.LVL19:
 308:Processes.c   ****         case TC_STATE_BRAKE :
 709              		.loc 1 308 0
 710 0032 08BD     		pop	{r3, pc}
 711              	.L70:
 310:Processes.c   ****             break;
 712              		.loc 1 310 0
 713 0034 0F48     		ldr	r0, .L77+16
 714 0036 FFF7FEFF 		bl	USB_PutString
 715              	.LVL20:
 311:Processes.c   ****         case TC_STATE_CAROUSEL_START :
 716              		.loc 1 311 0
 717 003a 08BD     		pop	{r3, pc}
 718              	.L71:
 314:Processes.c   ****             break;
 719              		.loc 1 314 0
 720 003c 0E48     		ldr	r0, .L77+20
 721 003e FFF7FEFF 		bl	USB_PutString
 722              	.LVL21:
 315:Processes.c   ****         case TC_STATE_AIR_BLAST :
 723              		.loc 1 315 0
 724 0042 08BD     		pop	{r3, pc}
 725              	.L72:
 317:Processes.c   ****             break;
 726              		.loc 1 317 0
 727 0044 0D48     		ldr	r0, .L77+24
 728 0046 FFF7FEFF 		bl	USB_PutString
 729              	.LVL22:
 318:Processes.c   ****         case TC_STATE_CLAMP :
 730              		.loc 1 318 0
 731 004a 08BD     		pop	{r3, pc}
 732              	.L73:
 320:Processes.c   ****             break;
 733              		.loc 1 320 0
 734 004c 0C48     		ldr	r0, .L77+28
 735 004e FFF7FEFF 		bl	USB_PutString
 736              	.LVL23:
 321:Processes.c   ****         case TC_STATE_FAULT :
 737              		.loc 1 321 0
ARM GAS  C:\Users\Dan\AppData\Local\Temp\cctBGMLt.s 			page 22


 738 0052 08BD     		pop	{r3, pc}
 739              	.L74:
 323:Processes.c   ****             break;
 740              		.loc 1 323 0
 741 0054 0B48     		ldr	r0, .L77+32
 742 0056 FFF7FEFF 		bl	USB_PutString
 743              	.LVL24:
 324:Processes.c   ****         case TC_STATE_TEST :
 744              		.loc 1 324 0
 745 005a 08BD     		pop	{r3, pc}
 746              	.L75:
 326:Processes.c   ****             break;
 747              		.loc 1 326 0
 748 005c 0A48     		ldr	r0, .L77+36
 749 005e FFF7FEFF 		bl	USB_PutString
 750              	.LVL25:
 751              	.L64:
 752 0062 08BD     		pop	{r3, pc}
 753              	.L78:
 754              		.align	2
 755              	.L77:
 756 0064 00000000 		.word	TC_STATE
 757 0068 64000000 		.word	.LC5
 758 006c 6C000000 		.word	.LC6
 759 0070 78000000 		.word	.LC7
 760 0074 84000000 		.word	.LC8
 761 0078 90000000 		.word	.LC9
 762 007c 9C000000 		.word	.LC10
 763 0080 AC000000 		.word	.LC11
 764 0084 B8000000 		.word	.LC12
 765 0088 C4000000 		.word	.LC13
 766              		.cfi_endproc
 767              	.LFE86:
 768              		.size	TC_Status, .-TC_Status
 769              		.section	.text.At_Home,"ax",%progbits
 770              		.align	2
 771              		.global	At_Home
 772              		.thumb
 773              		.thumb_func
 774              		.type	At_Home, %function
 775              	At_Home:
 776              	.LFB87:
 332:Processes.c   ****     if((SENSE_PORT & (Pin_Tool_1_MASK | Pin_Tool_Count_MASK | Pin_Tool_Arm_In_MASK)) == 0)    // al
 777              		.loc 1 332 0
 778              		.cfi_startproc
 779              		@ args = 0, pretend = 0, frame = 0
 780              		@ frame_needed = 0, uses_anonymous_args = 0
 781              		@ link register save eliminated.
 333:Processes.c   ****     {
 782              		.loc 1 333 0
 783 0000 044B     		ldr	r3, .L82
 784 0002 1B78     		ldrb	r3, [r3]	@ zero_extendqisi2
 785 0004 13F0850F 		tst	r3, #133
 786 0008 01D1     		bne	.L81
 335:Processes.c   ****     } 
 787              		.loc 1 335 0
 788 000a 0120     		movs	r0, #1
ARM GAS  C:\Users\Dan\AppData\Local\Temp\cctBGMLt.s 			page 23


 789 000c 7047     		bx	lr
 790              	.L81:
 339:Processes.c   ****     }
 791              		.loc 1 339 0
 792 000e 0020     		movs	r0, #0
 341:Processes.c   **** 
 793              		.loc 1 341 0
 794 0010 7047     		bx	lr
 795              	.L83:
 796 0012 00BF     		.align	2
 797              	.L82:
 798 0014 01510040 		.word	1073762561
 799              		.cfi_endproc
 800              	.LFE87:
 801              		.size	At_Home, .-At_Home
 802              		.section	.text.In_Fault,"ax",%progbits
 803              		.align	2
 804              		.global	In_Fault
 805              		.thumb
 806              		.thumb_func
 807              		.type	In_Fault, %function
 808              	In_Fault:
 809              	.LFB88:
 345:Processes.c   ****     uint8 fault = (FAULT_PORT & (Pin_V_Mon2_MASK | Pin_AC_Mon_MASK | Pin_ESTOP_MASK));
 810              		.loc 1 345 0
 811              		.cfi_startproc
 812              		@ args = 0, pretend = 0, frame = 0
 813              		@ frame_needed = 0, uses_anonymous_args = 0
 814              		@ link register save eliminated.
 346:Processes.c   ****     if(fault == (Pin_V_Mon2_MASK | Pin_ESTOP_MASK))
 815              		.loc 1 346 0
 816 0000 044B     		ldr	r3, .L87
 817 0002 1B78     		ldrb	r3, [r3]	@ zero_extendqisi2
 818 0004 03F02C03 		and	r3, r3, #44
 819              	.LVL26:
 347:Processes.c   ****     {
 820              		.loc 1 347 0
 821 0008 242B     		cmp	r3, #36
 822 000a 01D1     		bne	.L86
 349:Processes.c   ****     }
 823              		.loc 1 349 0
 824 000c 0020     		movs	r0, #0
 825 000e 7047     		bx	lr
 826              	.L86:
 353:Processes.c   ****     }
 827              		.loc 1 353 0
 828 0010 0120     		movs	r0, #1
 355:Processes.c   **** 
 829              		.loc 1 355 0
 830 0012 7047     		bx	lr
 831              	.L88:
 832              		.align	2
 833              	.L87:
 834 0014 11510040 		.word	1073762577
 835              		.cfi_endproc
 836              	.LFE88:
 837              		.size	In_Fault, .-In_Fault
ARM GAS  C:\Users\Dan\AppData\Local\Temp\cctBGMLt.s 			page 24


 838              		.section	.text.TC_IDLE,"ax",%progbits
 839              		.align	2
 840              		.global	TC_IDLE
 841              		.thumb
 842              		.thumb_func
 843              		.type	TC_IDLE, %function
 844              	TC_IDLE:
 845              	.LFB70:
 109:Processes.c   ****     TC_STATE = TC_STATE_IDLE;
 846              		.loc 1 109 0
 847              		.cfi_startproc
 848              		@ args = 0, pretend = 0, frame = 0
 849              		@ frame_needed = 0, uses_anonymous_args = 0
 850 0000 08B5     		push	{r3, lr}
 851              		.cfi_def_cfa_offset 8
 852              		.cfi_offset 3, -8
 853              		.cfi_offset 14, -4
 110:Processes.c   ****     // waiting for a command to start a motion
 854              		.loc 1 110 0
 855 0002 0122     		movs	r2, #1
 856 0004 044B     		ldr	r3, .L92
 857 0006 1A70     		strb	r2, [r3]
 113:Processes.c   ****     {
 858              		.loc 1 113 0
 859 0008 FFF7FEFF 		bl	In_Fault
 860              	.LVL27:
 861 000c 0128     		cmp	r0, #1
 862 000e 02D1     		bne	.L89
 115:Processes.c   ****     }
 863              		.loc 1 115 0
 864 0010 024A     		ldr	r2, .L92+4
 865 0012 034B     		ldr	r3, .L92+8
 866 0014 1A60     		str	r2, [r3]
 867              	.L89:
 868 0016 08BD     		pop	{r3, pc}
 869              	.L93:
 870              		.align	2
 871              	.L92:
 872 0018 00000000 		.word	TC_STATE
 873 001c 00000000 		.word	TC_Fault
 874 0020 00000000 		.word	TC_SM
 875              		.cfi_endproc
 876              	.LFE70:
 877              		.size	TC_IDLE, .-TC_IDLE
 878              		.section	.text.TC_Fault,"ax",%progbits
 879              		.align	2
 880              		.global	TC_Fault
 881              		.thumb
 882              		.thumb_func
 883              		.type	TC_Fault, %function
 884              	TC_Fault:
 885              	.LFB79:
 238:Processes.c   ****     TC_STATE = TC_STATE_FAULT;
 886              		.loc 1 238 0
 887              		.cfi_startproc
 888              		@ args = 0, pretend = 0, frame = 0
 889              		@ frame_needed = 0, uses_anonymous_args = 0
ARM GAS  C:\Users\Dan\AppData\Local\Temp\cctBGMLt.s 			page 25


 890 0000 08B5     		push	{r3, lr}
 891              		.cfi_def_cfa_offset 8
 892              		.cfi_offset 3, -8
 893              		.cfi_offset 14, -4
 239:Processes.c   ****     // Fault!
 894              		.loc 1 239 0
 895 0002 0B22     		movs	r2, #11
 896 0004 084B     		ldr	r3, .L97
 897 0006 1A70     		strb	r2, [r3]
 244:Processes.c   ****     {
 898              		.loc 1 244 0
 899 0008 FFF7FEFF 		bl	At_Home
 900              	.LVL28:
 901 000c 0128     		cmp	r0, #1
 902 000e 0AD1     		bne	.L94
 244:Processes.c   ****     {
 903              		.loc 1 244 0 is_stmt 0 discriminator 1
 904 0010 FFF7FEFF 		bl	In_Fault
 905              	.LVL29:
 906 0014 38B9     		cbnz	r0, .L94
 246:Processes.c   ****         TC_SM = &TC_IDLE;   // change state back to idle
 907              		.loc 1 246 0 is_stmt 1
 908 0016 0120     		movs	r0, #1
 909 0018 FFF7FEFF 		bl	Set_Current_Tool
 910              	.LVL30:
 247:Processes.c   ****         Motors_Off();       // make sure the motors are off... 
 911              		.loc 1 247 0
 912 001c 034A     		ldr	r2, .L97+4
 913 001e 044B     		ldr	r3, .L97+8
 914 0020 1A60     		str	r2, [r3]
 248:Processes.c   ****     }
 915              		.loc 1 248 0
 916 0022 FFF7FEFF 		bl	Motors_Off
 917              	.LVL31:
 918              	.L94:
 919 0026 08BD     		pop	{r3, pc}
 920              	.L98:
 921              		.align	2
 922              	.L97:
 923 0028 00000000 		.word	TC_STATE
 924 002c 00000000 		.word	TC_IDLE
 925 0030 00000000 		.word	TC_SM
 926              		.cfi_endproc
 927              	.LFE79:
 928              		.size	TC_Fault, .-TC_Fault
 929              		.section	.text.RunningTooLong,"ax",%progbits
 930              		.align	2
 931              		.global	RunningTooLong
 932              		.thumb
 933              		.thumb_func
 934              		.type	RunningTooLong, %function
 935              	RunningTooLong:
 936              	.LFB92:
 399:Processes.c   ****         }
 400:Processes.c   ****     }
 401:Processes.c   **** }
 402:Processes.c   **** 
ARM GAS  C:\Users\Dan\AppData\Local\Temp\cctBGMLt.s 			page 26


 403:Processes.c   **** void RunningTooLong(void)
 404:Processes.c   **** {
 937              		.loc 1 404 0
 938              		.cfi_startproc
 939              		@ args = 0, pretend = 0, frame = 0
 940              		@ frame_needed = 0, uses_anonymous_args = 0
 941 0000 08B5     		push	{r3, lr}
 942              		.cfi_def_cfa_offset 8
 943              		.cfi_offset 3, -8
 944              		.cfi_offset 14, -4
 405:Processes.c   ****     if((MS_Time - TC_DelayStart) > TC_Delay)    // motors have been running too long!
 945              		.loc 1 405 0
 946 0002 074B     		ldr	r3, .L102
 947 0004 1B68     		ldr	r3, [r3]
 948 0006 074A     		ldr	r2, .L102+4
 949 0008 9168     		ldr	r1, [r2, #8]
 950 000a 5B1A     		subs	r3, r3, r1
 951 000c D268     		ldr	r2, [r2, #12]
 952 000e 9342     		cmp	r3, r2
 953 0010 04D9     		bls	.L99
 406:Processes.c   ****     {
 407:Processes.c   ****         Motors_Off();
 954              		.loc 1 407 0
 955 0012 FFF7FEFF 		bl	Motors_Off
 956              	.LVL32:
 408:Processes.c   ****         TC_SM = &TC_Fault;
 957              		.loc 1 408 0
 958 0016 044A     		ldr	r2, .L102+8
 959 0018 044B     		ldr	r3, .L102+12
 960 001a 1A60     		str	r2, [r3]
 961              	.L99:
 962 001c 08BD     		pop	{r3, pc}
 963              	.L103:
 964 001e 00BF     		.align	2
 965              	.L102:
 966 0020 00000000 		.word	MS_Time
 967 0024 00000000 		.word	.LANCHOR0
 968 0028 00000000 		.word	TC_Fault
 969 002c 00000000 		.word	TC_SM
 970              		.cfi_endproc
 971              	.LFE92:
 972              		.size	RunningTooLong, .-RunningTooLong
 973              		.section	.text.TC_Arm_Move_In_Start,"ax",%progbits
 974              		.align	2
 975              		.global	TC_Arm_Move_In_Start
 976              		.thumb
 977              		.thumb_func
 978              		.type	TC_Arm_Move_In_Start, %function
 979              	TC_Arm_Move_In_Start:
 980              	.LFB71:
 120:Processes.c   ****     TC_STATE = TC_STATE_ARM_IN_START;
 981              		.loc 1 120 0
 982              		.cfi_startproc
 983              		@ args = 0, pretend = 0, frame = 0
 984              		@ frame_needed = 0, uses_anonymous_args = 0
 985 0000 08B5     		push	{r3, lr}
 986              		.cfi_def_cfa_offset 8
ARM GAS  C:\Users\Dan\AppData\Local\Temp\cctBGMLt.s 			page 27


 987              		.cfi_offset 3, -8
 988              		.cfi_offset 14, -4
 121:Processes.c   ****     if((SENSE_PORT & Pin_Tool_Arm_Out_MASK) != 0)  // check for tool to get off the Arm Out sensor
 989              		.loc 1 121 0
 990 0002 0222     		movs	r2, #2
 991 0004 084B     		ldr	r3, .L107
 992 0006 1A70     		strb	r2, [r3]
 122:Processes.c   ****     {
 993              		.loc 1 122 0
 994 0008 084B     		ldr	r3, .L107+4
 995 000a 1B78     		ldrb	r3, [r3]	@ zero_extendqisi2
 996 000c 13F0200F 		tst	r3, #32
 997 0010 06D0     		beq	.L105
 124:Processes.c   ****         TC_Set_Delay(ARM_MOVE_TIME);
 998              		.loc 1 124 0
 999 0012 074A     		ldr	r2, .L107+8
 1000 0014 074B     		ldr	r3, .L107+12
 1001 0016 1A60     		str	r2, [r3]
 125:Processes.c   ****     }
 1002              		.loc 1 125 0
 1003 0018 40F6B830 		movw	r0, #3000
 1004 001c FFF7FEFF 		bl	TC_Set_Delay
 1005              	.LVL33:
 1006              	.L105:
 127:Processes.c   **** }
 1007              		.loc 1 127 0
 1008 0020 FFF7FEFF 		bl	RunningTooLong
 1009              	.LVL34:
 1010 0024 08BD     		pop	{r3, pc}
 1011              	.L108:
 1012 0026 00BF     		.align	2
 1013              	.L107:
 1014 0028 00000000 		.word	TC_STATE
 1015 002c 01510040 		.word	1073762561
 1016 0030 00000000 		.word	TC_Arm_Move_In
 1017 0034 00000000 		.word	TC_SM
 1018              		.cfi_endproc
 1019              	.LFE71:
 1020              		.size	TC_Arm_Move_In_Start, .-TC_Arm_Move_In_Start
 1021              		.section	.text.TC_Arm_Move_In,"ax",%progbits
 1022              		.align	2
 1023              		.global	TC_Arm_Move_In
 1024              		.thumb
 1025              		.thumb_func
 1026              		.type	TC_Arm_Move_In, %function
 1027              	TC_Arm_Move_In:
 1028              	.LFB72:
 131:Processes.c   ****     TC_STATE = TC_STATE_ARM_IN;
 1029              		.loc 1 131 0
 1030              		.cfi_startproc
 1031              		@ args = 0, pretend = 0, frame = 0
 1032              		@ frame_needed = 0, uses_anonymous_args = 0
 1033 0000 08B5     		push	{r3, lr}
 1034              		.cfi_def_cfa_offset 8
 1035              		.cfi_offset 3, -8
 1036              		.cfi_offset 14, -4
 132:Processes.c   ****     RunningTooLong();
ARM GAS  C:\Users\Dan\AppData\Local\Temp\cctBGMLt.s 			page 28


 1037              		.loc 1 132 0
 1038 0002 0322     		movs	r2, #3
 1039 0004 074B     		ldr	r3, .L112
 1040 0006 1A70     		strb	r2, [r3]
 133:Processes.c   ****     if((SENSE_PORT & Pin_Tool_Arm_In_MASK) == 0)   //  detect Arm In (retracted
 1041              		.loc 1 133 0
 1042 0008 FFF7FEFF 		bl	RunningTooLong
 1043              	.LVL35:
 134:Processes.c   ****     {
 1044              		.loc 1 134 0
 1045 000c 064B     		ldr	r3, .L112+4
 1046 000e 1B78     		ldrb	r3, [r3]	@ zero_extendqisi2
 1047 0010 13F0800F 		tst	r3, #128
 1048 0014 05D1     		bne	.L109
 136:Processes.c   ****         TC_SM = TC_Motor_Brake;
 1049              		.loc 1 136 0
 1050 0016 0A20     		movs	r0, #10
 1051 0018 FFF7FEFF 		bl	TC_Set_Delay
 1052              	.LVL36:
 137:Processes.c   ****     }
 1053              		.loc 1 137 0
 1054 001c 034A     		ldr	r2, .L112+8
 1055 001e 044B     		ldr	r3, .L112+12
 1056 0020 1A60     		str	r2, [r3]
 1057              	.L109:
 1058 0022 08BD     		pop	{r3, pc}
 1059              	.L113:
 1060              		.align	2
 1061              	.L112:
 1062 0024 00000000 		.word	TC_STATE
 1063 0028 01510040 		.word	1073762561
 1064 002c 00000000 		.word	TC_Motor_Brake
 1065 0030 00000000 		.word	TC_SM
 1066              		.cfi_endproc
 1067              	.LFE72:
 1068              		.size	TC_Arm_Move_In, .-TC_Arm_Move_In
 1069              		.section	.text.TC_Arm_Move_Out_Start,"ax",%progbits
 1070              		.align	2
 1071              		.global	TC_Arm_Move_Out_Start
 1072              		.thumb
 1073              		.thumb_func
 1074              		.type	TC_Arm_Move_Out_Start, %function
 1075              	TC_Arm_Move_Out_Start:
 1076              	.LFB73:
 142:Processes.c   ****     TC_STATE = TC_STATE_ARM_OUT_START;
 1077              		.loc 1 142 0
 1078              		.cfi_startproc
 1079              		@ args = 0, pretend = 0, frame = 0
 1080              		@ frame_needed = 0, uses_anonymous_args = 0
 1081 0000 08B5     		push	{r3, lr}
 1082              		.cfi_def_cfa_offset 8
 1083              		.cfi_offset 3, -8
 1084              		.cfi_offset 14, -4
 143:Processes.c   ****     if((SENSE_PORT & Pin_Tool_Arm_In_MASK) == 0)  // check for tool to get off the tool back sensor
 1085              		.loc 1 143 0
 1086 0002 0422     		movs	r2, #4
 1087 0004 084B     		ldr	r3, .L117
ARM GAS  C:\Users\Dan\AppData\Local\Temp\cctBGMLt.s 			page 29


 1088 0006 1A70     		strb	r2, [r3]
 144:Processes.c   ****     {
 1089              		.loc 1 144 0
 1090 0008 084B     		ldr	r3, .L117+4
 1091 000a 1B78     		ldrb	r3, [r3]	@ zero_extendqisi2
 1092 000c 13F0800F 		tst	r3, #128
 1093 0010 06D1     		bne	.L115
 146:Processes.c   ****         TC_Set_Delay(ARM_MOVE_TIME);
 1094              		.loc 1 146 0
 1095 0012 074A     		ldr	r2, .L117+8
 1096 0014 074B     		ldr	r3, .L117+12
 1097 0016 1A60     		str	r2, [r3]
 147:Processes.c   ****     }
 1098              		.loc 1 147 0
 1099 0018 40F6B830 		movw	r0, #3000
 1100 001c FFF7FEFF 		bl	TC_Set_Delay
 1101              	.LVL37:
 1102              	.L115:
 149:Processes.c   **** }
 1103              		.loc 1 149 0
 1104 0020 FFF7FEFF 		bl	RunningTooLong
 1105              	.LVL38:
 1106 0024 08BD     		pop	{r3, pc}
 1107              	.L118:
 1108 0026 00BF     		.align	2
 1109              	.L117:
 1110 0028 00000000 		.word	TC_STATE
 1111 002c 01510040 		.word	1073762561
 1112 0030 00000000 		.word	TC_Arm_Move_Out
 1113 0034 00000000 		.word	TC_SM
 1114              		.cfi_endproc
 1115              	.LFE73:
 1116              		.size	TC_Arm_Move_Out_Start, .-TC_Arm_Move_Out_Start
 1117              		.section	.text.TC_Arm_Move_Out,"ax",%progbits
 1118              		.align	2
 1119              		.global	TC_Arm_Move_Out
 1120              		.thumb
 1121              		.thumb_func
 1122              		.type	TC_Arm_Move_Out, %function
 1123              	TC_Arm_Move_Out:
 1124              	.LFB74:
 153:Processes.c   ****     TC_STATE = TC_STATE_ARM_OUT;
 1125              		.loc 1 153 0
 1126              		.cfi_startproc
 1127              		@ args = 0, pretend = 0, frame = 0
 1128              		@ frame_needed = 0, uses_anonymous_args = 0
 1129 0000 08B5     		push	{r3, lr}
 1130              		.cfi_def_cfa_offset 8
 1131              		.cfi_offset 3, -8
 1132              		.cfi_offset 14, -4
 154:Processes.c   ****     RunningTooLong();    
 1133              		.loc 1 154 0
 1134 0002 0522     		movs	r2, #5
 1135 0004 074B     		ldr	r3, .L122
 1136 0006 1A70     		strb	r2, [r3]
 155:Processes.c   ****     if((SENSE_PORT & Pin_Tool_Arm_Out_MASK) == 0)   //  detect Arm Back
 1137              		.loc 1 155 0
ARM GAS  C:\Users\Dan\AppData\Local\Temp\cctBGMLt.s 			page 30


 1138 0008 FFF7FEFF 		bl	RunningTooLong
 1139              	.LVL39:
 156:Processes.c   ****     {
 1140              		.loc 1 156 0
 1141 000c 064B     		ldr	r3, .L122+4
 1142 000e 1B78     		ldrb	r3, [r3]	@ zero_extendqisi2
 1143 0010 13F0200F 		tst	r3, #32
 1144 0014 05D1     		bne	.L119
 158:Processes.c   ****         TC_SM = TC_Motor_Brake;
 1145              		.loc 1 158 0
 1146 0016 0A20     		movs	r0, #10
 1147 0018 FFF7FEFF 		bl	TC_Set_Delay
 1148              	.LVL40:
 159:Processes.c   ****     }
 1149              		.loc 1 159 0
 1150 001c 034A     		ldr	r2, .L122+8
 1151 001e 044B     		ldr	r3, .L122+12
 1152 0020 1A60     		str	r2, [r3]
 1153              	.L119:
 1154 0022 08BD     		pop	{r3, pc}
 1155              	.L123:
 1156              		.align	2
 1157              	.L122:
 1158 0024 00000000 		.word	TC_STATE
 1159 0028 01510040 		.word	1073762561
 1160 002c 00000000 		.word	TC_Motor_Brake
 1161 0030 00000000 		.word	TC_SM
 1162              		.cfi_endproc
 1163              	.LFE74:
 1164              		.size	TC_Arm_Move_Out, .-TC_Arm_Move_Out
 1165              		.section	.text.TC_Carousel_Moving_Start,"ax",%progbits
 1166              		.align	2
 1167              		.global	TC_Carousel_Moving_Start
 1168              		.thumb
 1169              		.thumb_func
 1170              		.type	TC_Carousel_Moving_Start, %function
 1171              	TC_Carousel_Moving_Start:
 1172              	.LFB76:
 174:Processes.c   ****     TC_STATE = TC_STATE_CAROUSEL_START;
 1173              		.loc 1 174 0
 1174              		.cfi_startproc
 1175              		@ args = 0, pretend = 0, frame = 0
 1176              		@ frame_needed = 0, uses_anonymous_args = 0
 1177 0000 08B5     		push	{r3, lr}
 1178              		.cfi_def_cfa_offset 8
 1179              		.cfi_offset 3, -8
 1180              		.cfi_offset 14, -4
 175:Processes.c   ****      // look for both sensor to be high, ie. off of he currrent tool position
 1181              		.loc 1 175 0
 1182 0002 0722     		movs	r2, #7
 1183 0004 084B     		ldr	r3, .L127
 1184 0006 1A70     		strb	r2, [r3]
 177:Processes.c   ****     {
 1185              		.loc 1 177 0
 1186 0008 084B     		ldr	r3, .L127+4
 1187 000a 1B78     		ldrb	r3, [r3]	@ zero_extendqisi2
 1188 000c 13F0040F 		tst	r3, #4
ARM GAS  C:\Users\Dan\AppData\Local\Temp\cctBGMLt.s 			page 31


 1189 0010 06D0     		beq	.L125
 179:Processes.c   ****         TC_Set_Delay(CAROUSEL_MOVING_DELAY);
 1190              		.loc 1 179 0
 1191 0012 074A     		ldr	r2, .L127+8
 1192 0014 074B     		ldr	r3, .L127+12
 1193 0016 1A60     		str	r2, [r3]
 180:Processes.c   ****         // PutStr("P_Car 1\n");
 1194              		.loc 1 180 0
 1195 0018 4FF4FA60 		mov	r0, #2000
 1196 001c FFF7FEFF 		bl	TC_Set_Delay
 1197              	.LVL41:
 1198              	.L125:
 183:Processes.c   **** }
 1199              		.loc 1 183 0
 1200 0020 FFF7FEFF 		bl	RunningTooLong
 1201              	.LVL42:
 1202 0024 08BD     		pop	{r3, pc}
 1203              	.L128:
 1204 0026 00BF     		.align	2
 1205              	.L127:
 1206 0028 00000000 		.word	TC_STATE
 1207 002c 01510040 		.word	1073762561
 1208 0030 00000000 		.word	TC_Carousel_Moving
 1209 0034 00000000 		.word	TC_SM
 1210              		.cfi_endproc
 1211              	.LFE76:
 1212              		.size	TC_Carousel_Moving_Start, .-TC_Carousel_Moving_Start
 1213              		.section	.text.TC_Carousel_Moving,"ax",%progbits
 1214              		.align	2
 1215              		.global	TC_Carousel_Moving
 1216              		.thumb
 1217              		.thumb_func
 1218              		.type	TC_Carousel_Moving, %function
 1219              	TC_Carousel_Moving:
 1220              	.LFB77:
 187:Processes.c   ****     TC_STATE = TC_STATE_CAROUSEL;
 1221              		.loc 1 187 0
 1222              		.cfi_startproc
 1223              		@ args = 0, pretend = 0, frame = 0
 1224              		@ frame_needed = 0, uses_anonymous_args = 0
 1225 0000 08B5     		push	{r3, lr}
 1226              		.cfi_def_cfa_offset 8
 1227              		.cfi_offset 3, -8
 1228              		.cfi_offset 14, -4
 188:Processes.c   ****     RunningTooLong();   // if timeout then next state is Fault.
 1229              		.loc 1 188 0
 1230 0002 0822     		movs	r2, #8
 1231 0004 1F4B     		ldr	r3, .L136
 1232 0006 1A70     		strb	r2, [r3]
 189:Processes.c   ****     
 1233              		.loc 1 189 0
 1234 0008 FFF7FEFF 		bl	RunningTooLong
 1235              	.LVL43:
 191:Processes.c   ****     {
 1236              		.loc 1 191 0
 1237 000c 1E4B     		ldr	r3, .L136+4
 1238 000e 1B78     		ldrb	r3, [r3]	@ zero_extendqisi2
ARM GAS  C:\Users\Dan\AppData\Local\Temp\cctBGMLt.s 			page 32


 1239 0010 13F0040F 		tst	r3, #4
 1240 0014 35D1     		bne	.L129
 194:Processes.c   ****         if(Current_Tool > NUMBER_OF_TOOLS)              // There has to be some modulus stuff here 
 1241              		.loc 1 194 0
 1242 0016 1D4A     		ldr	r2, .L136+8
 1243 0018 1178     		ldrb	r1, [r2]	@ zero_extendqisi2
 1244 001a 1D4B     		ldr	r3, .L136+12
 1245 001c 1B78     		ldrb	r3, [r3]	@ zero_extendqisi2
 1246 001e 0B44     		add	r3, r3, r1
 1247 0020 DBB2     		uxtb	r3, r3
 1248 0022 1370     		strb	r3, [r2]
 195:Processes.c   ****         {
 1249              		.loc 1 195 0
 1250 0024 082B     		cmp	r3, #8
 1251 0026 03D9     		bls	.L131
 197:Processes.c   ****         }
 1252              		.loc 1 197 0
 1253 0028 0122     		movs	r2, #1
 1254 002a 184B     		ldr	r3, .L136+8
 1255 002c 1A70     		strb	r2, [r3]
 1256 002e 03E0     		b	.L132
 1257              	.L131:
 199:Processes.c   ****         {
 1258              		.loc 1 199 0
 1259 0030 13B9     		cbnz	r3, .L132
 201:Processes.c   ****         }
 1260              		.loc 1 201 0
 1261 0032 0822     		movs	r2, #8
 1262 0034 154B     		ldr	r3, .L136+8
 1263 0036 1A70     		strb	r2, [r3]
 1264              	.L132:
 204:Processes.c   ****         {   
 1265              		.loc 1 204 0
 1266 0038 144B     		ldr	r3, .L136+8
 1267 003a 1B78     		ldrb	r3, [r3]	@ zero_extendqisi2
 1268 003c 012B     		cmp	r3, #1
 1269 003e 0CD1     		bne	.L133
 204:Processes.c   ****         {   
 1270              		.loc 1 204 0 is_stmt 0 discriminator 1
 1271 0040 03F18043 		add	r3, r3, #1073741824
 1272 0044 03F5A243 		add	r3, r3, #20736
 1273 0048 1B78     		ldrb	r3, [r3]	@ zero_extendqisi2
 1274 004a 13F0010F 		tst	r3, #1
 1275 004e 04D0     		beq	.L133
 207:Processes.c   ****             Motors_Off();
 1276              		.loc 1 207 0 is_stmt 1
 1277 0050 104A     		ldr	r2, .L136+16
 1278 0052 114B     		ldr	r3, .L136+20
 1279 0054 1A60     		str	r2, [r3]
 208:Processes.c   ****         }
 1280              		.loc 1 208 0
 1281 0056 FFF7FEFF 		bl	Motors_Off
 1282              	.LVL44:
 1283              	.L133:
 210:Processes.c   ****         {
 1284              		.loc 1 210 0
 1285 005a 0C4B     		ldr	r3, .L136+8
ARM GAS  C:\Users\Dan\AppData\Local\Temp\cctBGMLt.s 			page 33


 1286 005c 1A78     		ldrb	r2, [r3]	@ zero_extendqisi2
 1287 005e 0F4B     		ldr	r3, .L136+24
 1288 0060 1B78     		ldrb	r3, [r3]	@ zero_extendqisi2
 1289 0062 9A42     		cmp	r2, r3
 1290 0064 06D1     		bne	.L134
 213:Processes.c   ****             TC_SM = &TC_Motor_Brake;
 1291              		.loc 1 213 0
 1292 0066 0A20     		movs	r0, #10
 1293 0068 FFF7FEFF 		bl	TC_Set_Delay
 1294              	.LVL45:
 214:Processes.c   ****         }
 1295              		.loc 1 214 0
 1296 006c 0C4A     		ldr	r2, .L136+28
 1297 006e 0A4B     		ldr	r3, .L136+20
 1298 0070 1A60     		str	r2, [r3]
 1299 0072 08BD     		pop	{r3, pc}
 1300              	.L134:
 218:Processes.c   ****             TC_SM = &TC_Carousel_Moving_Start;
 1301              		.loc 1 218 0
 1302 0074 4FF4FA70 		mov	r0, #500
 1303 0078 FFF7FEFF 		bl	TC_Set_Delay
 1304              	.LVL46:
 219:Processes.c   ****             // PutStr("P_Car Restart\n");
 1305              		.loc 1 219 0
 1306 007c 094A     		ldr	r2, .L136+32
 1307 007e 064B     		ldr	r3, .L136+20
 1308 0080 1A60     		str	r2, [r3]
 1309              	.L129:
 1310 0082 08BD     		pop	{r3, pc}
 1311              	.L137:
 1312              		.align	2
 1313              	.L136:
 1314 0084 00000000 		.word	TC_STATE
 1315 0088 01510040 		.word	1073762561
 1316 008c 00000000 		.word	Current_Tool
 1317 0090 00000000 		.word	Carousel_Dir
 1318 0094 00000000 		.word	TC_Fault
 1319 0098 00000000 		.word	TC_SM
 1320 009c 00000000 		.word	Target_Tool
 1321 00a0 00000000 		.word	TC_Motor_Brake
 1322 00a4 00000000 		.word	TC_Carousel_Moving_Start
 1323              		.cfi_endproc
 1324              	.LFE77:
 1325              		.size	TC_Carousel_Moving, .-TC_Carousel_Moving
 1326              		.section	.text.TC_Home_Arm,"ax",%progbits
 1327              		.align	2
 1328              		.global	TC_Home_Arm
 1329              		.thumb
 1330              		.thumb_func
 1331              		.type	TC_Home_Arm, %function
 1332              	TC_Home_Arm:
 1333              	.LFB89:
 358:Processes.c   ****     TC_STATE = TC_STATE_HOME_ARM;
 1334              		.loc 1 358 0
 1335              		.cfi_startproc
 1336              		@ args = 0, pretend = 0, frame = 0
 1337              		@ frame_needed = 0, uses_anonymous_args = 0
ARM GAS  C:\Users\Dan\AppData\Local\Temp\cctBGMLt.s 			page 34


 1338 0000 08B5     		push	{r3, lr}
 1339              		.cfi_def_cfa_offset 8
 1340              		.cfi_offset 3, -8
 1341              		.cfi_offset 14, -4
 359:Processes.c   ****     RunningTooLong();
 1342              		.loc 1 359 0
 1343 0002 0D22     		movs	r2, #13
 1344 0004 074B     		ldr	r3, .L141
 1345 0006 1A70     		strb	r2, [r3]
 360:Processes.c   ****     if((SENSE_PORT & Pin_Tool_Arm_In_MASK) == 0)   //  detect Arm Back
 1346              		.loc 1 360 0
 1347 0008 FFF7FEFF 		bl	RunningTooLong
 1348              	.LVL47:
 361:Processes.c   ****     {
 1349              		.loc 1 361 0
 1350 000c 064B     		ldr	r3, .L141+4
 1351 000e 1B78     		ldrb	r3, [r3]	@ zero_extendqisi2
 1352 0010 13F0800F 		tst	r3, #128
 1353 0014 05D1     		bne	.L138
 363:Processes.c   ****         TC_SM = TC_Home_Delay;
 1354              		.loc 1 363 0
 1355 0016 0A20     		movs	r0, #10
 1356 0018 FFF7FEFF 		bl	TC_Set_Delay
 1357              	.LVL48:
 364:Processes.c   ****     }
 1358              		.loc 1 364 0
 1359 001c 034A     		ldr	r2, .L141+8
 1360 001e 044B     		ldr	r3, .L141+12
 1361 0020 1A60     		str	r2, [r3]
 1362              	.L138:
 1363 0022 08BD     		pop	{r3, pc}
 1364              	.L142:
 1365              		.align	2
 1366              	.L141:
 1367 0024 00000000 		.word	TC_STATE
 1368 0028 01510040 		.word	1073762561
 1369 002c 00000000 		.word	TC_Home_Delay
 1370 0030 00000000 		.word	TC_SM
 1371              		.cfi_endproc
 1372              	.LFE89:
 1373              		.size	TC_Home_Arm, .-TC_Home_Arm
 1374              		.section	.text.TC_Home_Carousel,"ax",%progbits
 1375              		.align	2
 1376              		.global	TC_Home_Carousel
 1377              		.thumb
 1378              		.thumb_func
 1379              		.type	TC_Home_Carousel, %function
 1380              	TC_Home_Carousel:
 1381              	.LFB90:
 369:Processes.c   ****     RunningTooLong();
 1382              		.loc 1 369 0
 1383              		.cfi_startproc
 1384              		@ args = 0, pretend = 0, frame = 0
 1385              		@ frame_needed = 0, uses_anonymous_args = 0
 1386 0000 08B5     		push	{r3, lr}
 1387              		.cfi_def_cfa_offset 8
 1388              		.cfi_offset 3, -8
ARM GAS  C:\Users\Dan\AppData\Local\Temp\cctBGMLt.s 			page 35


 1389              		.cfi_offset 14, -4
 370:Processes.c   ****     // move until the carousel reaches tool 1
 1390              		.loc 1 370 0
 1391 0002 FFF7FEFF 		bl	RunningTooLong
 1392              	.LVL49:
 372:Processes.c   ****     {
 1393              		.loc 1 372 0
 1394 0006 074B     		ldr	r3, .L146
 1395 0008 1B78     		ldrb	r3, [r3]	@ zero_extendqisi2
 1396 000a 13F0050F 		tst	r3, #5
 1397 000e 08D1     		bne	.L143
 374:Processes.c   ****         TC_SM = &TC_Motor_Brake;
 1398              		.loc 1 374 0
 1399 0010 0A20     		movs	r0, #10
 1400 0012 FFF7FEFF 		bl	TC_Set_Delay
 1401              	.LVL50:
 375:Processes.c   ****         Current_Tool = 1;   // current tool reset to 1! 
 1402              		.loc 1 375 0
 1403 0016 044A     		ldr	r2, .L146+4
 1404 0018 044B     		ldr	r3, .L146+8
 1405 001a 1A60     		str	r2, [r3]
 376:Processes.c   ****     }
 1406              		.loc 1 376 0
 1407 001c 0122     		movs	r2, #1
 1408 001e 044B     		ldr	r3, .L146+12
 1409 0020 1A70     		strb	r2, [r3]
 1410              	.L143:
 1411 0022 08BD     		pop	{r3, pc}
 1412              	.L147:
 1413              		.align	2
 1414              	.L146:
 1415 0024 01510040 		.word	1073762561
 1416 0028 00000000 		.word	TC_Motor_Brake
 1417 002c 00000000 		.word	TC_SM
 1418 0030 00000000 		.word	Current_Tool
 1419              		.cfi_endproc
 1420              	.LFE90:
 1421              		.size	TC_Home_Carousel, .-TC_Home_Carousel
 1422              		.comm	Carousel_Dir,1,1
 1423              		.comm	Target_Tool,1,1
 1424              		.comm	Current_Tool,1,1
 1425              		.comm	TC_STATE,1,1
 1426              		.comm	TC_SM,4,4
 1427              		.section	.rodata.str1.4,"aMS",%progbits,1
 1428              		.align	2
 1429              	.LC0:
 1430 0000 436F756E 		.ascii	"Count = %d\015\000"
 1430      74203D20 
 1430      25640D00 
 1431              	.LC1:
 1432 000c 416C7068 		.ascii	"Alpha = %c\015\000"
 1432      61203D20 
 1432      25630D00 
 1433              	.LC2:
 1434 0018 53746174 		.ascii	"Status Process already running!\012\000"
 1434      75732050 
 1434      726F6365 
ARM GAS  C:\Users\Dan\AppData\Local\Temp\cctBGMLt.s 			page 36


 1434      73732061 
 1434      6C726561 
 1435 0039 000000   		.space	3
 1436              	.LC3:
 1437 003c 54435F53 		.ascii	"TC_State Machine Started\000"
 1437      74617465 
 1437      204D6163 
 1437      68696E65 
 1437      20537461 
 1438 0055 000000   		.space	3
 1439              	.LC4:
 1440 0058 44656C61 		.ascii	"Delay Done\012\000"
 1440      7920446F 
 1440      6E650A00 
 1441              	.LC5:
 1442 0064 54432049 		.ascii	"TC IDLE\000"
 1442      444C4500 
 1443              	.LC6:
 1444 006c 54432041 		.ascii	"TC ARM REV\000"
 1444      524D2052 
 1444      455600
 1445 0077 00       		.space	1
 1446              	.LC7:
 1447 0078 54432041 		.ascii	"TC ARM FWD\000"
 1447      524D2046 
 1447      574400
 1448 0083 00       		.space	1
 1449              	.LC8:
 1450 0084 54432042 		.ascii	"TC BRAKE\000"
 1450      52414B45 
 1450      00
 1451 008d 000000   		.space	3
 1452              	.LC9:
 1453 0090 54432043 		.ascii	"TC CAROUSEL\000"
 1453      41524F55 
 1453      53454C00 
 1454              	.LC10:
 1455 009c 54432041 		.ascii	"TC AIR BLAST\000"
 1455      49522042 
 1455      4C415354 
 1455      00
 1456 00a9 000000   		.space	3
 1457              	.LC11:
 1458 00ac 54432043 		.ascii	"TC CLAMP\000"
 1458      4C414D50 
 1458      00
 1459 00b5 000000   		.space	3
 1460              	.LC12:
 1461 00b8 54432046 		.ascii	"TC FAULT\000"
 1461      41554C54 
 1461      00
 1462 00c1 000000   		.space	3
 1463              	.LC13:
 1464 00c4 54432054 		.ascii	"TC TEST\000"
 1464      45535400 
 1465              		.bss
 1466              		.align	2
ARM GAS  C:\Users\Dan\AppData\Local\Temp\cctBGMLt.s 			page 37


 1467              		.set	.LANCHOR0,. + 0
 1468              		.type	C_Count, %object
 1469              		.size	C_Count, 2
 1470              	C_Count:
 1471 0000 0000     		.space	2
 1472              		.type	SecCount, %object
 1473              		.size	SecCount, 2
 1474              	SecCount:
 1475 0002 0000     		.space	2
 1476              		.type	A_Count, %object
 1477              		.size	A_Count, 1
 1478              	A_Count:
 1479 0004 00       		.space	1
 1480 0005 00       		.space	1
 1481              		.type	S_Count, %object
 1482              		.size	S_Count, 2
 1483              	S_Count:
 1484 0006 0000     		.space	2
 1485              		.type	TC_DelayStart, %object
 1486              		.size	TC_DelayStart, 4
 1487              	TC_DelayStart:
 1488 0008 00000000 		.space	4
 1489              		.type	TC_Delay, %object
 1490              		.size	TC_Delay, 4
 1491              	TC_Delay:
 1492 000c 00000000 		.space	4
 1493              		.text
 1494              	.Letext0:
 1495              		.file 2 "c:\\program files (x86)\\cypress\\psoc creator\\4.2\\psoc creator\\import\\gnu\\arm\\5.4.
 1496              		.file 3 "c:\\program files (x86)\\cypress\\psoc creator\\4.2\\psoc creator\\import\\gnu\\arm\\5.4.
 1497              		.file 4 "Generated_Source\\PSoC5/cytypes.h"
 1498              		.file 5 "State_Machine.h"
 1499              		.file 6 "Generated_Source\\PSoC5/core_cm3.h"
 1500              		.file 7 "c:\\program files (x86)\\cypress\\psoc creator\\4.2\\psoc creator\\import\\gnu\\arm\\5.4.
 1501              		.file 8 "U_HW.h"