ARM GAS  C:\Users\Dan\AppData\Local\Temp\ccPM49Gc.s 			page 1


   1              		.syntax unified
   2              		.cpu cortex-m3
   3              		.fpu softvfp
   4              		.eabi_attribute 20, 1
   5              		.eabi_attribute 21, 1
   6              		.eabi_attribute 23, 3
   7              		.eabi_attribute 24, 1
   8              		.eabi_attribute 25, 1
   9              		.eabi_attribute 26, 1
  10              		.eabi_attribute 30, 1
  11              		.eabi_attribute 34, 1
  12              		.eabi_attribute 18, 4
  13              		.thumb
  14              		.syntax unified
  15              		.file	"SerCmds.c"
  16              		.text
  17              	.Ltext0:
  18              		.cfi_sections	.debug_frame
  19              		.section	.text.CmdFunctionName1,"ax",%progbits
  20              		.align	2
  21              		.global	CmdFunctionName1
  22              		.thumb
  23              		.thumb_func
  24              		.type	CmdFunctionName1, %function
  25              	CmdFunctionName1:
  26              	.LFB63:
  27              		.file 1 "SerCmds.c"
   1:SerCmds.c     **** /* ========================================
   2:SerCmds.c     ****  *
   3:SerCmds.c     ****  * Copyright YOUR COMPANY, THE YEAR
   4:SerCmds.c     ****  * All Rights Reserved
   5:SerCmds.c     ****  * UNPUBLISHED, LICENSED SOFTWARE.
   6:SerCmds.c     ****  *
   7:SerCmds.c     ****  * CONFIDENTIAL AND PROPRIETARY INFORMATION
   8:SerCmds.c     ****  * WHICH IS THE PROPERTY OF your company.
   9:SerCmds.c     ****  *
  10:SerCmds.c     ****  * ========================================
  11:SerCmds.c     **** */
  12:SerCmds.c     **** 
  13:SerCmds.c     **** #include "SerCmds.h"
  14:SerCmds.c     **** #include "Serial_IO.h"
  15:SerCmds.c     **** #include "Serial.h"
  16:SerCmds.c     **** #include "ToolCmds.h"
  17:SerCmds.c     **** // #include "SerMessages.h"
  18:SerCmds.c     **** 
  19:SerCmds.c     **** uint8 SerRespMsg[32];
  20:SerCmds.c     **** 
  21:SerCmds.c     **** SER_CMD(CmdFunctionName1)
  22:SerCmds.c     **** {
  28              		.loc 1 22 0
  29              		.cfi_startproc
  30              		@ args = 0, pretend = 0, frame = 0
  31              		@ frame_needed = 0, uses_anonymous_args = 0
  32              	.LVL0:
  33 0000 38B5     		push	{r3, r4, r5, lr}
  34              		.cfi_def_cfa_offset 16
  35              		.cfi_offset 3, -16
ARM GAS  C:\Users\Dan\AppData\Local\Temp\ccPM49Gc.s 			page 2


  36              		.cfi_offset 4, -12
  37              		.cfi_offset 5, -8
  38              		.cfi_offset 14, -4
  23:SerCmds.c     ****     if(SerMsg[CNT_INDEX] != 0)
  39              		.loc 1 23 0
  40 0002 4378     		ldrb	r3, [r0, #1]	@ zero_extendqisi2
  41 0004 3BB9     		cbnz	r3, .L5
  24:SerCmds.c     ****     {
  25:SerCmds.c     **** //        SER_PutStr((uint8 *)"Function 1\r");        // write a text message
  26:SerCmds.c     ****         for(uint8_t i = DATA_INDEX; i <= SerMsg[CNT_INDEX]; i++)
  27:SerCmds.c     ****         {
  28:SerCmds.c     ****             SER_PutChar(SerMsg[i]);
  29:SerCmds.c     ****         }
  30:SerCmds.c     ****         SER_PutChar('\r');
  31:SerCmds.c     ****         return 1;
  32:SerCmds.c     ****     }
  33:SerCmds.c     ****     return 0;
  42              		.loc 1 33 0
  43 0006 0020     		movs	r0, #0
  44              	.LVL1:
  45 0008 38BD     		pop	{r3, r4, r5, pc}
  46              	.LVL2:
  47              	.L4:
  48              	.LBB2:
  28:SerCmds.c     ****         }
  49              		.loc 1 28 0 discriminator 3
  50 000a 285D     		ldrb	r0, [r5, r4]	@ zero_extendqisi2
  51 000c FFF7FEFF 		bl	UART_WriteTxData
  52              	.LVL3:
  26:SerCmds.c     ****         {
  53              		.loc 1 26 0 discriminator 3
  54 0010 0134     		adds	r4, r4, #1
  55              	.LVL4:
  56 0012 E4B2     		uxtb	r4, r4
  57              	.LVL5:
  58 0014 01E0     		b	.L2
  59              	.LVL6:
  60              	.L5:
  61 0016 0546     		mov	r5, r0
  62              	.LBE2:
  63 0018 0424     		movs	r4, #4
  64              	.LVL7:
  65              	.L2:
  66              	.LBB3:
  26:SerCmds.c     ****         {
  67              		.loc 1 26 0 is_stmt 0 discriminator 1
  68 001a 6B78     		ldrb	r3, [r5, #1]	@ zero_extendqisi2
  69 001c 9C42     		cmp	r4, r3
  70 001e F4D9     		bls	.L4
  71              	.LBE3:
  30:SerCmds.c     ****         return 1;
  72              		.loc 1 30 0 is_stmt 1
  73 0020 0D20     		movs	r0, #13
  74 0022 FFF7FEFF 		bl	UART_WriteTxData
  75              	.LVL8:
  31:SerCmds.c     ****     }
  76              		.loc 1 31 0
ARM GAS  C:\Users\Dan\AppData\Local\Temp\ccPM49Gc.s 			page 3


  77 0026 0120     		movs	r0, #1
  34:SerCmds.c     **** }
  78              		.loc 1 34 0
  79 0028 38BD     		pop	{r3, r4, r5, pc}
  80              		.cfi_endproc
  81              	.LFE63:
  82              		.size	CmdFunctionName1, .-CmdFunctionName1
  83 002a 00BF     		.section	.text.CmdFunctionName2,"ax",%progbits
  84              		.align	2
  85              		.global	CmdFunctionName2
  86              		.thumb
  87              		.thumb_func
  88              		.type	CmdFunctionName2, %function
  89              	CmdFunctionName2:
  90              	.LFB64:
  35:SerCmds.c     **** 
  36:SerCmds.c     **** SER_CMD(CmdFunctionName2)
  37:SerCmds.c     **** {
  91              		.loc 1 37 0
  92              		.cfi_startproc
  93              		@ args = 0, pretend = 0, frame = 0
  94              		@ frame_needed = 0, uses_anonymous_args = 0
  95              	.LVL9:
  96 0000 38B5     		push	{r3, r4, r5, lr}
  97              		.cfi_def_cfa_offset 16
  98              		.cfi_offset 3, -16
  99              		.cfi_offset 4, -12
 100              		.cfi_offset 5, -8
 101              		.cfi_offset 14, -4
  38:SerCmds.c     ****     if(SerMsg[CNT_INDEX] != 0)
 102              		.loc 1 38 0
 103 0002 4378     		ldrb	r3, [r0, #1]	@ zero_extendqisi2
 104 0004 3BB9     		cbnz	r3, .L11
  39:SerCmds.c     ****     {
  40:SerCmds.c     **** //        SER_PutStr((uint8 *)"Function 2\r");        // write a text message
  41:SerCmds.c     ****         for(uint8_t i = DATA_INDEX; i <= SerMsg[CNT_INDEX]; i++)
  42:SerCmds.c     ****         {
  43:SerCmds.c     ****             SER_PutChar(SerMsg[i]);
  44:SerCmds.c     ****         }
  45:SerCmds.c     ****         SER_PutChar('\r');
  46:SerCmds.c     ****         return 1;
  47:SerCmds.c     ****     }
  48:SerCmds.c     ****     return 0;
 105              		.loc 1 48 0
 106 0006 0020     		movs	r0, #0
 107              	.LVL10:
 108 0008 38BD     		pop	{r3, r4, r5, pc}
 109              	.LVL11:
 110              	.L10:
 111              	.LBB4:
  43:SerCmds.c     ****         }
 112              		.loc 1 43 0 discriminator 3
 113 000a 285D     		ldrb	r0, [r5, r4]	@ zero_extendqisi2
 114 000c FFF7FEFF 		bl	UART_WriteTxData
 115              	.LVL12:
  41:SerCmds.c     ****         {
 116              		.loc 1 41 0 discriminator 3
ARM GAS  C:\Users\Dan\AppData\Local\Temp\ccPM49Gc.s 			page 4


 117 0010 0134     		adds	r4, r4, #1
 118              	.LVL13:
 119 0012 E4B2     		uxtb	r4, r4
 120              	.LVL14:
 121 0014 01E0     		b	.L8
 122              	.LVL15:
 123              	.L11:
 124 0016 0546     		mov	r5, r0
 125              	.LBE4:
 126 0018 0424     		movs	r4, #4
 127              	.LVL16:
 128              	.L8:
 129              	.LBB5:
  41:SerCmds.c     ****         {
 130              		.loc 1 41 0 is_stmt 0 discriminator 1
 131 001a 6B78     		ldrb	r3, [r5, #1]	@ zero_extendqisi2
 132 001c 9C42     		cmp	r4, r3
 133 001e F4D9     		bls	.L10
 134              	.LBE5:
  45:SerCmds.c     ****         return 1;
 135              		.loc 1 45 0 is_stmt 1
 136 0020 0D20     		movs	r0, #13
 137 0022 FFF7FEFF 		bl	UART_WriteTxData
 138              	.LVL17:
  46:SerCmds.c     ****     }
 139              		.loc 1 46 0
 140 0026 0120     		movs	r0, #1
  49:SerCmds.c     **** }
 141              		.loc 1 49 0
 142 0028 38BD     		pop	{r3, r4, r5, pc}
 143              		.cfi_endproc
 144              	.LFE64:
 145              		.size	CmdFunctionName2, .-CmdFunctionName2
 146 002a 00BF     		.section	.text.TC_StatusCmd,"ax",%progbits
 147              		.align	2
 148              		.global	TC_StatusCmd
 149              		.thumb
 150              		.thumb_func
 151              		.type	TC_StatusCmd, %function
 152              	TC_StatusCmd:
 153              	.LFB65:
  50:SerCmds.c     **** 
  51:SerCmds.c     **** SER_CMD(TC_StatusCmd)
  52:SerCmds.c     **** {
 154              		.loc 1 52 0
 155              		.cfi_startproc
 156              		@ args = 0, pretend = 0, frame = 0
 157              		@ frame_needed = 0, uses_anonymous_args = 0
 158              	.LVL18:
 159 0000 08B5     		push	{r3, lr}
 160              		.cfi_def_cfa_offset 8
 161              		.cfi_offset 3, -8
 162              		.cfi_offset 14, -4
  53:SerCmds.c     ****     UNUSED_ARG(SerMsg);
  54:SerCmds.c     ****     // get the status
  55:SerCmds.c     ****     uint16 status = ToolStatusQuery();
 163              		.loc 1 55 0
ARM GAS  C:\Users\Dan\AppData\Local\Temp\ccPM49Gc.s 			page 5


 164 0002 FFF7FEFF 		bl	ToolStatusQuery
 165              	.LVL19:
  56:SerCmds.c     ****     // format a serial message to send back to KFLOP
  57:SerCmds.c     ****     SerRespMsg[0] = TC_STATUS_QUERY;
 166              		.loc 1 57 0
 167 0006 0649     		ldr	r1, .L15
 168 0008 0323     		movs	r3, #3
 169 000a 0B70     		strb	r3, [r1]
  58:SerCmds.c     ****     SerRespMsg[1] = (uint8) (status >> 8);  // put the two bytes into the SerRespMsg buffer
 170              		.loc 1 58 0
 171 000c C0F30722 		ubfx	r2, r0, #8, #8
 172 0010 4A70     		strb	r2, [r1, #1]
  59:SerCmds.c     ****     SerRespMsg[2] = (uint8) status;
 173              		.loc 1 59 0
 174 0012 8870     		strb	r0, [r1, #2]
  60:SerCmds.c     ****     SerResponseMsg(3, SerRespMsg);          // send the message
 175              		.loc 1 60 0
 176 0014 1846     		mov	r0, r3
 177              	.LVL20:
 178 0016 FFF7FEFF 		bl	SerResponseMsg
 179              	.LVL21:
  61:SerCmds.c     ****     return 0;
  62:SerCmds.c     **** }
 180              		.loc 1 62 0
 181 001a 0020     		movs	r0, #0
 182 001c 08BD     		pop	{r3, pc}
 183              	.L16:
 184 001e 00BF     		.align	2
 185              	.L15:
 186 0020 00000000 		.word	SerRespMsg
 187              		.cfi_endproc
 188              	.LFE65:
 189              		.size	TC_StatusCmd, .-TC_StatusCmd
 190              		.section	.text.TC_Arm_Cmd,"ax",%progbits
 191              		.align	2
 192              		.global	TC_Arm_Cmd
 193              		.thumb
 194              		.thumb_func
 195              		.type	TC_Arm_Cmd, %function
 196              	TC_Arm_Cmd:
 197              	.LFB66:
  63:SerCmds.c     **** 
  64:SerCmds.c     **** SER_CMD(TC_Arm_Cmd)
  65:SerCmds.c     **** {
 198              		.loc 1 65 0
 199              		.cfi_startproc
 200              		@ args = 0, pretend = 0, frame = 0
 201              		@ frame_needed = 0, uses_anonymous_args = 0
 202              	.LVL22:
 203 0000 08B5     		push	{r3, lr}
 204              		.cfi_def_cfa_offset 8
 205              		.cfi_offset 3, -8
 206              		.cfi_offset 14, -4
 207              	.LVL23:
  66:SerCmds.c     ****     // get the argument
  67:SerCmds.c     ****     uint8 arg = SerMsg[DATA_INDEX];
  68:SerCmds.c     ****     Arm_Cmd(arg);    
ARM GAS  C:\Users\Dan\AppData\Local\Temp\ccPM49Gc.s 			page 6


 208              		.loc 1 68 0
 209 0002 0079     		ldrb	r0, [r0, #4]	@ zero_extendqisi2
 210              	.LVL24:
 211 0004 FFF7FEFF 		bl	Arm_Cmd
 212              	.LVL25:
  69:SerCmds.c     ****     return 0;
  70:SerCmds.c     **** }
 213              		.loc 1 70 0
 214 0008 0020     		movs	r0, #0
 215 000a 08BD     		pop	{r3, pc}
 216              		.cfi_endproc
 217              	.LFE66:
 218              		.size	TC_Arm_Cmd, .-TC_Arm_Cmd
 219              		.section	.text.TC_Carousel_Cmd,"ax",%progbits
 220              		.align	2
 221              		.global	TC_Carousel_Cmd
 222              		.thumb
 223              		.thumb_func
 224              		.type	TC_Carousel_Cmd, %function
 225              	TC_Carousel_Cmd:
 226              	.LFB67:
  71:SerCmds.c     **** 
  72:SerCmds.c     **** SER_CMD(TC_Carousel_Cmd)
  73:SerCmds.c     **** {
 227              		.loc 1 73 0
 228              		.cfi_startproc
 229              		@ args = 0, pretend = 0, frame = 0
 230              		@ frame_needed = 0, uses_anonymous_args = 0
 231              	.LVL26:
 232 0000 08B5     		push	{r3, lr}
 233              		.cfi_def_cfa_offset 8
 234              		.cfi_offset 3, -8
 235              		.cfi_offset 14, -4
 236              	.LVL27:
  74:SerCmds.c     ****     uint8 arg = SerMsg[DATA_INDEX];
  75:SerCmds.c     ****     Carousel_Cmd(arg);
 237              		.loc 1 75 0
 238 0002 0079     		ldrb	r0, [r0, #4]	@ zero_extendqisi2
 239              	.LVL28:
 240 0004 FFF7FEFF 		bl	Carousel_Cmd
 241              	.LVL29:
  76:SerCmds.c     ****     return 0;
  77:SerCmds.c     **** }
 242              		.loc 1 77 0
 243 0008 0020     		movs	r0, #0
 244 000a 08BD     		pop	{r3, pc}
 245              		.cfi_endproc
 246              	.LFE67:
 247              		.size	TC_Carousel_Cmd, .-TC_Carousel_Cmd
 248              		.section	.text.TC_Clamp_Cmd,"ax",%progbits
 249              		.align	2
 250              		.global	TC_Clamp_Cmd
 251              		.thumb
 252              		.thumb_func
 253              		.type	TC_Clamp_Cmd, %function
 254              	TC_Clamp_Cmd:
 255              	.LFB68:
ARM GAS  C:\Users\Dan\AppData\Local\Temp\ccPM49Gc.s 			page 7


  78:SerCmds.c     **** 
  79:SerCmds.c     **** SER_CMD(TC_Clamp_Cmd)
  80:SerCmds.c     **** {
 256              		.loc 1 80 0
 257              		.cfi_startproc
 258              		@ args = 0, pretend = 0, frame = 0
 259              		@ frame_needed = 0, uses_anonymous_args = 0
 260              	.LVL30:
 261 0000 08B5     		push	{r3, lr}
 262              		.cfi_def_cfa_offset 8
 263              		.cfi_offset 3, -8
 264              		.cfi_offset 14, -4
 265              	.LVL31:
  81:SerCmds.c     ****     uint8 arg = SerMsg[DATA_INDEX];
  82:SerCmds.c     ****     Clamp_Cmd(arg);
 266              		.loc 1 82 0
 267 0002 0079     		ldrb	r0, [r0, #4]	@ zero_extendqisi2
 268              	.LVL32:
 269 0004 FFF7FEFF 		bl	Clamp_Cmd
 270              	.LVL33:
  83:SerCmds.c     ****     return 0;
  84:SerCmds.c     **** }
 271              		.loc 1 84 0
 272 0008 0020     		movs	r0, #0
 273 000a 08BD     		pop	{r3, pc}
 274              		.cfi_endproc
 275              	.LFE68:
 276              		.size	TC_Clamp_Cmd, .-TC_Clamp_Cmd
 277              		.section	.text.TC_Home_Cmd,"ax",%progbits
 278              		.align	2
 279              		.global	TC_Home_Cmd
 280              		.thumb
 281              		.thumb_func
 282              		.type	TC_Home_Cmd, %function
 283              	TC_Home_Cmd:
 284              	.LFB69:
  85:SerCmds.c     **** 
  86:SerCmds.c     **** SER_CMD(TC_Home_Cmd)
  87:SerCmds.c     **** {
 285              		.loc 1 87 0
 286              		.cfi_startproc
 287              		@ args = 0, pretend = 0, frame = 0
 288              		@ frame_needed = 0, uses_anonymous_args = 0
 289              	.LVL34:
 290 0000 08B5     		push	{r3, lr}
 291              		.cfi_def_cfa_offset 8
 292              		.cfi_offset 3, -8
 293              		.cfi_offset 14, -4
 294              	.LVL35:
  88:SerCmds.c     ****     uint8 arg = SerMsg[DATA_INDEX];
  89:SerCmds.c     ****     Home_Cmd(arg);
 295              		.loc 1 89 0
 296 0002 0079     		ldrb	r0, [r0, #4]	@ zero_extendqisi2
 297              	.LVL36:
 298 0004 FFF7FEFF 		bl	Home_Cmd
 299              	.LVL37:
  90:SerCmds.c     ****     return 0;
ARM GAS  C:\Users\Dan\AppData\Local\Temp\ccPM49Gc.s 			page 8


  91:SerCmds.c     **** }
 300              		.loc 1 91 0
 301 0008 0020     		movs	r0, #0
 302 000a 08BD     		pop	{r3, pc}
 303              		.cfi_endproc
 304              	.LFE69:
 305              		.size	TC_Home_Cmd, .-TC_Home_Cmd
 306              		.comm	SerRespMsg,32,4
 307              		.text
 308              	.Letext0:
 309              		.file 2 "c:\\program files (x86)\\cypress\\psoc creator\\4.2\\psoc creator\\import\\gnu\\arm\\5.4.
 310              		.file 3 "c:\\program files (x86)\\cypress\\psoc creator\\4.2\\psoc creator\\import\\gnu\\arm\\5.4.
 311              		.file 4 "Generated_Source\\PSoC5/cytypes.h"
 312              		.file 5 "Generated_Source\\PSoC5/core_cm3.h"
 313              		.file 6 "Generated_Source\\PSoC5/UART.h"
 314              		.file 7 "ToolCmds.h"
 315              		.file 8 "Serial.h"