ARM GAS  C:\Users\Dan\AppData\Local\Temp\ccEkSvgg.s 			page 1


   1              		.syntax unified
   2              		.cpu cortex-m3
   3              		.fpu softvfp
   4              		.eabi_attribute 20, 1
   5              		.eabi_attribute 21, 1
   6              		.eabi_attribute 23, 3
   7              		.eabi_attribute 24, 1
   8              		.eabi_attribute 25, 1
   9              		.eabi_attribute 26, 1
  10              		.eabi_attribute 30, 1
  11              		.eabi_attribute 34, 1
  12              		.eabi_attribute 18, 4
  13              		.thumb
  14              		.syntax unified
  15              		.file	"Serial.c"
  16              		.text
  17              	.Ltext0:
  18              		.cfi_sections	.debug_frame
  19              		.section	.text.SerMsgParse,"ax",%progbits
  20              		.align	2
  21              		.global	SerMsgParse
  22              		.thumb
  23              		.thumb_func
  24              		.type	SerMsgParse, %function
  25              	SerMsgParse:
  26              	.LFB65:
  27              		.file 1 "Serial.c"
   1:Serial.c      **** /* ========================================
   2:Serial.c      ****  *
   3:Serial.c      ****  * Copyright YOUR COMPANY, THE YEAR
   4:Serial.c      ****  * All Rights Reserved
   5:Serial.c      ****  * UNPUBLISHED, LICENSED SOFTWARE.
   6:Serial.c      ****  *
   7:Serial.c      ****  * CONFIDENTIAL AND PROPRIETARY INFORMATION
   8:Serial.c      ****  * WHICH IS THE PROPERTY OF your company.
   9:Serial.c      ****  *
  10:Serial.c      ****  * ========================================
  11:Serial.c      **** */
  12:Serial.c      **** #include "Serial.h"
  13:Serial.c      **** #include "project.h"
  14:Serial.c      **** #include "U_HW.h"
  15:Serial.c      **** #include <stdio.h>
  16:Serial.c      **** #include <stdbool.h>
  17:Serial.c      **** #include "Serial_IO.h"
  18:Serial.c      **** #include "SerMessages.h"
  19:Serial.c      **** 
  20:Serial.c      **** 
  21:Serial.c      **** char msgs[50];
  22:Serial.c      **** 
  23:Serial.c      **** uint8 SerMsg[SERIAL_MSG_LEN];
  24:Serial.c      **** 
  25:Serial.c      **** void Serial_Rx(void)
  26:Serial.c      **** {
  27:Serial.c      ****     static uint8 MsgCounter = 0;
  28:Serial.c      ****     static uint8 MsgCnt = 0;
  29:Serial.c      ****     uint8 rc;
  30:Serial.c      ****     if(UART_GetRxBufferSize() != 0)
ARM GAS  C:\Users\Dan\AppData\Local\Temp\ccEkSvgg.s 			page 2


  31:Serial.c      ****     {
  32:Serial.c      ****         rc = UART_ReadRxData();
  33:Serial.c      ****         // use the MsgCounter to manage the message reception / a non-zero MsgCounter means that we
  34:Serial.c      ****         if(MsgCounter == 0)
  35:Serial.c      ****         {
  36:Serial.c      ****             if(rc == MSG_START_CMD)     // check for a command start
  37:Serial.c      ****             {
  38:Serial.c      ****                 MsgCounter = 1;
  39:Serial.c      ****             }
  40:Serial.c      ****         }
  41:Serial.c      ****        else if (MsgCounter == 1)
  42:Serial.c      ****         {
  43:Serial.c      ****             MsgCnt = rc;    // get the message count - first byte in the message
  44:Serial.c      ****             if(MsgCnt >= SERIAL_MSG_LEN)
  45:Serial.c      ****             {   
  46:Serial.c      **** 
  47:Serial.c      ****                 MsgCounter = 0; // MsgCount too big! restart the message - reset the message counte
  48:Serial.c      ****             } 
  49:Serial.c      ****             else
  50:Serial.c      ****             {
  51:Serial.c      ****                 SerMsg[MsgCounter++] = rc;
  52:Serial.c      ****             }
  53:Serial.c      ****          }   
  54:Serial.c      ****         else if(MsgCounter < MsgCnt)
  55:Serial.c      ****         {
  56:Serial.c      ****             SerMsg[MsgCounter++] = rc;  // get the message content and put it in the SerMsg buffer
  57:Serial.c      ****         }
  58:Serial.c      ****         else if (MsgCounter == MsgCnt)
  59:Serial.c      ****         {
  60:Serial.c      ****             SerMsg[MsgCounter] = rc;    // get the checksum
  61:Serial.c      ****             if(SerMsgParse() == false)  // Parse the message
  62:Serial.c      ****             {
  63:Serial.c      ****             }
  64:Serial.c      ****             MsgCounter = 0; // reset the Message Counter 
  65:Serial.c      ****         }
  66:Serial.c      ****         else
  67:Serial.c      ****         {
  68:Serial.c      ****             MsgCounter = 0;
  69:Serial.c      ****         }
  70:Serial.c      ****     }
  71:Serial.c      **** }
  72:Serial.c      **** 
  73:Serial.c      **** bool SerMsgParse(void)
  74:Serial.c      **** {
  28              		.loc 1 74 0
  29              		.cfi_startproc
  30              		@ args = 0, pretend = 0, frame = 0
  31              		@ frame_needed = 0, uses_anonymous_args = 0
  32 0000 10B5     		push	{r4, lr}
  33              		.cfi_def_cfa_offset 8
  34              		.cfi_offset 4, -8
  35              		.cfi_offset 14, -4
  36              	.LVL0:
  75:Serial.c      ****     uint8 checksum = 0;
  76:Serial.c      ****     uint8 MsgLen = SerMsg[CNT_INDEX];   // get the message length
  37              		.loc 1 76 0
  38 0002 1E4B     		ldr	r3, .L12
ARM GAS  C:\Users\Dan\AppData\Local\Temp\ccEkSvgg.s 			page 3


  39 0004 5878     		ldrb	r0, [r3, #1]	@ zero_extendqisi2
  40              	.LVL1:
  41              	.LBB2:
  77:Serial.c      ****     // check the checksum
  78:Serial.c      ****     for(uint8 i = 1; i < MsgLen; i++)
  42              		.loc 1 78 0
  43 0006 0123     		movs	r3, #1
  44              	.LBE2:
  75:Serial.c      ****     uint8 checksum = 0;
  45              		.loc 1 75 0
  46 0008 0022     		movs	r2, #0
  47              	.LBB3:
  48              		.loc 1 78 0
  49 000a 05E0     		b	.L2
  50              	.LVL2:
  51              	.L3:
  79:Serial.c      ****     {
  80:Serial.c      ****         checksum += SerMsg[i];  // sum up the message
  52              		.loc 1 80 0 discriminator 3
  53 000c 1B49     		ldr	r1, .L12
  54 000e C95C     		ldrb	r1, [r1, r3]	@ zero_extendqisi2
  55 0010 0A44     		add	r2, r2, r1
  56              	.LVL3:
  57 0012 D2B2     		uxtb	r2, r2
  58              	.LVL4:
  78:Serial.c      ****     {
  59              		.loc 1 78 0 discriminator 3
  60 0014 0133     		adds	r3, r3, #1
  61              	.LVL5:
  62 0016 DBB2     		uxtb	r3, r3
  63              	.LVL6:
  64              	.L2:
  78:Serial.c      ****     {
  65              		.loc 1 78 0 is_stmt 0 discriminator 1
  66 0018 8342     		cmp	r3, r0
  67 001a F7D3     		bcc	.L3
  68              	.LBE3:
  81:Serial.c      ****     }
  82:Serial.c      ****     checksum = ~checksum;
  69              		.loc 1 82 0 is_stmt 1
  70 001c D243     		mvns	r2, r2
  71              	.LVL7:
  72 001e D2B2     		uxtb	r2, r2
  73              	.LVL8:
  83:Serial.c      ****     if(SerMsg[MsgLen] != checksum)   
  74              		.loc 1 83 0
  75 0020 164B     		ldr	r3, .L12
  76              	.LVL9:
  77 0022 1B5C     		ldrb	r3, [r3, r0]	@ zero_extendqisi2
  78 0024 9A42     		cmp	r2, r3
  79 0026 0AD0     		beq	.L4
  84:Serial.c      ****     {
  85:Serial.c      ****         // if the checksum is wrong then return false
  86:Serial.c      ****         sprintf(msgs, "Bad CheckSum = %X Should Be %X\r", checksum, ~(SerMsg[MsgLen])); 
  80              		.loc 1 86 0
  81 0028 154C     		ldr	r4, .L12+4
  82 002a DB43     		mvns	r3, r3
ARM GAS  C:\Users\Dan\AppData\Local\Temp\ccEkSvgg.s 			page 4


  83 002c 1549     		ldr	r1, .L12+8
  84 002e 2046     		mov	r0, r4
  85              	.LVL10:
  86 0030 FFF7FEFF 		bl	sprintf
  87              	.LVL11:
  87:Serial.c      ****         PutStr(msgs);
  88              		.loc 1 87 0
  89 0034 2046     		mov	r0, r4
  90 0036 FFF7FEFF 		bl	USB_PutString
  91              	.LVL12:
  88:Serial.c      ****         return false;
  92              		.loc 1 88 0
  93 003a 0020     		movs	r0, #0
  94 003c 10BD     		pop	{r4, pc}
  95              	.LVL13:
  96              	.L4:
  89:Serial.c      ****     }
  90:Serial.c      ****     if(SerMsg[ADDR_INDEX] == MY_SLAVE_ADDR)
  97              		.loc 1 90 0
  98 003e 0F4B     		ldr	r3, .L12
  99 0040 9B78     		ldrb	r3, [r3, #2]	@ zero_extendqisi2
 100 0042 022B     		cmp	r3, #2
 101 0044 12D0     		beq	.L9
  91:Serial.c      ****     {
  92:Serial.c      ****         for(uint8 i = 0; i < NUMOFSERCMDS; i++)   // scan through the command list
  93:Serial.c      ****         {
  94:Serial.c      ****             if(SerMsg[CMD_INDEX] == SerCmdParseTable[i].Cmd)
  95:Serial.c      ****             {
  96:Serial.c      ****                 if( SerCmdParseTable[i].func(SerMsg) == 0)
  97:Serial.c      ****                 {
  98:Serial.c      ****                     return true;
  99:Serial.c      ****                 }
 100:Serial.c      ****             }
 101:Serial.c      ****         }
 102:Serial.c      ****         return true;
 103:Serial.c      ****     }
 104:Serial.c      ****     return false;
 102              		.loc 1 104 0
 103 0046 0020     		movs	r0, #0
 104              	.LVL14:
 105 0048 10BD     		pop	{r4, pc}
 106              	.LVL15:
 107              	.L8:
 108              	.LBB4:
  94:Serial.c      ****             {
 109              		.loc 1 94 0
 110 004a 0C4B     		ldr	r3, .L12
 111 004c DA78     		ldrb	r2, [r3, #3]	@ zero_extendqisi2
 112 004e 0E4B     		ldr	r3, .L12+12
 113 0050 13F83430 		ldrb	r3, [r3, r4, lsl #3]	@ zero_extendqisi2
 114 0054 9A42     		cmp	r2, r3
 115 0056 06D1     		bne	.L7
  96:Serial.c      ****                 {
 116              		.loc 1 96 0
 117 0058 0B4B     		ldr	r3, .L12+12
 118 005a 03EBC403 		add	r3, r3, r4, lsl #3
 119 005e 5B68     		ldr	r3, [r3, #4]
ARM GAS  C:\Users\Dan\AppData\Local\Temp\ccEkSvgg.s 			page 5


 120 0060 0648     		ldr	r0, .L12
 121 0062 9847     		blx	r3
 122              	.LVL16:
 123 0064 38B1     		cbz	r0, .L10
 124              	.L7:
  92:Serial.c      ****         {
 125              		.loc 1 92 0 discriminator 2
 126 0066 0134     		adds	r4, r4, #1
 127              	.LVL17:
 128 0068 E4B2     		uxtb	r4, r4
 129              	.LVL18:
 130 006a 00E0     		b	.L6
 131              	.LVL19:
 132              	.L9:
 133              	.LBE4:
 134 006c 0024     		movs	r4, #0
 135              	.LVL20:
 136              	.L6:
 137              	.LBB5:
  92:Serial.c      ****         {
 138              		.loc 1 92 0 is_stmt 0 discriminator 1
 139 006e 062C     		cmp	r4, #6
 140 0070 EBD9     		bls	.L8
 141              	.LBE5:
 102:Serial.c      ****     }
 142              		.loc 1 102 0 is_stmt 1
 143 0072 0120     		movs	r0, #1
 144              	.LBB6:
 145 0074 10BD     		pop	{r4, pc}
 146              	.LVL21:
 147              	.L10:
  98:Serial.c      ****                 }
 148              		.loc 1 98 0
 149 0076 0120     		movs	r0, #1
 150              	.LBE6:
 105:Serial.c      **** }
 151              		.loc 1 105 0
 152 0078 10BD     		pop	{r4, pc}
 153              	.LVL22:
 154              	.L13:
 155 007a 00BF     		.align	2
 156              	.L12:
 157 007c 00000000 		.word	SerMsg
 158 0080 00000000 		.word	msgs
 159 0084 00000000 		.word	.LC0
 160 0088 00000000 		.word	.LANCHOR0
 161              		.cfi_endproc
 162              	.LFE65:
 163              		.size	SerMsgParse, .-SerMsgParse
 164              		.section	.text.Serial_Rx,"ax",%progbits
 165              		.align	2
 166              		.global	Serial_Rx
 167              		.thumb
 168              		.thumb_func
 169              		.type	Serial_Rx, %function
 170              	Serial_Rx:
 171              	.LFB64:
ARM GAS  C:\Users\Dan\AppData\Local\Temp\ccEkSvgg.s 			page 6


  26:Serial.c      ****     static uint8 MsgCounter = 0;
 172              		.loc 1 26 0
 173              		.cfi_startproc
 174              		@ args = 0, pretend = 0, frame = 0
 175              		@ frame_needed = 0, uses_anonymous_args = 0
 176 0000 08B5     		push	{r3, lr}
 177              		.cfi_def_cfa_offset 8
 178              		.cfi_offset 3, -8
 179              		.cfi_offset 14, -4
  30:Serial.c      ****     {
 180              		.loc 1 30 0
 181 0002 FFF7FEFF 		bl	UART_GetRxBufferSize
 182              	.LVL23:
 183 0006 0028     		cmp	r0, #0
 184 0008 31D0     		beq	.L14
  32:Serial.c      ****         // use the MsgCounter to manage the message reception / a non-zero MsgCounter means that we
 185              		.loc 1 32 0
 186 000a FFF7FEFF 		bl	UART_ReadRxData
 187              	.LVL24:
  34:Serial.c      ****         {
 188              		.loc 1 34 0
 189 000e 184B     		ldr	r3, .L22
 190 0010 1B78     		ldrb	r3, [r3]	@ zero_extendqisi2
 191 0012 2BB9     		cbnz	r3, .L16
  36:Serial.c      ****             {
 192              		.loc 1 36 0
 193 0014 E128     		cmp	r0, #225
 194 0016 2AD1     		bne	.L14
  38:Serial.c      ****             }
 195              		.loc 1 38 0
 196 0018 0122     		movs	r2, #1
 197 001a 154B     		ldr	r3, .L22
 198 001c 1A70     		strb	r2, [r3]
 199 001e 08BD     		pop	{r3, pc}
 200              	.L16:
  41:Serial.c      ****         {
 201              		.loc 1 41 0
 202 0020 012B     		cmp	r3, #1
 203 0022 0DD1     		bne	.L17
  43:Serial.c      ****             if(MsgCnt >= SERIAL_MSG_LEN)
 204              		.loc 1 43 0
 205 0024 124A     		ldr	r2, .L22
 206 0026 5070     		strb	r0, [r2, #1]
  44:Serial.c      ****             {   
 207              		.loc 1 44 0
 208 0028 1F28     		cmp	r0, #31
 209 002a 03D9     		bls	.L18
  47:Serial.c      ****             } 
 210              		.loc 1 47 0
 211 002c 0022     		movs	r2, #0
 212 002e 104B     		ldr	r3, .L22
 213 0030 1A70     		strb	r2, [r3]
 214 0032 08BD     		pop	{r3, pc}
 215              	.L18:
  51:Serial.c      ****             }
 216              		.loc 1 51 0
 217 0034 591C     		adds	r1, r3, #1
ARM GAS  C:\Users\Dan\AppData\Local\Temp\ccEkSvgg.s 			page 7


 218 0036 0E4A     		ldr	r2, .L22
 219 0038 1170     		strb	r1, [r2]
 220 003a 0E4A     		ldr	r2, .L22+4
 221 003c D054     		strb	r0, [r2, r3]
 222 003e 08BD     		pop	{r3, pc}
 223              	.L17:
  54:Serial.c      ****         {
 224              		.loc 1 54 0
 225 0040 0B4A     		ldr	r2, .L22
 226 0042 5278     		ldrb	r2, [r2, #1]	@ zero_extendqisi2
 227 0044 9342     		cmp	r3, r2
 228 0046 05D2     		bcs	.L19
  56:Serial.c      ****         }
 229              		.loc 1 56 0
 230 0048 591C     		adds	r1, r3, #1
 231 004a 094A     		ldr	r2, .L22
 232 004c 1170     		strb	r1, [r2]
 233 004e 094A     		ldr	r2, .L22+4
 234 0050 D054     		strb	r0, [r2, r3]
 235 0052 08BD     		pop	{r3, pc}
 236              	.L19:
  58:Serial.c      ****         {
 237              		.loc 1 58 0
 238 0054 9342     		cmp	r3, r2
 239 0056 07D1     		bne	.L20
  60:Serial.c      ****             if(SerMsgParse() == false)  // Parse the message
 240              		.loc 1 60 0
 241 0058 064A     		ldr	r2, .L22+4
 242 005a D054     		strb	r0, [r2, r3]
  61:Serial.c      ****             {
 243              		.loc 1 61 0
 244 005c FFF7FEFF 		bl	SerMsgParse
 245              	.LVL25:
  64:Serial.c      ****         }
 246              		.loc 1 64 0
 247 0060 0022     		movs	r2, #0
 248 0062 034B     		ldr	r3, .L22
 249 0064 1A70     		strb	r2, [r3]
 250 0066 08BD     		pop	{r3, pc}
 251              	.LVL26:
 252              	.L20:
  68:Serial.c      ****         }
 253              		.loc 1 68 0
 254 0068 0022     		movs	r2, #0
 255 006a 014B     		ldr	r3, .L22
 256 006c 1A70     		strb	r2, [r3]
 257              	.LVL27:
 258              	.L14:
 259 006e 08BD     		pop	{r3, pc}
 260              	.L23:
 261              		.align	2
 262              	.L22:
 263 0070 00000000 		.word	.LANCHOR1
 264 0074 00000000 		.word	SerMsg
 265              		.cfi_endproc
 266              	.LFE64:
 267              		.size	Serial_Rx, .-Serial_Rx
ARM GAS  C:\Users\Dan\AppData\Local\Temp\ccEkSvgg.s 			page 8


 268              		.section	.text.SerialStartup,"ax",%progbits
 269              		.align	2
 270              		.global	SerialStartup
 271              		.thumb
 272              		.thumb_func
 273              		.type	SerialStartup, %function
 274              	SerialStartup:
 275              	.LFB66:
 106:Serial.c      **** 
 107:Serial.c      **** 
 108:Serial.c      **** void SerialStartup(void)
 109:Serial.c      **** {
 276              		.loc 1 109 0
 277              		.cfi_startproc
 278              		@ args = 0, pretend = 0, frame = 0
 279              		@ frame_needed = 0, uses_anonymous_args = 0
 280              		@ link register save eliminated.
 281 0000 7047     		bx	lr
 282              		.cfi_endproc
 283              	.LFE66:
 284              		.size	SerialStartup, .-SerialStartup
 285 0002 00BF     		.section	.text.SerResponseMsg,"ax",%progbits
 286              		.align	2
 287              		.global	SerResponseMsg
 288              		.thumb
 289              		.thumb_func
 290              		.type	SerResponseMsg, %function
 291              	SerResponseMsg:
 292              	.LFB67:
 110:Serial.c      ****  //   SER_PutStr((uint8 *)"\rSerial Is Working!\r");
 111:Serial.c      **** }
 112:Serial.c      **** 
 113:Serial.c      **** 
 114:Serial.c      **** void SerResponseMsg(uint8 cnt, uint8 *msg)
 115:Serial.c      **** {
 293              		.loc 1 115 0
 294              		.cfi_startproc
 295              		@ args = 0, pretend = 0, frame = 0
 296              		@ frame_needed = 0, uses_anonymous_args = 0
 297              	.LVL28:
 298              		.loc 1 115 0
 299 0000 F8B5     		push	{r3, r4, r5, r6, r7, lr}
 300              		.cfi_def_cfa_offset 24
 301              		.cfi_offset 3, -24
 302              		.cfi_offset 4, -20
 303              		.cfi_offset 5, -16
 304              		.cfi_offset 6, -12
 305              		.cfi_offset 7, -8
 306              		.cfi_offset 14, -4
 307 0002 0646     		mov	r6, r0
 308 0004 0F46     		mov	r7, r1
 309              	.LVL29:
 116:Serial.c      ****     uint8 checksum = 0;
 117:Serial.c      ****     // assemble the return message
 118:Serial.c      ****     SER_PutChar(MSG_RESP_CMD);
 310              		.loc 1 118 0
 311 0006 E220     		movs	r0, #226
ARM GAS  C:\Users\Dan\AppData\Local\Temp\ccEkSvgg.s 			page 9


 312              	.LVL30:
 313 0008 FFF7FEFF 		bl	UART_WriteTxData
 314              	.LVL31:
 119:Serial.c      ****     checksum = cnt + SER_MSG_OVERHEAD;
 120:Serial.c      ****     SER_PutChar(cnt + SER_MSG_OVERHEAD);
 315              		.loc 1 120 0
 316 000c F01C     		adds	r0, r6, #3
 317 000e C0B2     		uxtb	r0, r0
 318 0010 FFF7FEFF 		bl	UART_WriteTxData
 319              	.LVL32:
 121:Serial.c      ****     checksum += MY_SLAVE_ADDR;
 320              		.loc 1 121 0
 321 0014 751D     		adds	r5, r6, #5
 322 0016 EDB2     		uxtb	r5, r5
 323              	.LVL33:
 122:Serial.c      ****     SER_PutChar(MY_SLAVE_ADDR);
 324              		.loc 1 122 0
 325 0018 0220     		movs	r0, #2
 326 001a FFF7FEFF 		bl	UART_WriteTxData
 327              	.LVL34:
 328              	.LBB7:
 123:Serial.c      ****     for(uint8 i = 0; i < cnt; i++)
 329              		.loc 1 123 0
 330 001e 0024     		movs	r4, #0
 331 0020 06E0     		b	.L26
 332              	.LVL35:
 333              	.L27:
 124:Serial.c      ****     {
 125:Serial.c      ****         checksum += msg[i];     // send the data
 334              		.loc 1 125 0 discriminator 3
 335 0022 385D     		ldrb	r0, [r7, r4]	@ zero_extendqisi2
 336 0024 0544     		add	r5, r5, r0
 337              	.LVL36:
 338 0026 EDB2     		uxtb	r5, r5
 339              	.LVL37:
 126:Serial.c      ****         SER_PutChar(msg[i]);
 340              		.loc 1 126 0 discriminator 3
 341 0028 FFF7FEFF 		bl	UART_WriteTxData
 342              	.LVL38:
 123:Serial.c      ****     for(uint8 i = 0; i < cnt; i++)
 343              		.loc 1 123 0 discriminator 3
 344 002c 0134     		adds	r4, r4, #1
 345              	.LVL39:
 346 002e E4B2     		uxtb	r4, r4
 347              	.LVL40:
 348              	.L26:
 123:Serial.c      ****     for(uint8 i = 0; i < cnt; i++)
 349              		.loc 1 123 0 is_stmt 0 discriminator 1
 350 0030 B442     		cmp	r4, r6
 351 0032 F6D3     		bcc	.L27
 352              	.LBE7:
 127:Serial.c      ****     }
 128:Serial.c      ****     SER_PutChar(~(checksum));   // followed by the checksum.
 353              		.loc 1 128 0 is_stmt 1
 354 0034 E843     		mvns	r0, r5
 355 0036 C0B2     		uxtb	r0, r0
 356 0038 FFF7FEFF 		bl	UART_WriteTxData
ARM GAS  C:\Users\Dan\AppData\Local\Temp\ccEkSvgg.s 			page 10


 357              	.LVL41:
 358 003c F8BD     		pop	{r3, r4, r5, r6, r7, pc}
 359              		.cfi_endproc
 360              	.LFE67:
 361              		.size	SerResponseMsg, .-SerResponseMsg
 362              		.comm	SerMsg,32,4
 363              		.comm	msgs,50,4
 364              		.global	SerCmdParseTable
 365 003e 00BF     		.section	.rodata
 366              		.align	2
 367              		.set	.LANCHOR0,. + 0
 368              		.type	SerCmdParseTable, %object
 369              		.size	SerCmdParseTable, 56
 370              	SerCmdParseTable:
 371 0000 01       		.byte	1
 372 0001 000000   		.space	3
 373 0004 00000000 		.word	CmdFunctionName1
 374 0008 02       		.byte	2
 375 0009 000000   		.space	3
 376 000c 00000000 		.word	CmdFunctionName2
 377 0010 03       		.byte	3
 378 0011 000000   		.space	3
 379 0014 00000000 		.word	TC_StatusCmd
 380 0018 04       		.byte	4
 381 0019 000000   		.space	3
 382 001c 00000000 		.word	TC_Arm_Cmd
 383 0020 05       		.byte	5
 384 0021 000000   		.space	3
 385 0024 00000000 		.word	TC_Carousel_Cmd
 386 0028 06       		.byte	6
 387 0029 000000   		.space	3
 388 002c 00000000 		.word	TC_Clamp_Cmd
 389 0030 07       		.byte	7
 390 0031 000000   		.space	3
 391 0034 00000000 		.word	TC_Home_Cmd
 392              		.section	.rodata.str1.4,"aMS",%progbits,1
 393              		.align	2
 394              	.LC0:
 395 0000 42616420 		.ascii	"Bad CheckSum = %X Should Be %X\015\000"
 395      43686563 
 395      6B53756D 
 395      203D2025 
 395      58205368 
 396              		.bss
 397              		.set	.LANCHOR1,. + 0
 398              		.type	MsgCounter.7522, %object
 399              		.size	MsgCounter.7522, 1
 400              	MsgCounter.7522:
 401 0000 00       		.space	1
 402              		.type	MsgCnt.7523, %object
 403              		.size	MsgCnt.7523, 1
 404              	MsgCnt.7523:
 405 0001 00       		.space	1
 406              		.text
 407              	.Letext0:
 408              		.file 2 "c:\\program files (x86)\\cypress\\psoc creator\\4.2\\psoc creator\\import\\gnu\\arm\\5.4.
 409              		.file 3 "c:\\program files (x86)\\cypress\\psoc creator\\4.2\\psoc creator\\import\\gnu\\arm\\5.4.
ARM GAS  C:\Users\Dan\AppData\Local\Temp\ccEkSvgg.s 			page 11


 410              		.file 4 "Generated_Source\\PSoC5/cytypes.h"
 411              		.file 5 "Generated_Source\\PSoC5/core_cm3.h"
 412              		.file 6 "SerMessages.h"
 413              		.file 7 "c:\\program files (x86)\\cypress\\psoc creator\\4.2\\psoc creator\\import\\gnu\\arm\\5.4.
 414              		.file 8 "U_HW.h"
 415              		.file 9 "Generated_Source\\PSoC5/UART.h"