ARM GAS  C:\Users\Dan\AppData\Local\Temp\ccqx8Gun.s 			page 1


   1              		.syntax unified
   2              		.cpu cortex-m3
   3              		.fpu softvfp
   4              		.eabi_attribute 20, 1
   5              		.eabi_attribute 21, 1
   6              		.eabi_attribute 23, 3
   7              		.eabi_attribute 24, 1
   8              		.eabi_attribute 25, 1
   9              		.eabi_attribute 26, 1
  10              		.eabi_attribute 30, 1
  11              		.eabi_attribute 34, 1
  12              		.eabi_attribute 18, 4
  13              		.thumb
  14              		.syntax unified
  15              		.file	"ToolCmds.c"
  16              		.text
  17              	.Ltext0:
  18              		.cfi_sections	.debug_frame
  19              		.section	.text.ToolStatusQuery,"ax",%progbits
  20              		.align	2
  21              		.global	ToolStatusQuery
  22              		.thumb
  23              		.thumb_func
  24              		.type	ToolStatusQuery, %function
  25              	ToolStatusQuery:
  26              	.LFB64:
  27              		.file 1 "ToolCmds.c"
   1:ToolCmds.c    **** /* ========================================
   2:ToolCmds.c    ****  *
   3:ToolCmds.c    ****  * Copyright YOUR COMPANY, THE YEAR
   4:ToolCmds.c    ****  * All Rights Reserved
   5:ToolCmds.c    ****  * UNPUBLISHED, LICENSED SOFTWARE.
   6:ToolCmds.c    ****  *
   7:ToolCmds.c    ****  * CONFIDENTIAL AND PROPRIETARY INFORMATION
   8:ToolCmds.c    ****  * WHICH IS THE PROPERTY OF your company.
   9:ToolCmds.c    ****  *
  10:ToolCmds.c    ****  * ========================================
  11:ToolCmds.c    **** */
  12:ToolCmds.c    **** 
  13:ToolCmds.c    **** #include "ToolCmds.h"
  14:ToolCmds.c    **** #include "project.h"
  15:ToolCmds.c    **** #include "Processes.h"
  16:ToolCmds.c    **** #include "State_Machine.h"
  17:ToolCmds.c    **** #include "U_HW.h"
  18:ToolCmds.c    **** 
  19:ToolCmds.c    **** #include "stdio.h"
  20:ToolCmds.c    **** 
  21:ToolCmds.c    **** extern func_ptr TC_SM;
  22:ToolCmds.c    **** extern uint8 TC_STATE;
  23:ToolCmds.c    **** 
  24:ToolCmds.c    **** // char t_msg[32];
  25:ToolCmds.c    **** 
  26:ToolCmds.c    **** // ToolStatusQuery - returns the status of the tool changer
  27:ToolCmds.c    **** uint16 ToolStatusQuery(void)
  28:ToolCmds.c    **** {
  28              		.loc 1 28 0
  29              		.cfi_startproc
ARM GAS  C:\Users\Dan\AppData\Local\Temp\ccqx8Gun.s 			page 2


  30              		@ args = 0, pretend = 0, frame = 0
  31              		@ frame_needed = 0, uses_anonymous_args = 0
  32 0000 10B5     		push	{r4, lr}
  33              		.cfi_def_cfa_offset 8
  34              		.cfi_offset 4, -8
  35              		.cfi_offset 14, -4
  36              	.LVL0:
  29:ToolCmds.c    ****     uint16 status = 0;
  30:ToolCmds.c    ****     if(TC_STATE == TC_STATE_FAULT) status = (1 << TIMEOUT_FAULT_POS);           // in fault state
  37              		.loc 1 30 0
  38 0002 254B     		ldr	r3, .L14
  39 0004 1B78     		ldrb	r3, [r3]	@ zero_extendqisi2
  40 0006 0B2B     		cmp	r3, #11
  41 0008 01D0     		beq	.L12
  29:ToolCmds.c    ****     uint16 status = 0;
  42              		.loc 1 29 0
  43 000a 0024     		movs	r4, #0
  44 000c 01E0     		b	.L2
  45              	.L12:
  46              		.loc 1 30 0
  47 000e 4FF48044 		mov	r4, #16384
  48              	.L2:
  49              	.LVL1:
  31:ToolCmds.c    ****     if((FAULT_PORT & Pin_ESTOP_MASK) == 0) status |= (1 << ESTOP_STATUS_POS);   // in ESTOP conditi
  50              		.loc 1 31 0
  51 0012 224B     		ldr	r3, .L14+4
  52 0014 1B78     		ldrb	r3, [r3]	@ zero_extendqisi2
  53 0016 13F0200F 		tst	r3, #32
  54 001a 01D1     		bne	.L3
  55              		.loc 1 31 0 is_stmt 0 discriminator 1
  56 001c 44F40054 		orr	r4, r4, #8192
  57              	.LVL2:
  58              	.L3:
  32:ToolCmds.c    ****     if((FAULT_PORT & Pin_V_Mon2_MASK) == 0) status |= (1 << V24_STATUS_POS);    // 24V under voltag
  59              		.loc 1 32 0 is_stmt 1
  60 0020 1E4B     		ldr	r3, .L14+4
  61 0022 1B78     		ldrb	r3, [r3]	@ zero_extendqisi2
  62 0024 13F0040F 		tst	r3, #4
  63 0028 01D1     		bne	.L4
  64              		.loc 1 32 0 is_stmt 0 discriminator 1
  65 002a 44F48054 		orr	r4, r4, #4096
  66              	.LVL3:
  67              	.L4:
  33:ToolCmds.c    ****     if((FAULT_PORT & Pin_AC_Mon_MASK) != 0) status |= (1 << VAC_STATUS_POS);    // No AC fault
  68              		.loc 1 33 0 is_stmt 1
  69 002e 1B4B     		ldr	r3, .L14+4
  70 0030 1B78     		ldrb	r3, [r3]	@ zero_extendqisi2
  71 0032 13F0080F 		tst	r3, #8
  72 0036 01D0     		beq	.L5
  73              		.loc 1 33 0 is_stmt 0 discriminator 1
  74 0038 44F40064 		orr	r4, r4, #2048
  75              	.LVL4:
  76              	.L5:
  34:ToolCmds.c    ****     if((SENSE_PORT & Pin_Tool_Unclamped_MASK) == 0) status |= (1 << UNCLAMP_STATUS_POS);    // tool
  77              		.loc 1 34 0 is_stmt 1
  78 003c 184B     		ldr	r3, .L14+8
  79 003e 1B78     		ldrb	r3, [r3]	@ zero_extendqisi2
ARM GAS  C:\Users\Dan\AppData\Local\Temp\ccqx8Gun.s 			page 3


  80 0040 13F0020F 		tst	r3, #2
  81 0044 01D1     		bne	.L6
  82              		.loc 1 34 0 is_stmt 0 discriminator 1
  83 0046 44F48064 		orr	r4, r4, #1024
  84              	.LVL5:
  85              	.L6:
  35:ToolCmds.c    ****     if((SENSE_PORT & Pin_Tool_Clamped_MASK) == 0) status |= (1 << CLAMP_STATUS_POS);        // tool
  86              		.loc 1 35 0 is_stmt 1
  87 004a 154B     		ldr	r3, .L14+8
  88 004c 1B78     		ldrb	r3, [r3]	@ zero_extendqisi2
  89 004e 13F0080F 		tst	r3, #8
  90 0052 01D1     		bne	.L7
  91              		.loc 1 35 0 is_stmt 0 discriminator 1
  92 0054 44F40074 		orr	r4, r4, #512
  93              	.LVL6:
  94              	.L7:
  36:ToolCmds.c    ****     if((SENSE_PORT & Pin_Tool_Arm_Out_MASK) == 0) status |= (1 << ARM_OUT_STATUS_POS);      // tool
  95              		.loc 1 36 0 is_stmt 1
  96 0058 114B     		ldr	r3, .L14+8
  97 005a 1B78     		ldrb	r3, [r3]	@ zero_extendqisi2
  98 005c 13F0200F 		tst	r3, #32
  99 0060 01D1     		bne	.L8
 100              		.loc 1 36 0 is_stmt 0 discriminator 1
 101 0062 44F48074 		orr	r4, r4, #256
 102              	.LVL7:
 103              	.L8:
  37:ToolCmds.c    ****     if((SENSE_PORT & Pin_Tool_Arm_In_MASK) == 0) status |= (1 << ARM_IN_STATUS_POS);        // tool
 104              		.loc 1 37 0 is_stmt 1
 105 0066 0E4B     		ldr	r3, .L14+8
 106 0068 1B78     		ldrb	r3, [r3]	@ zero_extendqisi2
 107 006a 13F0800F 		tst	r3, #128
 108 006e 01D1     		bne	.L9
 109              		.loc 1 37 0 is_stmt 0 discriminator 1
 110 0070 44F08004 		orr	r4, r4, #128
 111              	.LVL8:
 112              	.L9:
  38:ToolCmds.c    ****     if(((SENSE_PORT & Pin_Tool_1_MASK) == 0) || ((SENSE_PORT & Pin_Tool_Count_MASK) == 0)) status |
 113              		.loc 1 38 0 is_stmt 1
 114 0074 0A4B     		ldr	r3, .L14+8
 115 0076 1B78     		ldrb	r3, [r3]	@ zero_extendqisi2
 116 0078 13F0010F 		tst	r3, #1
 117 007c 04D0     		beq	.L10
 118              		.loc 1 38 0 is_stmt 0 discriminator 2
 119 007e 084B     		ldr	r3, .L14+8
 120 0080 1B78     		ldrb	r3, [r3]	@ zero_extendqisi2
 121 0082 13F0040F 		tst	r3, #4
 122 0086 01D1     		bne	.L11
 123              	.L10:
 124              		.loc 1 38 0 discriminator 3
 125 0088 44F04004 		orr	r4, r4, #64
 126              	.LVL9:
 127              	.L11:
  39:ToolCmds.c    ****     status |= ((uint16)(Get_Current_Tool()) & 0x3f);
 128              		.loc 1 39 0 is_stmt 1
 129 008c FFF7FEFF 		bl	Get_Current_Tool
 130              	.LVL10:
 131 0090 00F03F00 		and	r0, r0, #63
ARM GAS  C:\Users\Dan\AppData\Local\Temp\ccqx8Gun.s 			page 4


 132              	.LVL11:
  40:ToolCmds.c    ****     return status;
  41:ToolCmds.c    **** }
 133              		.loc 1 41 0
 134 0094 2043     		orrs	r0, r0, r4
 135              	.LVL12:
 136 0096 10BD     		pop	{r4, pc}
 137              	.L15:
 138              		.align	2
 139              	.L14:
 140 0098 00000000 		.word	TC_STATE
 141 009c 11510040 		.word	1073762577
 142 00a0 01510040 		.word	1073762561
 143              		.cfi_endproc
 144              	.LFE64:
 145              		.size	ToolStatusQuery, .-ToolStatusQuery
 146              		.section	.text.Arm_Cmd,"ax",%progbits
 147              		.align	2
 148              		.global	Arm_Cmd
 149              		.thumb
 150              		.thumb_func
 151              		.type	Arm_Cmd, %function
 152              	Arm_Cmd:
 153              	.LFB65:
  42:ToolCmds.c    **** 
  43:ToolCmds.c    **** // move Arm Command - 0 = no motion, 1 = back, 2 = out
  44:ToolCmds.c    **** void Arm_Cmd(uint8 arg)
  45:ToolCmds.c    **** {
 154              		.loc 1 45 0
 155              		.cfi_startproc
 156              		@ args = 0, pretend = 0, frame = 0
 157              		@ frame_needed = 0, uses_anonymous_args = 0
 158              	.LVL13:
 159 0000 10B5     		push	{r4, lr}
 160              		.cfi_def_cfa_offset 8
 161              		.cfi_offset 4, -8
 162              		.cfi_offset 14, -4
 163 0002 0446     		mov	r4, r0
  46:ToolCmds.c    ****     // make sure not at fault
  47:ToolCmds.c    ****     if(In_Fault() == 1)
 164              		.loc 1 47 0
 165 0004 FFF7FEFF 		bl	In_Fault
 166              	.LVL14:
 167 0008 0128     		cmp	r0, #1
 168 000a 03D1     		bne	.L17
  48:ToolCmds.c    ****     {
  49:ToolCmds.c    ****         TC_SM = &TC_Fault;
 169              		.loc 1 49 0
 170 000c 214A     		ldr	r2, .L23
 171 000e 224B     		ldr	r3, .L23+4
 172 0010 1A60     		str	r2, [r3]
 173 0012 10BD     		pop	{r4, pc}
 174              	.L17:
  50:ToolCmds.c    ****     }
  51:ToolCmds.c    ****     else if(((SENSE_PORT & Pin_Tool_Arm_Out_MASK) != 0) && ((SENSE_PORT & Pin_Tool_Arm_In_MASK) != 
 175              		.loc 1 51 0
 176 0014 214B     		ldr	r3, .L23+8
ARM GAS  C:\Users\Dan\AppData\Local\Temp\ccqx8Gun.s 			page 5


 177 0016 1B78     		ldrb	r3, [r3]	@ zero_extendqisi2
 178 0018 13F0200F 		tst	r3, #32
 179 001c 08D0     		beq	.L19
 180              		.loc 1 51 0 is_stmt 0 discriminator 1
 181 001e 1F4B     		ldr	r3, .L23+8
 182 0020 1B78     		ldrb	r3, [r3]	@ zero_extendqisi2
 183 0022 13F0800F 		tst	r3, #128
 184 0026 03D0     		beq	.L19
  52:ToolCmds.c    ****     {   
  53:ToolCmds.c    ****         TC_SM = &TC_Fault;  // if not on a sensor then fault
 185              		.loc 1 53 0 is_stmt 1
 186 0028 1A4A     		ldr	r2, .L23
 187 002a 1B4B     		ldr	r3, .L23+4
 188 002c 1A60     		str	r2, [r3]
 189 002e 10BD     		pop	{r4, pc}
 190              	.L19:
  54:ToolCmds.c    ****     }
  55:ToolCmds.c    ****     else
  56:ToolCmds.c    ****     {
  57:ToolCmds.c    ****         switch(arg)
 191              		.loc 1 57 0
 192 0030 012C     		cmp	r4, #1
 193 0032 02D0     		beq	.L20
 194 0034 022C     		cmp	r4, #2
 195 0036 16D0     		beq	.L21
 196 0038 10BD     		pop	{r4, pc}
 197              	.L20:
  58:ToolCmds.c    ****         {
  59:ToolCmds.c    ****             case ARM_IN :
  60:ToolCmds.c    ****                     if((SENSE_PORT & Pin_Tool_Arm_In_MASK) == 0) break;    // already there, don't 
 198              		.loc 1 60 0
 199 003a 184B     		ldr	r3, .L23+8
 200 003c 1B78     		ldrb	r3, [r3]	@ zero_extendqisi2
 201 003e 13F0800F 		tst	r3, #128
 202 0042 25D0     		beq	.L16
  61:ToolCmds.c    ****                     else
  62:ToolCmds.c    ****                     {
  63:ToolCmds.c    ****                         // PutStr("Arm In\n");
  64:ToolCmds.c    ****                         TC_SM = &TC_Arm_Move_In_Start;      // change the state to Arm Moving In
 203              		.loc 1 64 0
 204 0044 164A     		ldr	r2, .L23+12
 205 0046 144B     		ldr	r3, .L23+4
 206 0048 1A60     		str	r2, [r3]
  65:ToolCmds.c    ****                         TC_Set_Delay(ARM_START_DELAY);      // delay to allow for moving off the se
 207              		.loc 1 65 0
 208 004a 4FF4C870 		mov	r0, #400
 209 004e FFF7FEFF 		bl	TC_Set_Delay
 210              	.LVL15:
  66:ToolCmds.c    ****                         TRIAC_PORT &= ~(Pin_Tool_Arm_FWD_MASK); // make sure FWD is off
 211              		.loc 1 66 0
 212 0052 144B     		ldr	r3, .L23+16
 213 0054 1A78     		ldrb	r2, [r3]	@ zero_extendqisi2
 214 0056 02F0BF02 		and	r2, r2, #191
 215 005a 1A70     		strb	r2, [r3]
  67:ToolCmds.c    ****                         TRIAC_PORT |= (Pin_Tool_Arm_REV_MASK | Pin_Tool_Arm_Brake_MASK); // turn th
 216              		.loc 1 67 0
 217 005c 1A78     		ldrb	r2, [r3]	@ zero_extendqisi2
ARM GAS  C:\Users\Dan\AppData\Local\Temp\ccqx8Gun.s 			page 6


 218 005e 42F0A002 		orr	r2, r2, #160
 219 0062 1A70     		strb	r2, [r3]
  68:ToolCmds.c    ****                     }
  69:ToolCmds.c    ****                     break;
 220              		.loc 1 69 0
 221 0064 10BD     		pop	{r4, pc}
 222              	.L21:
  70:ToolCmds.c    ****             case ARM_OUT :
  71:ToolCmds.c    ****                     if((SENSE_PORT & Pin_Tool_Arm_Out_MASK) == 0) break;    // already there, don't
 223              		.loc 1 71 0
 224 0066 0D4B     		ldr	r3, .L23+8
 225 0068 1B78     		ldrb	r3, [r3]	@ zero_extendqisi2
 226 006a 13F0200F 		tst	r3, #32
 227 006e 0FD0     		beq	.L16
  72:ToolCmds.c    ****                     else
  73:ToolCmds.c    ****                     {
  74:ToolCmds.c    ****                         // PutStr("Arm Out\n");
  75:ToolCmds.c    ****                         TC_SM = &TC_Arm_Move_Out_Start;  // change the state to Arm Moving Out
 228              		.loc 1 75 0
 229 0070 0D4A     		ldr	r2, .L23+20
 230 0072 094B     		ldr	r3, .L23+4
 231 0074 1A60     		str	r2, [r3]
  76:ToolCmds.c    ****                         TC_Set_Delay(ARM_START_DELAY);     // 1.5 sec
 232              		.loc 1 76 0
 233 0076 4FF4C870 		mov	r0, #400
 234 007a FFF7FEFF 		bl	TC_Set_Delay
 235              	.LVL16:
  77:ToolCmds.c    ****                         TRIAC_PORT &= ~(Pin_Tool_Arm_REV_MASK); // make sure REV is off
 236              		.loc 1 77 0
 237 007e 094B     		ldr	r3, .L23+16
 238 0080 1A78     		ldrb	r2, [r3]	@ zero_extendqisi2
 239 0082 02F0DF02 		and	r2, r2, #223
 240 0086 1A70     		strb	r2, [r3]
  78:ToolCmds.c    ****                         TRIAC_PORT |= (Pin_Tool_Arm_FWD_MASK | Pin_Tool_Arm_Brake_MASK); // turn th
 241              		.loc 1 78 0
 242 0088 1A78     		ldrb	r2, [r3]	@ zero_extendqisi2
 243 008a 42F0C002 		orr	r2, r2, #192
 244 008e 1A70     		strb	r2, [r3]
 245              	.L16:
 246 0090 10BD     		pop	{r4, pc}
 247              	.L24:
 248 0092 00BF     		.align	2
 249              	.L23:
 250 0094 00000000 		.word	TC_Fault
 251 0098 00000000 		.word	TC_SM
 252 009c 01510040 		.word	1073762561
 253 00a0 00000000 		.word	TC_Arm_Move_In_Start
 254 00a4 30510040 		.word	1073762608
 255 00a8 00000000 		.word	TC_Arm_Move_Out_Start
 256              		.cfi_endproc
 257              	.LFE65:
 258              		.size	Arm_Cmd, .-Arm_Cmd
 259              		.section	.text.Carousel_Cmd,"ax",%progbits
 260              		.align	2
 261              		.global	Carousel_Cmd
 262              		.thumb
 263              		.thumb_func
ARM GAS  C:\Users\Dan\AppData\Local\Temp\ccqx8Gun.s 			page 7


 264              		.type	Carousel_Cmd, %function
 265              	Carousel_Cmd:
 266              	.LFB66:
  79:ToolCmds.c    ****                      }
  80:ToolCmds.c    ****                     break;
  81:ToolCmds.c    ****             default :
  82:ToolCmds.c    ****                     // do nothing!
  83:ToolCmds.c    ****                     break;
  84:ToolCmds.c    ****         }
  85:ToolCmds.c    ****     }
  86:ToolCmds.c    **** }
  87:ToolCmds.c    **** 
  88:ToolCmds.c    **** void Carousel_Cmd(uint8 arg)
  89:ToolCmds.c    **** {
 267              		.loc 1 89 0
 268              		.cfi_startproc
 269              		@ args = 0, pretend = 0, frame = 0
 270              		@ frame_needed = 0, uses_anonymous_args = 0
 271              	.LVL17:
 272 0000 10B5     		push	{r4, lr}
 273              		.cfi_def_cfa_offset 8
 274              		.cfi_offset 4, -8
 275              		.cfi_offset 14, -4
 276 0002 0446     		mov	r4, r0
  90:ToolCmds.c    ****     // calculate the shortest path to the desired tool
  91:ToolCmds.c    ****     if(In_Fault() == 0)   // only do this if not in a fault state
 277              		.loc 1 91 0
 278 0004 FFF7FEFF 		bl	In_Fault
 279              	.LVL18:
 280 0008 0028     		cmp	r0, #0
 281 000a 41D1     		bne	.L25
  92:ToolCmds.c    ****     {
  93:ToolCmds.c    ****         // make sure we are currently on a tool!
  94:ToolCmds.c    ****         if((SENSE_PORT & Pin_Tool_Count_MASK) != 0)
 282              		.loc 1 94 0
 283 000c 214B     		ldr	r3, .L33
 284 000e 1B78     		ldrb	r3, [r3]	@ zero_extendqisi2
 285 0010 13F0040F 		tst	r3, #4
 286 0014 03D0     		beq	.L27
  95:ToolCmds.c    ****         { 
  96:ToolCmds.c    ****             // PutStr("Not on tool!\n");
  97:ToolCmds.c    ****             TC_SM = & TC_Fault;
 287              		.loc 1 97 0
 288 0016 204A     		ldr	r2, .L33+4
 289 0018 204B     		ldr	r3, .L33+8
 290 001a 1A60     		str	r2, [r3]
 291 001c 10BD     		pop	{r4, pc}
 292              	.L27:
  98:ToolCmds.c    ****         }
  99:ToolCmds.c    ****         else
 100:ToolCmds.c    ****         {
 101:ToolCmds.c    ****             // PutStr("Car 1\n");
 102:ToolCmds.c    ****             if((arg > 0) && (arg <= NUMBER_OF_TOOLS))
 293              		.loc 1 102 0
 294 001e 631E     		subs	r3, r4, #1
 295 0020 DBB2     		uxtb	r3, r3
 296 0022 072B     		cmp	r3, #7
ARM GAS  C:\Users\Dan\AppData\Local\Temp\ccqx8Gun.s 			page 8


 297 0024 34D8     		bhi	.L25
 298              	.LBB2:
 103:ToolCmds.c    ****             {
 104:ToolCmds.c    ****                 // PutStr("Car 2\n");
 105:ToolCmds.c    ****                 int8 tool_distance;
 106:ToolCmds.c    ****             
 107:ToolCmds.c    ****                 tool_distance = arg - Get_Current_Tool();
 299              		.loc 1 107 0
 300 0026 FFF7FEFF 		bl	Get_Current_Tool
 301              	.LVL19:
 302 002a 201A     		subs	r0, r4, r0
 303 002c C0B2     		uxtb	r0, r0
 304 002e 43B2     		sxtb	r3, r0
 305              	.LVL20:
 108:ToolCmds.c    ****                 if(tool_distance > HALF_NUMBER_OF_TOOLS)
 306              		.loc 1 108 0
 307 0030 042B     		cmp	r3, #4
 308 0032 02DD     		ble	.L28
 109:ToolCmds.c    ****                 {
 110:ToolCmds.c    ****                     tool_distance -= NUMBER_OF_TOOLS;
 309              		.loc 1 110 0
 310 0034 0838     		subs	r0, r0, #8
 311 0036 43B2     		sxtb	r3, r0
 312              	.LVL21:
 313 0038 04E0     		b	.L29
 314              	.L28:
 111:ToolCmds.c    ****                 }
 112:ToolCmds.c    ****                 else if(tool_distance < -(HALF_NUMBER_OF_TOOLS))
 315              		.loc 1 112 0
 316 003a 13F1040F 		cmn	r3, #4
 317 003e 01DA     		bge	.L29
 113:ToolCmds.c    ****                 {
 114:ToolCmds.c    ****                     tool_distance += NUMBER_OF_TOOLS;
 318              		.loc 1 114 0
 319 0040 0830     		adds	r0, r0, #8
 320 0042 43B2     		sxtb	r3, r0
 321              	.LVL22:
 322              	.L29:
 115:ToolCmds.c    ****                 }
 116:ToolCmds.c    ****                 // PutStr("Car 2x\n");
 117:ToolCmds.c    ****                 if(tool_distance != 0)  // if it is not already on the correct tool
 323              		.loc 1 117 0
 324 0044 23B3     		cbz	r3, .L25
 118:ToolCmds.c    ****                 {
 119:ToolCmds.c    ****                     // sprintf(t_msg, "Car 3 distance = %d\n", tool_distance);
 120:ToolCmds.c    ****                     // PutStr(t_msg);
 121:ToolCmds.c    ****                     if(tool_distance > 0)   // if distance is positive
 325              		.loc 1 121 0
 326 0046 002B     		cmp	r3, #0
 327 0048 0DDD     		ble	.L30
 122:ToolCmds.c    ****                     {
 123:ToolCmds.c    ****                         TRIAC_PORT &= ~(Pin_Car_REV_MASK);  // REV is off
 328              		.loc 1 123 0
 329 004a 154B     		ldr	r3, .L33+12
 330              	.LVL23:
 331 004c 1A78     		ldrb	r2, [r3]	@ zero_extendqisi2
 332 004e 02F0F702 		and	r2, r2, #247
ARM GAS  C:\Users\Dan\AppData\Local\Temp\ccqx8Gun.s 			page 9


 333 0052 1A70     		strb	r2, [r3]
 124:ToolCmds.c    ****                         TRIAC_PORT |= Pin_Car_FWD_MASK;     // FWD is on
 334              		.loc 1 124 0
 335 0054 1A78     		ldrb	r2, [r3]	@ zero_extendqisi2
 336 0056 42F01002 		orr	r2, r2, #16
 337 005a 1A70     		strb	r2, [r3]
 125:ToolCmds.c    ****                         Set_Target_Tool(arg, 1);
 338              		.loc 1 125 0
 339 005c 0121     		movs	r1, #1
 340 005e 2046     		mov	r0, r4
 341 0060 FFF7FEFF 		bl	Set_Target_Tool
 342              	.LVL24:
 343 0064 0DE0     		b	.L31
 344              	.LVL25:
 345              	.L30:
 126:ToolCmds.c    ****                     }
 127:ToolCmds.c    ****                     else    // if distance is negative
 128:ToolCmds.c    ****                     {
 129:ToolCmds.c    ****                         TRIAC_PORT &= ~(Pin_Car_FWD_MASK);  // FWD is off
 346              		.loc 1 129 0
 347 0066 0E4B     		ldr	r3, .L33+12
 348              	.LVL26:
 349 0068 1A78     		ldrb	r2, [r3]	@ zero_extendqisi2
 350 006a 02F0EF02 		and	r2, r2, #239
 351 006e 1A70     		strb	r2, [r3]
 130:ToolCmds.c    ****                         TRIAC_PORT |= Pin_Car_REV_MASK;     // REV is on
 352              		.loc 1 130 0
 353 0070 1A78     		ldrb	r2, [r3]	@ zero_extendqisi2
 354 0072 42F00802 		orr	r2, r2, #8
 355 0076 1A70     		strb	r2, [r3]
 131:ToolCmds.c    ****                         Set_Target_Tool(arg, -1);
 356              		.loc 1 131 0
 357 0078 4FF0FF31 		mov	r1, #-1
 358 007c 2046     		mov	r0, r4
 359 007e FFF7FEFF 		bl	Set_Target_Tool
 360              	.LVL27:
 361              	.L31:
 132:ToolCmds.c    ****                     }
 133:ToolCmds.c    ****                     // PutStr("Car 4\n");
 134:ToolCmds.c    ****                     TC_SM = &TC_Carousel_Moving_Start;      // change the state to start moving
 362              		.loc 1 134 0
 363 0082 084A     		ldr	r2, .L33+16
 364 0084 054B     		ldr	r3, .L33+8
 365 0086 1A60     		str	r2, [r3]
 135:ToolCmds.c    ****                     TC_Set_Delay(CAROUSEL_START_DELAY);
 366              		.loc 1 135 0
 367 0088 4FF4FA70 		mov	r0, #500
 368 008c FFF7FEFF 		bl	TC_Set_Delay
 369              	.LVL28:
 370              	.L25:
 371 0090 10BD     		pop	{r4, pc}
 372              	.L34:
 373 0092 00BF     		.align	2
 374              	.L33:
 375 0094 01510040 		.word	1073762561
 376 0098 00000000 		.word	TC_Fault
 377 009c 00000000 		.word	TC_SM
ARM GAS  C:\Users\Dan\AppData\Local\Temp\ccqx8Gun.s 			page 10


 378 00a0 30510040 		.word	1073762608
 379 00a4 00000000 		.word	TC_Carousel_Moving_Start
 380              	.LBE2:
 381              		.cfi_endproc
 382              	.LFE66:
 383              		.size	Carousel_Cmd, .-Carousel_Cmd
 384              		.section	.text.Clamp_Cmd,"ax",%progbits
 385              		.align	2
 386              		.global	Clamp_Cmd
 387              		.thumb
 388              		.thumb_func
 389              		.type	Clamp_Cmd, %function
 390              	Clamp_Cmd:
 391              	.LFB67:
 136:ToolCmds.c    ****                 }
 137:ToolCmds.c    ****             }
 138:ToolCmds.c    ****         }
 139:ToolCmds.c    ****     }
 140:ToolCmds.c    **** }
 141:ToolCmds.c    **** 
 142:ToolCmds.c    **** void Clamp_Cmd(uint8 arg)
 143:ToolCmds.c    **** {
 392              		.loc 1 143 0
 393              		.cfi_startproc
 394              		@ args = 0, pretend = 0, frame = 0
 395              		@ frame_needed = 0, uses_anonymous_args = 0
 396              	.LVL29:
 397 0000 08B5     		push	{r3, lr}
 398              		.cfi_def_cfa_offset 8
 399              		.cfi_offset 3, -8
 400              		.cfi_offset 14, -4
 144:ToolCmds.c    ****     switch(arg)
 401              		.loc 1 144 0
 402 0002 0138     		subs	r0, r0, #1
 403              	.LVL30:
 404 0004 0328     		cmp	r0, #3
 405 0006 28D8     		bhi	.L35
 406 0008 DFE800F0 		tbb	[pc, r0]
 407              	.L38:
 408 000c 02       		.byte	(.L37-.L38)/2
 409 000d 0F       		.byte	(.L39-.L38)/2
 410 000e 1C       		.byte	(.L40-.L38)/2
 411 000f 22       		.byte	(.L41-.L38)/2
 412              		.p2align 1
 413              	.L37:
 145:ToolCmds.c    ****     {
 146:ToolCmds.c    ****         case AIR_BLAST_ONLY :
 147:ToolCmds.c    ****             TC_Set_Delay(AIR_BLAST_DELAY);
 414              		.loc 1 147 0
 415 0010 4FF49660 		mov	r0, #1200
 416 0014 FFF7FEFF 		bl	TC_Set_Delay
 417              	.LVL31:
 148:ToolCmds.c    ****             TC_SM = &TC_Clamp_AirBlast; // change state to Air Blast
 418              		.loc 1 148 0
 419 0018 104A     		ldr	r2, .L43
 420 001a 114B     		ldr	r3, .L43+4
 421 001c 1A60     		str	r2, [r3]
ARM GAS  C:\Users\Dan\AppData\Local\Temp\ccqx8Gun.s 			page 11


 149:ToolCmds.c    ****             TRIAC_PORT |= Pin_Tool_Air_MASK;   // turn on the Air
 422              		.loc 1 149 0
 423 001e 114A     		ldr	r2, .L43+8
 424 0020 1378     		ldrb	r3, [r2]	@ zero_extendqisi2
 425 0022 43F00203 		orr	r3, r3, #2
 426 0026 1370     		strb	r3, [r2]
 150:ToolCmds.c    ****             break;
 427              		.loc 1 150 0
 428 0028 08BD     		pop	{r3, pc}
 429              	.L39:
 151:ToolCmds.c    ****         case AIR_BLAST_TOOL_UNCLAMP :
 152:ToolCmds.c    ****             TC_Set_Delay(AIR_BLAST_DELAY);
 430              		.loc 1 152 0
 431 002a 4FF49660 		mov	r0, #1200
 432 002e FFF7FEFF 		bl	TC_Set_Delay
 433              	.LVL32:
 153:ToolCmds.c    ****             TC_SM = &TC_Clamp_AirBlast;
 434              		.loc 1 153 0
 435 0032 0A4A     		ldr	r2, .L43
 436 0034 0A4B     		ldr	r3, .L43+4
 437 0036 1A60     		str	r2, [r3]
 154:ToolCmds.c    ****             TRIAC_PORT |= (Pin_Tool_Air_MASK | Pin_Tool_Clamp_MASK);   // turn on the Air and relea
 438              		.loc 1 154 0
 439 0038 0A4A     		ldr	r2, .L43+8
 440 003a 1378     		ldrb	r3, [r2]	@ zero_extendqisi2
 441 003c 43F00603 		orr	r3, r3, #6
 442 0040 1370     		strb	r3, [r2]
 155:ToolCmds.c    ****             
 156:ToolCmds.c    ****             break;
 443              		.loc 1 156 0
 444 0042 08BD     		pop	{r3, pc}
 445              	.L40:
 157:ToolCmds.c    ****         case TOOL_UNCLAMP :
 158:ToolCmds.c    ****             TRIAC_PORT |= Pin_Tool_Clamp_MASK;   // just release the clamp
 446              		.loc 1 158 0
 447 0044 074A     		ldr	r2, .L43+8
 448 0046 1378     		ldrb	r3, [r2]	@ zero_extendqisi2
 449 0048 43F00403 		orr	r3, r3, #4
 450 004c 1370     		strb	r3, [r2]
 159:ToolCmds.c    ****             break;
 451              		.loc 1 159 0
 452 004e 08BD     		pop	{r3, pc}
 453              	.L41:
 160:ToolCmds.c    ****         case TOOL_CLAMP :
 161:ToolCmds.c    ****             TRIAC_PORT &= ~(Pin_Tool_Clamp_MASK);    // re-engage the clamp
 454              		.loc 1 161 0
 455 0050 044A     		ldr	r2, .L43+8
 456 0052 1378     		ldrb	r3, [r2]	@ zero_extendqisi2
 457 0054 03F0FB03 		and	r3, r3, #251
 458 0058 1370     		strb	r3, [r2]
 459              	.L35:
 460 005a 08BD     		pop	{r3, pc}
 461              	.L44:
 462              		.align	2
 463              	.L43:
 464 005c 00000000 		.word	TC_Clamp_AirBlast
 465 0060 00000000 		.word	TC_SM
ARM GAS  C:\Users\Dan\AppData\Local\Temp\ccqx8Gun.s 			page 12


 466 0064 30510040 		.word	1073762608
 467              		.cfi_endproc
 468              	.LFE67:
 469              		.size	Clamp_Cmd, .-Clamp_Cmd
 470              		.section	.text.Home_Cmd,"ax",%progbits
 471              		.align	2
 472              		.global	Home_Cmd
 473              		.thumb
 474              		.thumb_func
 475              		.type	Home_Cmd, %function
 476              	Home_Cmd:
 477              	.LFB68:
 162:ToolCmds.c    ****             break;
 163:ToolCmds.c    ****         default :
 164:ToolCmds.c    ****             break;
 165:ToolCmds.c    ****     }
 166:ToolCmds.c    **** }
 167:ToolCmds.c    **** 
 168:ToolCmds.c    **** void Home_Cmd(uint8 arg)
 169:ToolCmds.c    **** {
 478              		.loc 1 169 0
 479              		.cfi_startproc
 480              		@ args = 0, pretend = 0, frame = 0
 481              		@ frame_needed = 0, uses_anonymous_args = 0
 482              	.LVL33:
 483 0000 08B5     		push	{r3, lr}
 484              		.cfi_def_cfa_offset 8
 485              		.cfi_offset 3, -8
 486              		.cfi_offset 14, -4
 170:ToolCmds.c    ****     UNUSED_ARG(arg);
 171:ToolCmds.c    ****     // This command needs to do two things, retract the Arm and rotate the Carousel to tool positio
 172:ToolCmds.c    **** 
 173:ToolCmds.c    ****     if(In_Fault() == 0) // only try this if there is no fault
 487              		.loc 1 173 0
 488 0002 FFF7FEFF 		bl	In_Fault
 489              	.LVL34:
 490 0006 0028     		cmp	r0, #0
 491 0008 31D1     		bne	.L45
 174:ToolCmds.c    ****     {
 175:ToolCmds.c    ****         // PutStr("Home 1\n");
 176:ToolCmds.c    ****         if((SENSE_PORT & Pin_Tool_Arm_In_MASK) == 0) // check for ARM at IN - already retracted
 492              		.loc 1 176 0
 493 000a 194B     		ldr	r3, .L50
 494 000c 1B78     		ldrb	r3, [r3]	@ zero_extendqisi2
 495 000e 13F0800F 		tst	r3, #128
 496 0012 1CD1     		bne	.L47
 177:ToolCmds.c    ****         {
 178:ToolCmds.c    ****             // PutStr("Home 2\n");
 179:ToolCmds.c    ****             if((SENSE_PORT & (Pin_Tool_Count_MASK | Pin_Tool_1_MASK)) == 0) // check for already at
 497              		.loc 1 179 0
 498 0014 164B     		ldr	r3, .L50
 499 0016 1B78     		ldrb	r3, [r3]	@ zero_extendqisi2
 500 0018 13F0050F 		tst	r3, #5
 501 001c 06D1     		bne	.L48
 180:ToolCmds.c    ****             {
 181:ToolCmds.c    ****                 // PutStr("Home 3\n");
 182:ToolCmds.c    ****                 Set_Current_Tool(1);
ARM GAS  C:\Users\Dan\AppData\Local\Temp\ccqx8Gun.s 			page 13


 502              		.loc 1 182 0
 503 001e 0120     		movs	r0, #1
 504 0020 FFF7FEFF 		bl	Set_Current_Tool
 505              	.LVL35:
 183:ToolCmds.c    ****                 TC_SM = &TC_IDLE;
 506              		.loc 1 183 0
 507 0024 134A     		ldr	r2, .L50+4
 508 0026 144B     		ldr	r3, .L50+8
 509 0028 1A60     		str	r2, [r3]
 510 002a 08BD     		pop	{r3, pc}
 511              	.L48:
 184:ToolCmds.c    ****             }
 185:ToolCmds.c    ****             else
 186:ToolCmds.c    ****             {
 187:ToolCmds.c    ****                 // PutStr("Home 4\n");
 188:ToolCmds.c    ****                 TC_Set_Delay(CAROUSEL_HOME_DELAY);  
 512              		.loc 1 188 0
 513 002c 42F21070 		movw	r0, #10000
 514 0030 FFF7FEFF 		bl	TC_Set_Delay
 515              	.LVL36:
 189:ToolCmds.c    ****                 TC_SM = &TC_Home_Carousel;          // Set the state to Home Carousel
 516              		.loc 1 189 0
 517 0034 114A     		ldr	r2, .L50+12
 518 0036 104B     		ldr	r3, .L50+8
 519 0038 1A60     		str	r2, [r3]
 190:ToolCmds.c    ****                 TRIAC_PORT &= ~(Pin_Car_REV_MASK);  // make sure that REV is off!
 520              		.loc 1 190 0
 521 003a 114B     		ldr	r3, .L50+16
 522 003c 1A78     		ldrb	r2, [r3]	@ zero_extendqisi2
 523 003e 02F0F702 		and	r2, r2, #247
 524 0042 1A70     		strb	r2, [r3]
 191:ToolCmds.c    ****                 TRIAC_PORT |= Pin_Car_FWD_MASK;     // start moving the carousel forward
 525              		.loc 1 191 0
 526 0044 1A78     		ldrb	r2, [r3]	@ zero_extendqisi2
 527 0046 42F01002 		orr	r2, r2, #16
 528 004a 1A70     		strb	r2, [r3]
 529 004c 08BD     		pop	{r3, pc}
 530              	.L47:
 192:ToolCmds.c    ****             }
 193:ToolCmds.c    ****         }
 194:ToolCmds.c    ****         else
 195:ToolCmds.c    ****         {
 196:ToolCmds.c    ****             // start the arm move
 197:ToolCmds.c    ****             TC_Set_Delay(ARM_MOVE_TIME);
 531              		.loc 1 197 0
 532 004e 40F6B830 		movw	r0, #3000
 533 0052 FFF7FEFF 		bl	TC_Set_Delay
 534              	.LVL37:
 198:ToolCmds.c    ****             TC_SM = &TC_Home_Arm;
 535              		.loc 1 198 0
 536 0056 0B4A     		ldr	r2, .L50+20
 537 0058 074B     		ldr	r3, .L50+8
 538 005a 1A60     		str	r2, [r3]
 199:ToolCmds.c    ****             TRIAC_PORT &= ~(Pin_Tool_Arm_FWD_MASK);    // make sure that out is off!
 539              		.loc 1 199 0
 540 005c 084B     		ldr	r3, .L50+16
 541 005e 1A78     		ldrb	r2, [r3]	@ zero_extendqisi2
ARM GAS  C:\Users\Dan\AppData\Local\Temp\ccqx8Gun.s 			page 14


 542 0060 02F0BF02 		and	r2, r2, #191
 543 0064 1A70     		strb	r2, [r3]
 200:ToolCmds.c    ****             TRIAC_PORT |= (Pin_Tool_Arm_REV_MASK | Pin_Tool_Arm_Brake_MASK); // release the brake a
 544              		.loc 1 200 0
 545 0066 1A78     		ldrb	r2, [r3]	@ zero_extendqisi2
 546 0068 42F0A002 		orr	r2, r2, #160
 547 006c 1A70     		strb	r2, [r3]
 548              	.L45:
 549 006e 08BD     		pop	{r3, pc}
 550              	.L51:
 551              		.align	2
 552              	.L50:
 553 0070 01510040 		.word	1073762561
 554 0074 00000000 		.word	TC_IDLE
 555 0078 00000000 		.word	TC_SM
 556 007c 00000000 		.word	TC_Home_Carousel
 557 0080 30510040 		.word	1073762608
 558 0084 00000000 		.word	TC_Home_Arm
 559              		.cfi_endproc
 560              	.LFE68:
 561              		.size	Home_Cmd, .-Home_Cmd
 562              		.text
 563              	.Letext0:
 564              		.file 2 "c:\\program files (x86)\\cypress\\psoc creator\\4.2\\psoc creator\\import\\gnu\\arm\\5.4.
 565              		.file 3 "c:\\program files (x86)\\cypress\\psoc creator\\4.2\\psoc creator\\import\\gnu\\arm\\5.4.
 566              		.file 4 "Generated_Source\\PSoC5/cytypes.h"
 567              		.file 5 "State_Machine.h"
 568              		.file 6 "Generated_Source\\PSoC5/core_cm3.h"
 569              		.file 7 "Processes.h"