ARM GAS  C:\Users\Dan\AppData\Local\Temp\cctpNSVO.s 			page 1


   1              		.syntax unified
   2              		.cpu cortex-m3
   3              		.fpu softvfp
   4              		.eabi_attribute 20, 1
   5              		.eabi_attribute 21, 1
   6              		.eabi_attribute 23, 3
   7              		.eabi_attribute 24, 1
   8              		.eabi_attribute 25, 1
   9              		.eabi_attribute 26, 1
  10              		.eabi_attribute 30, 1
  11              		.eabi_attribute 34, 1
  12              		.eabi_attribute 18, 4
  13              		.thumb
  14              		.syntax unified
  15              		.file	"main.c"
  16              		.text
  17              	.Ltext0:
  18              		.cfi_sections	.debug_frame
  19              		.section	.text.Blink_Isr,"ax",%progbits
  20              		.align	2
  21              		.global	Blink_Isr
  22              		.thumb
  23              		.thumb_func
  24              		.type	Blink_Isr, %function
  25              	Blink_Isr:
  26              	.LFB63:
  27              		.file 1 "main.c"
   1:main.c        **** /* ========================================
   2:main.c        ****  *
   3:main.c        ****  * Copyright YOUR COMPANY, THE YEAR
   4:main.c        ****  * All Rights Reserved
   5:main.c        ****  * UNPUBLISHED, LICENSED SOFTWARE.
   6:main.c        ****  *
   7:main.c        ****  * CONFIDENTIAL AND PROPRIETARY INFORMATION
   8:main.c        ****  * WHICH IS THE PROPERTY OF your company.
   9:main.c        ****  *
  10:main.c        ****  * ========================================
  11:main.c        **** */
  12:main.c        **** #include "project.h"
  13:main.c        **** 
  14:main.c        **** #define USBFS_DEVICE 0
  15:main.c        **** 
  16:main.c        **** CY_ISR(Blink_Isr)
  17:main.c        **** {
  28              		.loc 1 17 0
  29              		.cfi_startproc
  30              		@ args = 0, pretend = 0, frame = 0
  31              		@ frame_needed = 0, uses_anonymous_args = 0
  32 0000 08B5     		push	{r3, lr}
  33              		.cfi_def_cfa_offset 8
  34              		.cfi_offset 3, -8
  35              		.cfi_offset 14, -4
  18:main.c        ****     Timer_1_ReadStatusRegister();   // clear the interrupt
  36              		.loc 1 18 0
  37 0002 FFF7FEFF 		bl	Timer_1_ReadStatusRegister
  38              	.LVL0:
  19:main.c        ****     Pin_LED_Write(~(Pin_LED_Read()));    // toggle the LED
ARM GAS  C:\Users\Dan\AppData\Local\Temp\cctpNSVO.s 			page 2


  39              		.loc 1 19 0
  40 0006 FFF7FEFF 		bl	Pin_LED_Read
  41              	.LVL1:
  42 000a C043     		mvns	r0, r0
  43 000c C0B2     		uxtb	r0, r0
  44 000e FFF7FEFF 		bl	Pin_LED_Write
  45              	.LVL2:
  46 0012 08BD     		pop	{r3, pc}
  47              		.cfi_endproc
  48              	.LFE63:
  49              		.size	Blink_Isr, .-Blink_Isr
  50              		.section	.text.main,"ax",%progbits
  51              		.align	2
  52              		.global	main
  53              		.thumb
  54              		.thumb_func
  55              		.type	main, %function
  56              	main:
  57              	.LFB64:
  20:main.c        **** }
  21:main.c        **** 
  22:main.c        **** int main(void)
  23:main.c        **** {
  58              		.loc 1 23 0
  59              		.cfi_startproc
  60              		@ Volatile: function does not return.
  61              		@ args = 0, pretend = 0, frame = 0
  62              		@ frame_needed = 0, uses_anonymous_args = 0
  63 0000 08B5     		push	{r3, lr}
  64              		.cfi_def_cfa_offset 8
  65              		.cfi_offset 3, -8
  66              		.cfi_offset 14, -4
  24:main.c        ****     CyGlobalIntEnable; /* Enable global interrupts. */
  67              		.loc 1 24 0
  68              		.syntax unified
  69              	@ 24 "main.c" 1
  70 0002 62B6     		CPSIE   i
  71              	@ 0 "" 2
  25:main.c        ****     isr_Blink_StartEx(Blink_Isr);
  72              		.loc 1 25 0
  73              		.thumb
  74              		.syntax unified
  75 0004 0748     		ldr	r0, .L6
  76 0006 FFF7FEFF 		bl	isr_Blink_StartEx
  77              	.LVL3:
  26:main.c        ****     Timer_1_Start();    // start the timer
  78              		.loc 1 26 0
  79 000a FFF7FEFF 		bl	Timer_1_Start
  80              	.LVL4:
  27:main.c        ****     
  28:main.c        ****     USBFS_Start(USBFS_DEVICE, USBFS_5V_OPERATION);
  81              		.loc 1 28 0
  82 000e 0121     		movs	r1, #1
  83 0010 0020     		movs	r0, #0
  84 0012 FFF7FEFF 		bl	USBFS_Start
  85              	.LVL5:
  29:main.c        **** 
ARM GAS  C:\Users\Dan\AppData\Local\Temp\cctpNSVO.s 			page 3


  30:main.c        ****     /* Place your initialization/startup code here (e.g. MyInst_Start()) */
  31:main.c        ****     // set all the port bits low
  32:main.c        ****     Pins_Port3_DR = 0;  
  86              		.loc 1 32 0
  87 0016 0022     		movs	r2, #0
  88 0018 034B     		ldr	r3, .L6+4
  89 001a 1A70     		strb	r2, [r3]
  33:main.c        ****     Bootloader_Start();
  90              		.loc 1 33 0
  91 001c FFF7FEFF 		bl	Bootloader_Start
  92              	.LVL6:
  93              	.L4:
  94 0020 FEE7     		b	.L4
  95              	.L7:
  96 0022 00BF     		.align	2
  97              	.L6:
  98 0024 00000000 		.word	Blink_Isr
  99 0028 30510040 		.word	1073762608
 100              		.cfi_endproc
 101              	.LFE64:
 102              		.size	main, .-main
 103              		.text
 104              	.Letext0:
 105              		.file 2 "c:\\program files (x86)\\cypress\\psoc creator\\4.2\\psoc creator\\import\\gnu\\arm\\5.4.
 106              		.file 3 "c:\\program files (x86)\\cypress\\psoc creator\\4.2\\psoc creator\\import\\gnu\\arm\\5.4.
 107              		.file 4 "Generated_Source\\PSoC5/cytypes.h"
 108              		.file 5 "Generated_Source\\PSoC5/Timer_1.h"
 109              		.file 6 "Generated_Source\\PSoC5/Pin_LED.h"
 110              		.file 7 "Generated_Source\\PSoC5/isr_Blink.h"
 111              		.file 8 "Generated_Source\\PSoC5/USBFS.h"
 112              		.file 9 "Generated_Source\\PSoC5/Bootloader.h"
 113              		.file 10 "Generated_Source\\PSoC5/core_cm3.h"