ARM GAS  C:\Users\Dan\AppData\Local\Temp\ccwiSTnc.s 			page 1


   1              		.syntax unified
   2              		.cpu cortex-m3
   3              		.fpu softvfp
   4              		.eabi_attribute 20, 1
   5              		.eabi_attribute 21, 1
   6              		.eabi_attribute 23, 3
   7              		.eabi_attribute 24, 1
   8              		.eabi_attribute 25, 1
   9              		.eabi_attribute 26, 1
  10              		.eabi_attribute 30, 1
  11              		.eabi_attribute 34, 1
  12              		.eabi_attribute 18, 4
  13              		.thumb
  14              		.syntax unified
  15              		.file	"USBFS_std.c"
  16              		.text
  17              	.Ltext0:
  18              		.cfi_sections	.debug_frame
  19              		.section	.text.USBFS_ConfigReg,"ax",%progbits
  20              		.align	2
  21              		.global	USBFS_ConfigReg
  22              		.thumb
  23              		.thumb_func
  24              		.type	USBFS_ConfigReg, %function
  25              	USBFS_ConfigReg:
  26              	.LFB1:
  27              		.file 1 "Generated_Source\\PSoC5\\USBFS_std.c"
   1:Generated_Source\PSoC5/USBFS_std.c **** /***************************************************************************//**
   2:Generated_Source\PSoC5/USBFS_std.c **** * \file USBFS_std.c
   3:Generated_Source\PSoC5/USBFS_std.c **** * \version 3.20
   4:Generated_Source\PSoC5/USBFS_std.c **** *
   5:Generated_Source\PSoC5/USBFS_std.c **** * \brief
   6:Generated_Source\PSoC5/USBFS_std.c **** *  This file contains the USB Standard request handler.
   7:Generated_Source\PSoC5/USBFS_std.c **** *
   8:Generated_Source\PSoC5/USBFS_std.c **** ********************************************************************************
   9:Generated_Source\PSoC5/USBFS_std.c **** * \copyright
  10:Generated_Source\PSoC5/USBFS_std.c **** * Copyright 2008-2016, Cypress Semiconductor Corporation.  All rights reserved.
  11:Generated_Source\PSoC5/USBFS_std.c **** * You may use this file only in accordance with the license, terms, conditions,
  12:Generated_Source\PSoC5/USBFS_std.c **** * disclaimers, and limitations in the end user license agreement accompanying
  13:Generated_Source\PSoC5/USBFS_std.c **** * the software package with which this file was provided.
  14:Generated_Source\PSoC5/USBFS_std.c **** *******************************************************************************/
  15:Generated_Source\PSoC5/USBFS_std.c **** 
  16:Generated_Source\PSoC5/USBFS_std.c **** #include "USBFS_pvt.h"
  17:Generated_Source\PSoC5/USBFS_std.c **** 
  18:Generated_Source\PSoC5/USBFS_std.c **** /***************************************
  19:Generated_Source\PSoC5/USBFS_std.c **** *   Static data allocation
  20:Generated_Source\PSoC5/USBFS_std.c **** ***************************************/
  21:Generated_Source\PSoC5/USBFS_std.c **** 
  22:Generated_Source\PSoC5/USBFS_std.c **** #if defined(USBFS_ENABLE_FWSN_STRING)
  23:Generated_Source\PSoC5/USBFS_std.c ****     static volatile uint8* USBFS_fwSerialNumberStringDescriptor;
  24:Generated_Source\PSoC5/USBFS_std.c ****     static volatile uint8  USBFS_snStringConfirm = USBFS_FALSE;
  25:Generated_Source\PSoC5/USBFS_std.c **** #endif  /* (USBFS_ENABLE_FWSN_STRING) */
  26:Generated_Source\PSoC5/USBFS_std.c **** 
  27:Generated_Source\PSoC5/USBFS_std.c **** #if defined(USBFS_ENABLE_FWSN_STRING)
  28:Generated_Source\PSoC5/USBFS_std.c ****     /***************************************************************************
  29:Generated_Source\PSoC5/USBFS_std.c ****     * Function Name: USBFS_SerialNumString
  30:Generated_Source\PSoC5/USBFS_std.c ****     ************************************************************************//**
ARM GAS  C:\Users\Dan\AppData\Local\Temp\ccwiSTnc.s 			page 2


  31:Generated_Source\PSoC5/USBFS_std.c ****     *
  32:Generated_Source\PSoC5/USBFS_std.c ****     *  This function is available only when the User Call Back option in the 
  33:Generated_Source\PSoC5/USBFS_std.c ****     *  Serial Number String descriptor properties is selected. Application 
  34:Generated_Source\PSoC5/USBFS_std.c ****     *  firmware can provide the source of the USB device serial number string 
  35:Generated_Source\PSoC5/USBFS_std.c ****     *  descriptor during run time. The default string is used if the application 
  36:Generated_Source\PSoC5/USBFS_std.c ****     *  firmware does not use this function or sets the wrong string descriptor.
  37:Generated_Source\PSoC5/USBFS_std.c ****     *
  38:Generated_Source\PSoC5/USBFS_std.c ****     *  \param snString:  Pointer to the user-defined string descriptor. The 
  39:Generated_Source\PSoC5/USBFS_std.c ****     *  string descriptor should meet the Universal Serial Bus Specification 
  40:Generated_Source\PSoC5/USBFS_std.c ****     *  revision 2.0 chapter 9.6.7
  41:Generated_Source\PSoC5/USBFS_std.c ****     *  Offset|Size|Value|Description
  42:Generated_Source\PSoC5/USBFS_std.c ****     *  ------|----|------|---------------------------------
  43:Generated_Source\PSoC5/USBFS_std.c ****     *  0     |1   |N     |Size of this descriptor in bytes
  44:Generated_Source\PSoC5/USBFS_std.c ****     *  1     |1   |0x03  |STRING Descriptor Type
  45:Generated_Source\PSoC5/USBFS_std.c ****     *  2     |N-2 |Number|UNICODE encoded string
  46:Generated_Source\PSoC5/USBFS_std.c ****     *  
  47:Generated_Source\PSoC5/USBFS_std.c ****     * *For example:* uint8 snString[16]={0x0E,0x03,'F',0,'W',0,'S',0,'N',0,'0',0,'1',0};
  48:Generated_Source\PSoC5/USBFS_std.c ****     *
  49:Generated_Source\PSoC5/USBFS_std.c ****     * \reentrant
  50:Generated_Source\PSoC5/USBFS_std.c ****     *  No.
  51:Generated_Source\PSoC5/USBFS_std.c ****     *
  52:Generated_Source\PSoC5/USBFS_std.c ****     ***************************************************************************/
  53:Generated_Source\PSoC5/USBFS_std.c ****     void  USBFS_SerialNumString(uint8 snString[]) 
  54:Generated_Source\PSoC5/USBFS_std.c ****     {
  55:Generated_Source\PSoC5/USBFS_std.c ****         USBFS_snStringConfirm = USBFS_FALSE;
  56:Generated_Source\PSoC5/USBFS_std.c ****         
  57:Generated_Source\PSoC5/USBFS_std.c ****         if (snString != NULL)
  58:Generated_Source\PSoC5/USBFS_std.c ****         {
  59:Generated_Source\PSoC5/USBFS_std.c ****             /* Check descriptor validation */
  60:Generated_Source\PSoC5/USBFS_std.c ****             if ((snString[0u] > 1u) && (snString[1u] == USBFS_DESCR_STRING))
  61:Generated_Source\PSoC5/USBFS_std.c ****             {
  62:Generated_Source\PSoC5/USBFS_std.c ****                 USBFS_fwSerialNumberStringDescriptor = snString;
  63:Generated_Source\PSoC5/USBFS_std.c ****                 USBFS_snStringConfirm = USBFS_TRUE;
  64:Generated_Source\PSoC5/USBFS_std.c ****             }
  65:Generated_Source\PSoC5/USBFS_std.c ****         }
  66:Generated_Source\PSoC5/USBFS_std.c ****     }
  67:Generated_Source\PSoC5/USBFS_std.c **** #endif  /* USBFS_ENABLE_FWSN_STRING */
  68:Generated_Source\PSoC5/USBFS_std.c **** 
  69:Generated_Source\PSoC5/USBFS_std.c **** 
  70:Generated_Source\PSoC5/USBFS_std.c **** /*******************************************************************************
  71:Generated_Source\PSoC5/USBFS_std.c **** * Function Name: USBFS_HandleStandardRqst
  72:Generated_Source\PSoC5/USBFS_std.c **** ****************************************************************************//**
  73:Generated_Source\PSoC5/USBFS_std.c **** *
  74:Generated_Source\PSoC5/USBFS_std.c **** *  This Routine dispatches standard requests
  75:Generated_Source\PSoC5/USBFS_std.c **** *
  76:Generated_Source\PSoC5/USBFS_std.c **** *
  77:Generated_Source\PSoC5/USBFS_std.c **** * \return
  78:Generated_Source\PSoC5/USBFS_std.c **** *  TRUE if request handled.
  79:Generated_Source\PSoC5/USBFS_std.c **** *
  80:Generated_Source\PSoC5/USBFS_std.c **** * \reentrant
  81:Generated_Source\PSoC5/USBFS_std.c **** *  No.
  82:Generated_Source\PSoC5/USBFS_std.c **** *
  83:Generated_Source\PSoC5/USBFS_std.c **** *******************************************************************************/
  84:Generated_Source\PSoC5/USBFS_std.c **** uint8 USBFS_HandleStandardRqst(void) 
  85:Generated_Source\PSoC5/USBFS_std.c **** {
  86:Generated_Source\PSoC5/USBFS_std.c ****     uint8 requestHandled = USBFS_FALSE;
  87:Generated_Source\PSoC5/USBFS_std.c ****     uint8 interfaceNumber;
ARM GAS  C:\Users\Dan\AppData\Local\Temp\ccwiSTnc.s 			page 3


  88:Generated_Source\PSoC5/USBFS_std.c ****     uint8 configurationN;
  89:Generated_Source\PSoC5/USBFS_std.c ****     uint8 bmRequestType = USBFS_bmRequestTypeReg;
  90:Generated_Source\PSoC5/USBFS_std.c **** 
  91:Generated_Source\PSoC5/USBFS_std.c **** #if defined(USBFS_ENABLE_STRINGS)
  92:Generated_Source\PSoC5/USBFS_std.c ****     volatile uint8 *pStr = 0u;
  93:Generated_Source\PSoC5/USBFS_std.c ****     #if defined(USBFS_ENABLE_DESCRIPTOR_STRINGS)
  94:Generated_Source\PSoC5/USBFS_std.c ****         uint8 nStr;
  95:Generated_Source\PSoC5/USBFS_std.c ****         uint8 descrLength;
  96:Generated_Source\PSoC5/USBFS_std.c ****     #endif /* (USBFS_ENABLE_DESCRIPTOR_STRINGS) */
  97:Generated_Source\PSoC5/USBFS_std.c **** #endif /* (USBFS_ENABLE_STRINGS) */
  98:Generated_Source\PSoC5/USBFS_std.c ****     
  99:Generated_Source\PSoC5/USBFS_std.c ****     static volatile uint8 USBFS_tBuffer[USBFS_STATUS_LENGTH_MAX];
 100:Generated_Source\PSoC5/USBFS_std.c ****     const T_USBFS_LUT CYCODE *pTmp;
 101:Generated_Source\PSoC5/USBFS_std.c **** 
 102:Generated_Source\PSoC5/USBFS_std.c ****     USBFS_currentTD.count = 0u;
 103:Generated_Source\PSoC5/USBFS_std.c **** 
 104:Generated_Source\PSoC5/USBFS_std.c ****     if (USBFS_RQST_DIR_D2H == (bmRequestType & USBFS_RQST_DIR_MASK))
 105:Generated_Source\PSoC5/USBFS_std.c ****     {
 106:Generated_Source\PSoC5/USBFS_std.c ****         /* Control Read */
 107:Generated_Source\PSoC5/USBFS_std.c ****         switch (USBFS_bRequestReg)
 108:Generated_Source\PSoC5/USBFS_std.c ****         {
 109:Generated_Source\PSoC5/USBFS_std.c ****             case USBFS_GET_DESCRIPTOR:
 110:Generated_Source\PSoC5/USBFS_std.c ****                 if (USBFS_DESCR_DEVICE ==USBFS_wValueHiReg)
 111:Generated_Source\PSoC5/USBFS_std.c ****                 {
 112:Generated_Source\PSoC5/USBFS_std.c ****                     pTmp = USBFS_GetDeviceTablePtr();
 113:Generated_Source\PSoC5/USBFS_std.c ****                     USBFS_currentTD.pData = (volatile uint8 *)pTmp->p_list;
 114:Generated_Source\PSoC5/USBFS_std.c ****                     USBFS_currentTD.count = USBFS_DEVICE_DESCR_LENGTH;
 115:Generated_Source\PSoC5/USBFS_std.c ****                     
 116:Generated_Source\PSoC5/USBFS_std.c ****                     requestHandled  = USBFS_InitControlRead();
 117:Generated_Source\PSoC5/USBFS_std.c ****                 }
 118:Generated_Source\PSoC5/USBFS_std.c ****                 else if (USBFS_DESCR_CONFIG == USBFS_wValueHiReg)
 119:Generated_Source\PSoC5/USBFS_std.c ****                 {
 120:Generated_Source\PSoC5/USBFS_std.c ****                     pTmp = USBFS_GetConfigTablePtr((uint8) USBFS_wValueLoReg);
 121:Generated_Source\PSoC5/USBFS_std.c ****                     
 122:Generated_Source\PSoC5/USBFS_std.c ****                     /* Verify that requested descriptor exists */
 123:Generated_Source\PSoC5/USBFS_std.c ****                     if (pTmp != NULL)
 124:Generated_Source\PSoC5/USBFS_std.c ****                     {
 125:Generated_Source\PSoC5/USBFS_std.c ****                         USBFS_currentTD.pData = (volatile uint8 *)pTmp->p_list;
 126:Generated_Source\PSoC5/USBFS_std.c ****                         USBFS_currentTD.count = (uint16)((uint16)(USBFS_currentTD.pData)[USBFS_CONF
 127:Generated_Source\PSoC5/USBFS_std.c ****                                                                             (USBFS_currentTD.pData)
 128:Generated_Source\PSoC5/USBFS_std.c ****                         requestHandled  = USBFS_InitControlRead();
 129:Generated_Source\PSoC5/USBFS_std.c ****                     }
 130:Generated_Source\PSoC5/USBFS_std.c ****                 }
 131:Generated_Source\PSoC5/USBFS_std.c ****                 
 132:Generated_Source\PSoC5/USBFS_std.c ****             #if(USBFS_BOS_ENABLE)
 133:Generated_Source\PSoC5/USBFS_std.c ****                 else if (USBFS_DESCR_BOS == USBFS_wValueHiReg)
 134:Generated_Source\PSoC5/USBFS_std.c ****                 {
 135:Generated_Source\PSoC5/USBFS_std.c ****                     pTmp = USBFS_GetBOSPtr();
 136:Generated_Source\PSoC5/USBFS_std.c ****                     
 137:Generated_Source\PSoC5/USBFS_std.c ****                     /* Verify that requested descriptor exists */
 138:Generated_Source\PSoC5/USBFS_std.c ****                     if (pTmp != NULL)
 139:Generated_Source\PSoC5/USBFS_std.c ****                     {
 140:Generated_Source\PSoC5/USBFS_std.c ****                         USBFS_currentTD.pData = (volatile uint8 *)pTmp;
 141:Generated_Source\PSoC5/USBFS_std.c ****                         USBFS_currentTD.count = ((uint16)((uint16)(USBFS_currentTD.pData)[USBFS_BOS
 142:Generated_Source\PSoC5/USBFS_std.c ****                                                                              (USBFS_currentTD.pData
 143:Generated_Source\PSoC5/USBFS_std.c ****                         requestHandled  = USBFS_InitControlRead();
 144:Generated_Source\PSoC5/USBFS_std.c ****                     }
ARM GAS  C:\Users\Dan\AppData\Local\Temp\ccwiSTnc.s 			page 4


 145:Generated_Source\PSoC5/USBFS_std.c ****                 }
 146:Generated_Source\PSoC5/USBFS_std.c ****             #endif /*(USBFS_BOS_ENABLE)*/
 147:Generated_Source\PSoC5/USBFS_std.c ****             
 148:Generated_Source\PSoC5/USBFS_std.c ****             #if defined(USBFS_ENABLE_STRINGS)
 149:Generated_Source\PSoC5/USBFS_std.c ****                 else if (USBFS_DESCR_STRING == USBFS_wValueHiReg)
 150:Generated_Source\PSoC5/USBFS_std.c ****                 {
 151:Generated_Source\PSoC5/USBFS_std.c ****                 /* Descriptor Strings */
 152:Generated_Source\PSoC5/USBFS_std.c ****                 #if defined(USBFS_ENABLE_DESCRIPTOR_STRINGS)
 153:Generated_Source\PSoC5/USBFS_std.c ****                     nStr = 0u;
 154:Generated_Source\PSoC5/USBFS_std.c ****                     pStr = (volatile uint8 *) &USBFS_STRING_DESCRIPTORS[0u];
 155:Generated_Source\PSoC5/USBFS_std.c ****                     
 156:Generated_Source\PSoC5/USBFS_std.c ****                     while ((USBFS_wValueLoReg > nStr) && (*pStr != 0u))
 157:Generated_Source\PSoC5/USBFS_std.c ****                     {
 158:Generated_Source\PSoC5/USBFS_std.c ****                         /* Read descriptor length from 1st byte */
 159:Generated_Source\PSoC5/USBFS_std.c ****                         descrLength = *pStr;
 160:Generated_Source\PSoC5/USBFS_std.c ****                         /* Move to next string descriptor */
 161:Generated_Source\PSoC5/USBFS_std.c ****                         pStr = &pStr[descrLength];
 162:Generated_Source\PSoC5/USBFS_std.c ****                         nStr++;
 163:Generated_Source\PSoC5/USBFS_std.c ****                     }
 164:Generated_Source\PSoC5/USBFS_std.c ****                 #endif /* (USBFS_ENABLE_DESCRIPTOR_STRINGS) */
 165:Generated_Source\PSoC5/USBFS_std.c ****                 
 166:Generated_Source\PSoC5/USBFS_std.c ****                 /* Microsoft OS String */
 167:Generated_Source\PSoC5/USBFS_std.c ****                 #if defined(USBFS_ENABLE_MSOS_STRING)
 168:Generated_Source\PSoC5/USBFS_std.c ****                     if (USBFS_STRING_MSOS == USBFS_wValueLoReg)
 169:Generated_Source\PSoC5/USBFS_std.c ****                     {
 170:Generated_Source\PSoC5/USBFS_std.c ****                         pStr = (volatile uint8 *)& USBFS_MSOS_DESCRIPTOR[0u];
 171:Generated_Source\PSoC5/USBFS_std.c ****                     }
 172:Generated_Source\PSoC5/USBFS_std.c ****                 #endif /* (USBFS_ENABLE_MSOS_STRING) */
 173:Generated_Source\PSoC5/USBFS_std.c ****                 
 174:Generated_Source\PSoC5/USBFS_std.c ****                 /* SN string */
 175:Generated_Source\PSoC5/USBFS_std.c ****                 #if defined(USBFS_ENABLE_SN_STRING)
 176:Generated_Source\PSoC5/USBFS_std.c ****                     if ((USBFS_wValueLoReg != 0u) && 
 177:Generated_Source\PSoC5/USBFS_std.c ****                         (USBFS_wValueLoReg == USBFS_DEVICE0_DESCR[USBFS_DEVICE_DESCR_SN_SHIFT]))
 178:Generated_Source\PSoC5/USBFS_std.c ****                     {
 179:Generated_Source\PSoC5/USBFS_std.c ****                     #if defined(USBFS_ENABLE_IDSN_STRING)
 180:Generated_Source\PSoC5/USBFS_std.c ****                         /* Read DIE ID and generate string descriptor in RAM */
 181:Generated_Source\PSoC5/USBFS_std.c ****                         USBFS_ReadDieID(USBFS_idSerialNumberStringDescriptor);
 182:Generated_Source\PSoC5/USBFS_std.c ****                         pStr = USBFS_idSerialNumberStringDescriptor;
 183:Generated_Source\PSoC5/USBFS_std.c ****                     #elif defined(USBFS_ENABLE_FWSN_STRING)
 184:Generated_Source\PSoC5/USBFS_std.c ****                         
 185:Generated_Source\PSoC5/USBFS_std.c ****                         if(USBFS_snStringConfirm != USBFS_FALSE)
 186:Generated_Source\PSoC5/USBFS_std.c ****                         {
 187:Generated_Source\PSoC5/USBFS_std.c ****                             pStr = USBFS_fwSerialNumberStringDescriptor;
 188:Generated_Source\PSoC5/USBFS_std.c ****                         }
 189:Generated_Source\PSoC5/USBFS_std.c ****                         else
 190:Generated_Source\PSoC5/USBFS_std.c ****                         {
 191:Generated_Source\PSoC5/USBFS_std.c ****                             pStr = (volatile uint8 *)&USBFS_SN_STRING_DESCRIPTOR[0u];
 192:Generated_Source\PSoC5/USBFS_std.c ****                         }
 193:Generated_Source\PSoC5/USBFS_std.c ****                     #else
 194:Generated_Source\PSoC5/USBFS_std.c ****                         pStr = (volatile uint8 *)&USBFS_SN_STRING_DESCRIPTOR[0u];
 195:Generated_Source\PSoC5/USBFS_std.c ****                     #endif  /* (USBFS_ENABLE_IDSN_STRING) */
 196:Generated_Source\PSoC5/USBFS_std.c ****                     }
 197:Generated_Source\PSoC5/USBFS_std.c ****                 #endif /* (USBFS_ENABLE_SN_STRING) */
 198:Generated_Source\PSoC5/USBFS_std.c ****                 
 199:Generated_Source\PSoC5/USBFS_std.c ****                     if (*pStr != 0u)
 200:Generated_Source\PSoC5/USBFS_std.c ****                     {
 201:Generated_Source\PSoC5/USBFS_std.c ****                         USBFS_currentTD.count = *pStr;
ARM GAS  C:\Users\Dan\AppData\Local\Temp\ccwiSTnc.s 			page 5


 202:Generated_Source\PSoC5/USBFS_std.c ****                         USBFS_currentTD.pData = pStr;
 203:Generated_Source\PSoC5/USBFS_std.c ****                         requestHandled  = USBFS_InitControlRead();
 204:Generated_Source\PSoC5/USBFS_std.c ****                     }
 205:Generated_Source\PSoC5/USBFS_std.c ****                 }
 206:Generated_Source\PSoC5/USBFS_std.c ****             #endif /*  USBFS_ENABLE_STRINGS */
 207:Generated_Source\PSoC5/USBFS_std.c ****                 else
 208:Generated_Source\PSoC5/USBFS_std.c ****                 {
 209:Generated_Source\PSoC5/USBFS_std.c ****                     requestHandled = USBFS_DispatchClassRqst();
 210:Generated_Source\PSoC5/USBFS_std.c ****                 }
 211:Generated_Source\PSoC5/USBFS_std.c ****                 break;
 212:Generated_Source\PSoC5/USBFS_std.c ****                 
 213:Generated_Source\PSoC5/USBFS_std.c ****             case USBFS_GET_STATUS:
 214:Generated_Source\PSoC5/USBFS_std.c ****                 switch (bmRequestType & USBFS_RQST_RCPT_MASK)
 215:Generated_Source\PSoC5/USBFS_std.c ****                 {
 216:Generated_Source\PSoC5/USBFS_std.c ****                     case USBFS_RQST_RCPT_EP:
 217:Generated_Source\PSoC5/USBFS_std.c ****                         USBFS_currentTD.count = USBFS_EP_STATUS_LENGTH;
 218:Generated_Source\PSoC5/USBFS_std.c ****                         USBFS_tBuffer[0u]     = USBFS_EP[USBFS_wIndexLoReg & USBFS_DIR_UNUSED].hwEp
 219:Generated_Source\PSoC5/USBFS_std.c ****                         USBFS_tBuffer[1u]     = 0u;
 220:Generated_Source\PSoC5/USBFS_std.c ****                         USBFS_currentTD.pData = &USBFS_tBuffer[0u];
 221:Generated_Source\PSoC5/USBFS_std.c ****                         
 222:Generated_Source\PSoC5/USBFS_std.c ****                         requestHandled  = USBFS_InitControlRead();
 223:Generated_Source\PSoC5/USBFS_std.c ****                         break;
 224:Generated_Source\PSoC5/USBFS_std.c ****                     case USBFS_RQST_RCPT_DEV:
 225:Generated_Source\PSoC5/USBFS_std.c ****                         USBFS_currentTD.count = USBFS_DEVICE_STATUS_LENGTH;
 226:Generated_Source\PSoC5/USBFS_std.c ****                         USBFS_tBuffer[0u]     = USBFS_deviceStatus;
 227:Generated_Source\PSoC5/USBFS_std.c ****                         USBFS_tBuffer[1u]     = 0u;
 228:Generated_Source\PSoC5/USBFS_std.c ****                         USBFS_currentTD.pData = &USBFS_tBuffer[0u];
 229:Generated_Source\PSoC5/USBFS_std.c ****                         
 230:Generated_Source\PSoC5/USBFS_std.c ****                         requestHandled  = USBFS_InitControlRead();
 231:Generated_Source\PSoC5/USBFS_std.c ****                         break;
 232:Generated_Source\PSoC5/USBFS_std.c ****                     default:    /* requestHandled is initialized as FALSE by default */
 233:Generated_Source\PSoC5/USBFS_std.c ****                         break;
 234:Generated_Source\PSoC5/USBFS_std.c ****                 }
 235:Generated_Source\PSoC5/USBFS_std.c ****                 break;
 236:Generated_Source\PSoC5/USBFS_std.c ****                 
 237:Generated_Source\PSoC5/USBFS_std.c ****             case USBFS_GET_CONFIGURATION:
 238:Generated_Source\PSoC5/USBFS_std.c ****                 USBFS_currentTD.count = 1u;
 239:Generated_Source\PSoC5/USBFS_std.c ****                 USBFS_currentTD.pData = (volatile uint8 *) &USBFS_configuration;
 240:Generated_Source\PSoC5/USBFS_std.c ****                 requestHandled  = USBFS_InitControlRead();
 241:Generated_Source\PSoC5/USBFS_std.c ****                 break;
 242:Generated_Source\PSoC5/USBFS_std.c ****                 
 243:Generated_Source\PSoC5/USBFS_std.c ****             case USBFS_GET_INTERFACE:
 244:Generated_Source\PSoC5/USBFS_std.c ****                 USBFS_currentTD.count = 1u;
 245:Generated_Source\PSoC5/USBFS_std.c ****                 USBFS_currentTD.pData = (volatile uint8 *) &USBFS_interfaceSetting[USBFS_wIndexLoRe
 246:Generated_Source\PSoC5/USBFS_std.c ****                 requestHandled  = USBFS_InitControlRead();
 247:Generated_Source\PSoC5/USBFS_std.c ****                 break;
 248:Generated_Source\PSoC5/USBFS_std.c ****                 
 249:Generated_Source\PSoC5/USBFS_std.c ****             default: /* requestHandled is initialized as FALSE by default */
 250:Generated_Source\PSoC5/USBFS_std.c ****                 break;
 251:Generated_Source\PSoC5/USBFS_std.c ****         }
 252:Generated_Source\PSoC5/USBFS_std.c ****     }
 253:Generated_Source\PSoC5/USBFS_std.c ****     else
 254:Generated_Source\PSoC5/USBFS_std.c ****     {
 255:Generated_Source\PSoC5/USBFS_std.c ****         /* Control Write */
 256:Generated_Source\PSoC5/USBFS_std.c ****         switch (USBFS_bRequestReg)
 257:Generated_Source\PSoC5/USBFS_std.c ****         {
 258:Generated_Source\PSoC5/USBFS_std.c ****             case USBFS_SET_ADDRESS:
ARM GAS  C:\Users\Dan\AppData\Local\Temp\ccwiSTnc.s 			page 6


 259:Generated_Source\PSoC5/USBFS_std.c ****                 /* Store address to be set in USBFS_NoDataControlStatusStage(). */
 260:Generated_Source\PSoC5/USBFS_std.c ****                 USBFS_deviceAddress = (uint8) USBFS_wValueLoReg;
 261:Generated_Source\PSoC5/USBFS_std.c ****                 requestHandled = USBFS_InitNoDataControlTransfer();
 262:Generated_Source\PSoC5/USBFS_std.c ****                 break;
 263:Generated_Source\PSoC5/USBFS_std.c ****                 
 264:Generated_Source\PSoC5/USBFS_std.c ****             case USBFS_SET_CONFIGURATION:
 265:Generated_Source\PSoC5/USBFS_std.c ****                 configurationN = USBFS_wValueLoReg;
 266:Generated_Source\PSoC5/USBFS_std.c ****                 
 267:Generated_Source\PSoC5/USBFS_std.c ****                 /* Verify that configuration descriptor exists */
 268:Generated_Source\PSoC5/USBFS_std.c ****                 if(configurationN > 0u)
 269:Generated_Source\PSoC5/USBFS_std.c ****                 {
 270:Generated_Source\PSoC5/USBFS_std.c ****                     pTmp = USBFS_GetConfigTablePtr((uint8) configurationN - 1u);
 271:Generated_Source\PSoC5/USBFS_std.c ****                 }
 272:Generated_Source\PSoC5/USBFS_std.c ****                 
 273:Generated_Source\PSoC5/USBFS_std.c ****                 /* Responds with a Request Error when configuration number is invalid */
 274:Generated_Source\PSoC5/USBFS_std.c ****                 if (((configurationN > 0u) && (pTmp != NULL)) || (configurationN == 0u))
 275:Generated_Source\PSoC5/USBFS_std.c ****                 {
 276:Generated_Source\PSoC5/USBFS_std.c ****                     /* Set new configuration if it has been changed */
 277:Generated_Source\PSoC5/USBFS_std.c ****                     if(configurationN != USBFS_configuration)
 278:Generated_Source\PSoC5/USBFS_std.c ****                     {
 279:Generated_Source\PSoC5/USBFS_std.c ****                         USBFS_configuration = (uint8) configurationN;
 280:Generated_Source\PSoC5/USBFS_std.c ****                         USBFS_configurationChanged = USBFS_TRUE;
 281:Generated_Source\PSoC5/USBFS_std.c ****                         USBFS_Config(USBFS_TRUE);
 282:Generated_Source\PSoC5/USBFS_std.c ****                     }
 283:Generated_Source\PSoC5/USBFS_std.c ****                     requestHandled = USBFS_InitNoDataControlTransfer();
 284:Generated_Source\PSoC5/USBFS_std.c ****                 }
 285:Generated_Source\PSoC5/USBFS_std.c ****                 break;
 286:Generated_Source\PSoC5/USBFS_std.c ****                 
 287:Generated_Source\PSoC5/USBFS_std.c ****             case USBFS_SET_INTERFACE:
 288:Generated_Source\PSoC5/USBFS_std.c ****                 if (0u != USBFS_ValidateAlternateSetting())
 289:Generated_Source\PSoC5/USBFS_std.c ****                 {
 290:Generated_Source\PSoC5/USBFS_std.c ****                     /* Get interface number from the request. */
 291:Generated_Source\PSoC5/USBFS_std.c ****                     interfaceNumber = USBFS_wIndexLoReg;
 292:Generated_Source\PSoC5/USBFS_std.c ****                     USBFS_interfaceNumber = (uint8) USBFS_wIndexLoReg;
 293:Generated_Source\PSoC5/USBFS_std.c ****                      
 294:Generated_Source\PSoC5/USBFS_std.c ****                     /* Check if alternate settings is changed for interface. */
 295:Generated_Source\PSoC5/USBFS_std.c ****                     if (USBFS_interfaceSettingLast[interfaceNumber] != USBFS_interfaceSetting[inter
 296:Generated_Source\PSoC5/USBFS_std.c ****                     {
 297:Generated_Source\PSoC5/USBFS_std.c ****                         USBFS_configurationChanged = USBFS_TRUE;
 298:Generated_Source\PSoC5/USBFS_std.c ****                     
 299:Generated_Source\PSoC5/USBFS_std.c ****                         /* Change alternate setting for the endpoints. */
 300:Generated_Source\PSoC5/USBFS_std.c ****                     #if (USBFS_EP_MANAGEMENT_MANUAL && USBFS_EP_ALLOC_DYNAMIC)
 301:Generated_Source\PSoC5/USBFS_std.c ****                         USBFS_Config(USBFS_FALSE);
 302:Generated_Source\PSoC5/USBFS_std.c ****                     #else
 303:Generated_Source\PSoC5/USBFS_std.c ****                         USBFS_ConfigAltChanged();
 304:Generated_Source\PSoC5/USBFS_std.c ****                     #endif /* (USBFS_EP_MANAGEMENT_MANUAL && USBFS_EP_ALLOC_DYNAMIC) */
 305:Generated_Source\PSoC5/USBFS_std.c ****                     }
 306:Generated_Source\PSoC5/USBFS_std.c ****                     
 307:Generated_Source\PSoC5/USBFS_std.c ****                     requestHandled = USBFS_InitNoDataControlTransfer();
 308:Generated_Source\PSoC5/USBFS_std.c ****                 }
 309:Generated_Source\PSoC5/USBFS_std.c ****                 break;
 310:Generated_Source\PSoC5/USBFS_std.c ****                 
 311:Generated_Source\PSoC5/USBFS_std.c ****             case USBFS_CLEAR_FEATURE:
 312:Generated_Source\PSoC5/USBFS_std.c ****                 switch (bmRequestType & USBFS_RQST_RCPT_MASK)
 313:Generated_Source\PSoC5/USBFS_std.c ****                 {
 314:Generated_Source\PSoC5/USBFS_std.c ****                     case USBFS_RQST_RCPT_EP:
 315:Generated_Source\PSoC5/USBFS_std.c ****                         if (USBFS_wValueLoReg == USBFS_ENDPOINT_HALT)
ARM GAS  C:\Users\Dan\AppData\Local\Temp\ccwiSTnc.s 			page 7


 316:Generated_Source\PSoC5/USBFS_std.c ****                         {
 317:Generated_Source\PSoC5/USBFS_std.c ****                             requestHandled = USBFS_ClearEndpointHalt();
 318:Generated_Source\PSoC5/USBFS_std.c ****                         }
 319:Generated_Source\PSoC5/USBFS_std.c ****                         break;
 320:Generated_Source\PSoC5/USBFS_std.c ****                     case USBFS_RQST_RCPT_DEV:
 321:Generated_Source\PSoC5/USBFS_std.c ****                         /* Clear device REMOTE_WAKEUP */
 322:Generated_Source\PSoC5/USBFS_std.c ****                         if (USBFS_wValueLoReg == USBFS_DEVICE_REMOTE_WAKEUP)
 323:Generated_Source\PSoC5/USBFS_std.c ****                         {
 324:Generated_Source\PSoC5/USBFS_std.c ****                             USBFS_deviceStatus &= (uint8)~USBFS_DEVICE_STATUS_REMOTE_WAKEUP;
 325:Generated_Source\PSoC5/USBFS_std.c ****                             requestHandled = USBFS_InitNoDataControlTransfer();
 326:Generated_Source\PSoC5/USBFS_std.c ****                         }
 327:Generated_Source\PSoC5/USBFS_std.c ****                         break;
 328:Generated_Source\PSoC5/USBFS_std.c ****                     case USBFS_RQST_RCPT_IFC:
 329:Generated_Source\PSoC5/USBFS_std.c ****                         /* Validate interfaceNumber */
 330:Generated_Source\PSoC5/USBFS_std.c ****                         if (USBFS_wIndexLoReg < USBFS_MAX_INTERFACES_NUMBER)
 331:Generated_Source\PSoC5/USBFS_std.c ****                         {
 332:Generated_Source\PSoC5/USBFS_std.c ****                             USBFS_interfaceStatus[USBFS_wIndexLoReg] &= (uint8) ~USBFS_wValueLoReg;
 333:Generated_Source\PSoC5/USBFS_std.c ****                             requestHandled = USBFS_InitNoDataControlTransfer();
 334:Generated_Source\PSoC5/USBFS_std.c ****                         }
 335:Generated_Source\PSoC5/USBFS_std.c ****                         break;
 336:Generated_Source\PSoC5/USBFS_std.c ****                     default:    /* requestHandled is initialized as FALSE by default */
 337:Generated_Source\PSoC5/USBFS_std.c ****                         break;
 338:Generated_Source\PSoC5/USBFS_std.c ****                 }
 339:Generated_Source\PSoC5/USBFS_std.c ****                 break;
 340:Generated_Source\PSoC5/USBFS_std.c ****                 
 341:Generated_Source\PSoC5/USBFS_std.c ****             case USBFS_SET_FEATURE:
 342:Generated_Source\PSoC5/USBFS_std.c ****                 switch (bmRequestType & USBFS_RQST_RCPT_MASK)
 343:Generated_Source\PSoC5/USBFS_std.c ****                 {
 344:Generated_Source\PSoC5/USBFS_std.c ****                     case USBFS_RQST_RCPT_EP:
 345:Generated_Source\PSoC5/USBFS_std.c ****                         if (USBFS_wValueLoReg == USBFS_ENDPOINT_HALT)
 346:Generated_Source\PSoC5/USBFS_std.c ****                         {
 347:Generated_Source\PSoC5/USBFS_std.c ****                             requestHandled = USBFS_SetEndpointHalt();
 348:Generated_Source\PSoC5/USBFS_std.c ****                         }
 349:Generated_Source\PSoC5/USBFS_std.c ****                         break;
 350:Generated_Source\PSoC5/USBFS_std.c ****                         
 351:Generated_Source\PSoC5/USBFS_std.c ****                     case USBFS_RQST_RCPT_DEV:
 352:Generated_Source\PSoC5/USBFS_std.c ****                         /* Set device REMOTE_WAKEUP */
 353:Generated_Source\PSoC5/USBFS_std.c ****                         if (USBFS_wValueLoReg == USBFS_DEVICE_REMOTE_WAKEUP)
 354:Generated_Source\PSoC5/USBFS_std.c ****                         {
 355:Generated_Source\PSoC5/USBFS_std.c ****                             USBFS_deviceStatus |= USBFS_DEVICE_STATUS_REMOTE_WAKEUP;
 356:Generated_Source\PSoC5/USBFS_std.c ****                             requestHandled = USBFS_InitNoDataControlTransfer();
 357:Generated_Source\PSoC5/USBFS_std.c ****                         }
 358:Generated_Source\PSoC5/USBFS_std.c ****                         break;
 359:Generated_Source\PSoC5/USBFS_std.c ****                         
 360:Generated_Source\PSoC5/USBFS_std.c ****                     case USBFS_RQST_RCPT_IFC:
 361:Generated_Source\PSoC5/USBFS_std.c ****                         /* Validate interfaceNumber */
 362:Generated_Source\PSoC5/USBFS_std.c ****                         if (USBFS_wIndexLoReg < USBFS_MAX_INTERFACES_NUMBER)
 363:Generated_Source\PSoC5/USBFS_std.c ****                         {
 364:Generated_Source\PSoC5/USBFS_std.c ****                             USBFS_interfaceStatus[USBFS_wIndexLoReg] &= (uint8) ~USBFS_wValueLoReg;
 365:Generated_Source\PSoC5/USBFS_std.c ****                             requestHandled = USBFS_InitNoDataControlTransfer();
 366:Generated_Source\PSoC5/USBFS_std.c ****                         }
 367:Generated_Source\PSoC5/USBFS_std.c ****                         break;
 368:Generated_Source\PSoC5/USBFS_std.c ****                     
 369:Generated_Source\PSoC5/USBFS_std.c ****                     default:    /* requestHandled is initialized as FALSE by default */
 370:Generated_Source\PSoC5/USBFS_std.c ****                         break;
 371:Generated_Source\PSoC5/USBFS_std.c ****                 }
 372:Generated_Source\PSoC5/USBFS_std.c ****                 break;
ARM GAS  C:\Users\Dan\AppData\Local\Temp\ccwiSTnc.s 			page 8


 373:Generated_Source\PSoC5/USBFS_std.c ****                 
 374:Generated_Source\PSoC5/USBFS_std.c ****             default:    /* requestHandled is initialized as FALSE by default */
 375:Generated_Source\PSoC5/USBFS_std.c ****                 break;
 376:Generated_Source\PSoC5/USBFS_std.c ****         }
 377:Generated_Source\PSoC5/USBFS_std.c ****     }
 378:Generated_Source\PSoC5/USBFS_std.c ****     
 379:Generated_Source\PSoC5/USBFS_std.c ****     return (requestHandled);
 380:Generated_Source\PSoC5/USBFS_std.c **** }
 381:Generated_Source\PSoC5/USBFS_std.c **** 
 382:Generated_Source\PSoC5/USBFS_std.c **** 
 383:Generated_Source\PSoC5/USBFS_std.c **** #if defined(USBFS_ENABLE_IDSN_STRING)
 384:Generated_Source\PSoC5/USBFS_std.c ****     /***************************************************************************
 385:Generated_Source\PSoC5/USBFS_std.c ****     * Function Name: USBFS_ReadDieID
 386:Generated_Source\PSoC5/USBFS_std.c ****     ************************************************************************//**
 387:Generated_Source\PSoC5/USBFS_std.c ****     *
 388:Generated_Source\PSoC5/USBFS_std.c ****     *  This routine read Die ID and generate Serial Number string descriptor.
 389:Generated_Source\PSoC5/USBFS_std.c ****     *
 390:Generated_Source\PSoC5/USBFS_std.c ****     *  \param descr:  pointer on string descriptor. This string size has to be equal or
 391:Generated_Source\PSoC5/USBFS_std.c ****     *          greater than USBFS_IDSN_DESCR_LENGTH.
 392:Generated_Source\PSoC5/USBFS_std.c ****     *
 393:Generated_Source\PSoC5/USBFS_std.c ****     *
 394:Generated_Source\PSoC5/USBFS_std.c ****     * \reentrant
 395:Generated_Source\PSoC5/USBFS_std.c ****     *  No.
 396:Generated_Source\PSoC5/USBFS_std.c ****     *
 397:Generated_Source\PSoC5/USBFS_std.c ****     ***************************************************************************/
 398:Generated_Source\PSoC5/USBFS_std.c ****     void USBFS_ReadDieID(uint8 descr[]) 
 399:Generated_Source\PSoC5/USBFS_std.c ****     {
 400:Generated_Source\PSoC5/USBFS_std.c ****         const char8 CYCODE hex[] = "0123456789ABCDEF";
 401:Generated_Source\PSoC5/USBFS_std.c ****         uint8 i;
 402:Generated_Source\PSoC5/USBFS_std.c ****         uint8 j = 0u;
 403:Generated_Source\PSoC5/USBFS_std.c ****         uint8 uniqueId[8u];
 404:Generated_Source\PSoC5/USBFS_std.c **** 
 405:Generated_Source\PSoC5/USBFS_std.c ****         if (NULL != descr)
 406:Generated_Source\PSoC5/USBFS_std.c ****         {
 407:Generated_Source\PSoC5/USBFS_std.c ****             /* Initialize descriptor header. */
 408:Generated_Source\PSoC5/USBFS_std.c ****             descr[0u] = USBFS_IDSN_DESCR_LENGTH;
 409:Generated_Source\PSoC5/USBFS_std.c ****             descr[1u] = USBFS_DESCR_STRING;
 410:Generated_Source\PSoC5/USBFS_std.c ****             
 411:Generated_Source\PSoC5/USBFS_std.c ****             /* Unique ID size is 8 bytes. */
 412:Generated_Source\PSoC5/USBFS_std.c ****             CyGetUniqueId((uint32 *) uniqueId);
 413:Generated_Source\PSoC5/USBFS_std.c **** 
 414:Generated_Source\PSoC5/USBFS_std.c ****             /* Fill descriptor with unique device ID. */
 415:Generated_Source\PSoC5/USBFS_std.c ****             for (i = 2u; i < USBFS_IDSN_DESCR_LENGTH; i += 4u)
 416:Generated_Source\PSoC5/USBFS_std.c ****             {
 417:Generated_Source\PSoC5/USBFS_std.c ****                 descr[i]      = (uint8) hex[(uniqueId[j] >> 4u)];
 418:Generated_Source\PSoC5/USBFS_std.c ****                 descr[i + 1u] = 0u;
 419:Generated_Source\PSoC5/USBFS_std.c ****                 descr[i + 2u] = (uint8) hex[(uniqueId[j] & 0x0Fu)];
 420:Generated_Source\PSoC5/USBFS_std.c ****                 descr[i + 3u] = 0u;
 421:Generated_Source\PSoC5/USBFS_std.c ****                 ++j;
 422:Generated_Source\PSoC5/USBFS_std.c ****             }
 423:Generated_Source\PSoC5/USBFS_std.c ****         }
 424:Generated_Source\PSoC5/USBFS_std.c ****     }
 425:Generated_Source\PSoC5/USBFS_std.c **** #endif /* (USBFS_ENABLE_IDSN_STRING) */
 426:Generated_Source\PSoC5/USBFS_std.c **** 
 427:Generated_Source\PSoC5/USBFS_std.c **** 
 428:Generated_Source\PSoC5/USBFS_std.c **** /*******************************************************************************
 429:Generated_Source\PSoC5/USBFS_std.c **** * Function Name: USBFS_ConfigReg
ARM GAS  C:\Users\Dan\AppData\Local\Temp\ccwiSTnc.s 			page 9


 430:Generated_Source\PSoC5/USBFS_std.c **** ****************************************************************************//**
 431:Generated_Source\PSoC5/USBFS_std.c **** *
 432:Generated_Source\PSoC5/USBFS_std.c **** *  This routine configures hardware registers from the variables.
 433:Generated_Source\PSoC5/USBFS_std.c **** *  It is called from USBFS_Config() function and from RestoreConfig
 434:Generated_Source\PSoC5/USBFS_std.c **** *  after Wakeup.
 435:Generated_Source\PSoC5/USBFS_std.c **** *
 436:Generated_Source\PSoC5/USBFS_std.c **** *******************************************************************************/
 437:Generated_Source\PSoC5/USBFS_std.c **** void USBFS_ConfigReg(void) 
 438:Generated_Source\PSoC5/USBFS_std.c **** {
  28              		.loc 1 438 0
  29              		.cfi_startproc
  30              		@ args = 0, pretend = 0, frame = 0
  31              		@ frame_needed = 0, uses_anonymous_args = 0
  32              		@ link register save eliminated.
  33 0000 10B4     		push	{r4}
  34              		.cfi_def_cfa_offset 4
  35              		.cfi_offset 4, -4
  36              	.LVL0:
 439:Generated_Source\PSoC5/USBFS_std.c ****     uint8 ep;
 440:Generated_Source\PSoC5/USBFS_std.c **** 
 441:Generated_Source\PSoC5/USBFS_std.c **** #if (USBFS_EP_MANAGEMENT_DMA_AUTO)
 442:Generated_Source\PSoC5/USBFS_std.c ****     uint8 epType = 0u;
 443:Generated_Source\PSoC5/USBFS_std.c **** #endif /* (USBFS_EP_MANAGEMENT_DMA_AUTO) */
 444:Generated_Source\PSoC5/USBFS_std.c **** 
 445:Generated_Source\PSoC5/USBFS_std.c ****     /* Go thought all endpoints and set hardware configuration */
 446:Generated_Source\PSoC5/USBFS_std.c ****     for (ep = USBFS_EP1; ep < USBFS_MAX_EP; ++ep)
  37              		.loc 1 446 0
  38 0002 0123     		movs	r3, #1
  39 0004 3EE0     		b	.L2
  40              	.LVL1:
  41              	.L6:
 447:Generated_Source\PSoC5/USBFS_std.c ****     {
 448:Generated_Source\PSoC5/USBFS_std.c ****         USBFS_ARB_EP_BASE.arbEp[ep].epCfg = USBFS_ARB_EPX_CFG_DEFAULT;
  42              		.loc 1 448 0
  43 0006 1946     		mov	r1, r3
  44 0008 1A01     		lsls	r2, r3, #4
  45 000a 0C24     		movs	r4, #12
  46 000c 2148     		ldr	r0, .L8
  47 000e 8454     		strb	r4, [r0, r2]
 449:Generated_Source\PSoC5/USBFS_std.c ****         
 450:Generated_Source\PSoC5/USBFS_std.c ****     #if (USBFS_EP_MANAGEMENT_DMA)
 451:Generated_Source\PSoC5/USBFS_std.c ****         /* Enable arbiter endpoint interrupt sources */
 452:Generated_Source\PSoC5/USBFS_std.c ****         USBFS_ARB_EP_BASE.arbEp[ep].epIntEn = USBFS_ARB_EPX_INT_MASK;
 453:Generated_Source\PSoC5/USBFS_std.c ****     #endif /* (USBFS_EP_MANAGEMENT_DMA) */
 454:Generated_Source\PSoC5/USBFS_std.c ****     
 455:Generated_Source\PSoC5/USBFS_std.c ****         if (USBFS_EP[ep].epMode != USBFS_MODE_DISABLE)
  48              		.loc 1 455 0
  49 0010 03EB4300 		add	r0, r3, r3, lsl #1
  50 0014 8200     		lsls	r2, r0, #2
  51 0016 2048     		ldr	r0, .L8+4
  52 0018 0244     		add	r2, r2, r0
  53 001a 5279     		ldrb	r2, [r2, #5]	@ zero_extendqisi2
  54 001c 12F0FF0F 		tst	r2, #255
  55 0020 13D0     		beq	.L3
 456:Generated_Source\PSoC5/USBFS_std.c ****         {
 457:Generated_Source\PSoC5/USBFS_std.c ****             if (0u != (USBFS_EP[ep].addr & USBFS_DIR_IN))
  56              		.loc 1 457 0
ARM GAS  C:\Users\Dan\AppData\Local\Temp\ccwiSTnc.s 			page 10


  57 0022 03EB4300 		add	r0, r3, r3, lsl #1
  58 0026 8200     		lsls	r2, r0, #2
  59 0028 1B48     		ldr	r0, .L8+4
  60 002a 0244     		add	r2, r2, r0
  61 002c 1279     		ldrb	r2, [r2, #4]	@ zero_extendqisi2
  62 002e 12F0800F 		tst	r2, #128
  63 0032 04D0     		beq	.L4
 458:Generated_Source\PSoC5/USBFS_std.c ****             {
 459:Generated_Source\PSoC5/USBFS_std.c ****                 USBFS_SIE_EP_BASE.sieEp[ep].epCr0 = USBFS_MODE_NAK_IN;
  64              		.loc 1 459 0
  65 0034 1801     		lsls	r0, r3, #4
  66 0036 194A     		ldr	r2, .L8+8
  67 0038 0244     		add	r2, r2, r0
  68 003a 9470     		strb	r4, [r2, #2]
  69 003c 0AE0     		b	.L5
  70              	.L4:
 460:Generated_Source\PSoC5/USBFS_std.c ****                 
 461:Generated_Source\PSoC5/USBFS_std.c ****             #if (USBFS_EP_MANAGEMENT_DMA_AUTO && CY_PSOC4)
 462:Generated_Source\PSoC5/USBFS_std.c ****                 /* Clear DMA_TERMIN for IN endpoint. */
 463:Generated_Source\PSoC5/USBFS_std.c ****                 USBFS_ARB_EP_BASE.arbEp[ep].epIntEn &= (uint32) ~USBFS_ARB_EPX_INT_DMA_TERMIN;
 464:Generated_Source\PSoC5/USBFS_std.c ****             #endif /* (USBFS_EP_MANAGEMENT_DMA_AUTO && CY_PSOC4) */
 465:Generated_Source\PSoC5/USBFS_std.c ****             }
 466:Generated_Source\PSoC5/USBFS_std.c ****             else
 467:Generated_Source\PSoC5/USBFS_std.c ****             {
 468:Generated_Source\PSoC5/USBFS_std.c ****                 USBFS_SIE_EP_BASE.sieEp[ep].epCr0 = USBFS_MODE_NAK_OUT;
  71              		.loc 1 468 0
  72 003e 1801     		lsls	r0, r3, #4
  73 0040 164A     		ldr	r2, .L8+8
  74 0042 0244     		add	r2, r2, r0
  75 0044 0820     		movs	r0, #8
  76 0046 9070     		strb	r0, [r2, #2]
  77 0048 04E0     		b	.L5
  78              	.L3:
 469:Generated_Source\PSoC5/USBFS_std.c **** 
 470:Generated_Source\PSoC5/USBFS_std.c ****             #if (USBFS_EP_MANAGEMENT_DMA_AUTO)
 471:Generated_Source\PSoC5/USBFS_std.c ****                 /* (CY_PSOC4): DMA_TERMIN for OUT endpoint is set above. */
 472:Generated_Source\PSoC5/USBFS_std.c ****                 
 473:Generated_Source\PSoC5/USBFS_std.c ****                 /* Prepare endpoint type mask. */
 474:Generated_Source\PSoC5/USBFS_std.c ****                 epType |= (uint8) (0x01u << (ep - USBFS_EP1));
 475:Generated_Source\PSoC5/USBFS_std.c ****             #endif /* (USBFS_EP_MANAGEMENT_DMA_AUTO) */
 476:Generated_Source\PSoC5/USBFS_std.c ****             }
 477:Generated_Source\PSoC5/USBFS_std.c ****         }
 478:Generated_Source\PSoC5/USBFS_std.c ****         else
 479:Generated_Source\PSoC5/USBFS_std.c ****         {
 480:Generated_Source\PSoC5/USBFS_std.c ****             USBFS_SIE_EP_BASE.sieEp[ep].epCr0 = USBFS_MODE_STALL_DATA_EP;
  79              		.loc 1 480 0
  80 004a 1801     		lsls	r0, r3, #4
  81 004c 134A     		ldr	r2, .L8+8
  82 004e 0244     		add	r2, r2, r0
  83 0050 8020     		movs	r0, #128
  84 0052 9070     		strb	r0, [r2, #2]
  85              	.L5:
 481:Generated_Source\PSoC5/USBFS_std.c ****         }
 482:Generated_Source\PSoC5/USBFS_std.c ****         
 483:Generated_Source\PSoC5/USBFS_std.c ****     #if (!USBFS_EP_MANAGEMENT_DMA_AUTO)
 484:Generated_Source\PSoC5/USBFS_std.c ****         #if (CY_PSOC4)
 485:Generated_Source\PSoC5/USBFS_std.c ****             USBFS_ARB_EP16_BASE.arbEp[ep].rwRa16  = (uint32) USBFS_EP[ep].buffOffset;
ARM GAS  C:\Users\Dan\AppData\Local\Temp\ccwiSTnc.s 			page 11


 486:Generated_Source\PSoC5/USBFS_std.c ****             USBFS_ARB_EP16_BASE.arbEp[ep].rwWa16  = (uint32) USBFS_EP[ep].buffOffset;
 487:Generated_Source\PSoC5/USBFS_std.c ****         #else
 488:Generated_Source\PSoC5/USBFS_std.c ****             USBFS_ARB_EP_BASE.arbEp[ep].rwRa    = LO8(USBFS_EP[ep].buffOffset);
  86              		.loc 1 488 0 discriminator 2
  87 0054 4800     		lsls	r0, r1, #1
  88 0056 0844     		add	r0, r0, r1
  89 0058 8200     		lsls	r2, r0, #2
  90 005a 0F48     		ldr	r0, .L8+4
  91 005c 0244     		add	r2, r2, r0
  92 005e D488     		ldrh	r4, [r2, #6]
  93 0060 E4B2     		uxtb	r4, r4
  94 0062 0801     		lsls	r0, r1, #4
  95 0064 0B49     		ldr	r1, .L8
  96 0066 0144     		add	r1, r1, r0
  97 0068 8C71     		strb	r4, [r1, #6]
 489:Generated_Source\PSoC5/USBFS_std.c ****             USBFS_ARB_EP_BASE.arbEp[ep].rwRaMsb = HI8(USBFS_EP[ep].buffOffset);
  98              		.loc 1 489 0 discriminator 2
  99 006a D088     		ldrh	r0, [r2, #6]
 100 006c C0F30720 		ubfx	r0, r0, #8, #8
 101 0070 C871     		strb	r0, [r1, #7]
 490:Generated_Source\PSoC5/USBFS_std.c ****             USBFS_ARB_EP_BASE.arbEp[ep].rwWa    = LO8(USBFS_EP[ep].buffOffset);
 102              		.loc 1 490 0 discriminator 2
 103 0072 D088     		ldrh	r0, [r2, #6]
 104 0074 C0B2     		uxtb	r0, r0
 105 0076 0871     		strb	r0, [r1, #4]
 491:Generated_Source\PSoC5/USBFS_std.c ****             USBFS_ARB_EP_BASE.arbEp[ep].rwWaMsb = HI8(USBFS_EP[ep].buffOffset);
 106              		.loc 1 491 0 discriminator 2
 107 0078 D288     		ldrh	r2, [r2, #6]
 108 007a C2F30722 		ubfx	r2, r2, #8, #8
 109 007e 4A71     		strb	r2, [r1, #5]
 446:Generated_Source\PSoC5/USBFS_std.c ****     {
 110              		.loc 1 446 0 discriminator 2
 111 0080 0133     		adds	r3, r3, #1
 112              	.LVL2:
 113 0082 DBB2     		uxtb	r3, r3
 114              	.LVL3:
 115              	.L2:
 446:Generated_Source\PSoC5/USBFS_std.c ****     {
 116              		.loc 1 446 0 is_stmt 0 discriminator 1
 117 0084 082B     		cmp	r3, #8
 118 0086 BED9     		bls	.L6
 492:Generated_Source\PSoC5/USBFS_std.c ****         #endif /* (CY_PSOC4) */
 493:Generated_Source\PSoC5/USBFS_std.c ****     #endif /* (!USBFS_EP_MANAGEMENT_DMA_AUTO) */
 494:Generated_Source\PSoC5/USBFS_std.c ****     }
 495:Generated_Source\PSoC5/USBFS_std.c **** 
 496:Generated_Source\PSoC5/USBFS_std.c **** #if (USBFS_EP_MANAGEMENT_DMA_AUTO)
 497:Generated_Source\PSoC5/USBFS_std.c ****      /* BUF_SIZE depend on DMA_THRESS value:0x55-32 bytes  0x44-16 bytes 0x33-8 bytes 0x22-4 bytes 
 498:Generated_Source\PSoC5/USBFS_std.c ****     USBFS_BUF_SIZE_REG = USBFS_DMA_BUF_SIZE;
 499:Generated_Source\PSoC5/USBFS_std.c **** 
 500:Generated_Source\PSoC5/USBFS_std.c ****     /* Configure DMA burst threshold */
 501:Generated_Source\PSoC5/USBFS_std.c **** #if (CY_PSOC4)
 502:Generated_Source\PSoC5/USBFS_std.c ****     USBFS_DMA_THRES16_REG   = USBFS_DMA_BYTES_PER_BURST;
 503:Generated_Source\PSoC5/USBFS_std.c **** #else
 504:Generated_Source\PSoC5/USBFS_std.c ****     USBFS_DMA_THRES_REG     = USBFS_DMA_BYTES_PER_BURST;
 505:Generated_Source\PSoC5/USBFS_std.c ****     USBFS_DMA_THRES_MSB_REG = 0u;
 506:Generated_Source\PSoC5/USBFS_std.c **** #endif /* (CY_PSOC4) */
 507:Generated_Source\PSoC5/USBFS_std.c ****     USBFS_EP_ACTIVE_REG = USBFS_DEFAULT_ARB_INT_EN;
ARM GAS  C:\Users\Dan\AppData\Local\Temp\ccwiSTnc.s 			page 12


 508:Generated_Source\PSoC5/USBFS_std.c ****     USBFS_EP_TYPE_REG   = epType;
 509:Generated_Source\PSoC5/USBFS_std.c ****     
 510:Generated_Source\PSoC5/USBFS_std.c ****     /* Cfg_cmp bit set to 1 once configuration is complete. */
 511:Generated_Source\PSoC5/USBFS_std.c ****     /* Lock arbiter configtuation */
 512:Generated_Source\PSoC5/USBFS_std.c ****     USBFS_ARB_CFG_REG |= (uint8)  USBFS_ARB_CFG_CFG_CMP;
 513:Generated_Source\PSoC5/USBFS_std.c ****     /* Cfg_cmp bit set to 0 during configuration of PFSUSB Registers. */
 514:Generated_Source\PSoC5/USBFS_std.c ****     USBFS_ARB_CFG_REG &= (uint8) ~USBFS_ARB_CFG_CFG_CMP;
 515:Generated_Source\PSoC5/USBFS_std.c **** 
 516:Generated_Source\PSoC5/USBFS_std.c **** #endif /* (USBFS_EP_MANAGEMENT_DMA_AUTO) */
 517:Generated_Source\PSoC5/USBFS_std.c **** 
 518:Generated_Source\PSoC5/USBFS_std.c ****     /* Enable interrupt SIE interurpt source from EP0-EP1 */
 519:Generated_Source\PSoC5/USBFS_std.c ****     USBFS_SIE_EP_INT_EN_REG = (uint8) USBFS_DEFAULT_SIE_EP_INT_EN;
 119              		.loc 1 519 0 is_stmt 1
 120 0088 FF22     		movs	r2, #255
 121 008a 054B     		ldr	r3, .L8+12
 122              	.LVL4:
 123 008c 1A70     		strb	r2, [r3]
 520:Generated_Source\PSoC5/USBFS_std.c **** }
 124              		.loc 1 520 0
 125 008e 10BC     		pop	{r4}
 126              		.cfi_restore 4
 127              		.cfi_def_cfa_offset 0
 128 0090 7047     		bx	lr
 129              	.L9:
 130 0092 00BF     		.align	2
 131              	.L8:
 132 0094 70600040 		.word	1073766512
 133 0098 00000000 		.word	USBFS_EP
 134 009c FC5F0040 		.word	1073766396
 135 00a0 0A600040 		.word	1073766410
 136              		.cfi_endproc
 137              	.LFE1:
 138              		.size	USBFS_ConfigReg, .-USBFS_ConfigReg
 139              		.section	.text.USBFS_EpStateInit,"ax",%progbits
 140              		.align	2
 141              		.global	USBFS_EpStateInit
 142              		.thumb
 143              		.thumb_func
 144              		.type	USBFS_EpStateInit, %function
 145              	USBFS_EpStateInit:
 146              	.LFB2:
 521:Generated_Source\PSoC5/USBFS_std.c **** 
 522:Generated_Source\PSoC5/USBFS_std.c **** 
 523:Generated_Source\PSoC5/USBFS_std.c **** /*******************************************************************************
 524:Generated_Source\PSoC5/USBFS_std.c **** * Function Name: USBFS_EpStateInit
 525:Generated_Source\PSoC5/USBFS_std.c **** ****************************************************************************//**
 526:Generated_Source\PSoC5/USBFS_std.c **** *
 527:Generated_Source\PSoC5/USBFS_std.c **** *  This routine initialize state of Data end points based of its type: 
 528:Generated_Source\PSoC5/USBFS_std.c **** *   IN  - USBFS_IN_BUFFER_EMPTY (USBFS_EVENT_PENDING)
 529:Generated_Source\PSoC5/USBFS_std.c **** *   OUT - USBFS_OUT_BUFFER_EMPTY (USBFS_NO_EVENT_PENDING)
 530:Generated_Source\PSoC5/USBFS_std.c **** *
 531:Generated_Source\PSoC5/USBFS_std.c **** *******************************************************************************/
 532:Generated_Source\PSoC5/USBFS_std.c **** void USBFS_EpStateInit(void) 
 533:Generated_Source\PSoC5/USBFS_std.c **** {
 147              		.loc 1 533 0
 148              		.cfi_startproc
 149              		@ args = 0, pretend = 0, frame = 0
ARM GAS  C:\Users\Dan\AppData\Local\Temp\ccwiSTnc.s 			page 13


 150              		@ frame_needed = 0, uses_anonymous_args = 0
 151              		@ link register save eliminated.
 152              	.LVL5:
 534:Generated_Source\PSoC5/USBFS_std.c ****     uint8 i;
 535:Generated_Source\PSoC5/USBFS_std.c **** 
 536:Generated_Source\PSoC5/USBFS_std.c ****     for (i = USBFS_EP1; i < USBFS_MAX_EP; i++)
 153              		.loc 1 536 0
 154 0000 0123     		movs	r3, #1
 155 0002 19E0     		b	.L11
 156              	.LVL6:
 157              	.L14:
 537:Generated_Source\PSoC5/USBFS_std.c ****     { 
 538:Generated_Source\PSoC5/USBFS_std.c ****         if (0u != (USBFS_EP[i].addr & USBFS_DIR_IN))
 158              		.loc 1 538 0
 159 0004 03EB4301 		add	r1, r3, r3, lsl #1
 160 0008 8A00     		lsls	r2, r1, #2
 161 000a 0D49     		ldr	r1, .L15
 162 000c 0A44     		add	r2, r2, r1
 163 000e 1279     		ldrb	r2, [r2, #4]	@ zero_extendqisi2
 164 0010 12F0800F 		tst	r2, #128
 165 0014 07D0     		beq	.L12
 539:Generated_Source\PSoC5/USBFS_std.c ****         {
 540:Generated_Source\PSoC5/USBFS_std.c ****             /* IN Endpoint */
 541:Generated_Source\PSoC5/USBFS_std.c ****             USBFS_EP[i].apiEpState = USBFS_EVENT_PENDING;
 166              		.loc 1 541 0
 167 0016 03EB4301 		add	r1, r3, r3, lsl #1
 168 001a 8A00     		lsls	r2, r1, #2
 169 001c 0849     		ldr	r1, .L15
 170 001e 0A44     		add	r2, r2, r1
 171 0020 0121     		movs	r1, #1
 172 0022 5170     		strb	r1, [r2, #1]
 173 0024 06E0     		b	.L13
 174              	.L12:
 542:Generated_Source\PSoC5/USBFS_std.c ****         }
 543:Generated_Source\PSoC5/USBFS_std.c ****         else
 544:Generated_Source\PSoC5/USBFS_std.c ****         {
 545:Generated_Source\PSoC5/USBFS_std.c ****             /* OUT Endpoint */
 546:Generated_Source\PSoC5/USBFS_std.c ****             USBFS_EP[i].apiEpState = USBFS_NO_EVENT_PENDING;
 175              		.loc 1 546 0
 176 0026 03EB4301 		add	r1, r3, r3, lsl #1
 177 002a 8A00     		lsls	r2, r1, #2
 178 002c 0449     		ldr	r1, .L15
 179 002e 0A44     		add	r2, r2, r1
 180 0030 0021     		movs	r1, #0
 181 0032 5170     		strb	r1, [r2, #1]
 182              	.L13:
 536:Generated_Source\PSoC5/USBFS_std.c ****     { 
 183              		.loc 1 536 0 discriminator 2
 184 0034 0133     		adds	r3, r3, #1
 185              	.LVL7:
 186 0036 DBB2     		uxtb	r3, r3
 187              	.LVL8:
 188              	.L11:
 536:Generated_Source\PSoC5/USBFS_std.c ****     { 
 189              		.loc 1 536 0 is_stmt 0 discriminator 1
 190 0038 082B     		cmp	r3, #8
 191 003a E3D9     		bls	.L14
ARM GAS  C:\Users\Dan\AppData\Local\Temp\ccwiSTnc.s 			page 14


 547:Generated_Source\PSoC5/USBFS_std.c ****         }
 548:Generated_Source\PSoC5/USBFS_std.c ****     }
 549:Generated_Source\PSoC5/USBFS_std.c ****                     
 550:Generated_Source\PSoC5/USBFS_std.c **** }
 192              		.loc 1 550 0 is_stmt 1
 193 003c 7047     		bx	lr
 194              	.L16:
 195 003e 00BF     		.align	2
 196              	.L15:
 197 0040 00000000 		.word	USBFS_EP
 198              		.cfi_endproc
 199              	.LFE2:
 200              		.size	USBFS_EpStateInit, .-USBFS_EpStateInit
 201              		.section	.text.USBFS_GetConfigTablePtr,"ax",%progbits
 202              		.align	2
 203              		.global	USBFS_GetConfigTablePtr
 204              		.thumb
 205              		.thumb_func
 206              		.type	USBFS_GetConfigTablePtr, %function
 207              	USBFS_GetConfigTablePtr:
 208              	.LFB5:
 551:Generated_Source\PSoC5/USBFS_std.c **** 
 552:Generated_Source\PSoC5/USBFS_std.c **** 
 553:Generated_Source\PSoC5/USBFS_std.c **** /*******************************************************************************
 554:Generated_Source\PSoC5/USBFS_std.c **** * Function Name: USBFS_Config
 555:Generated_Source\PSoC5/USBFS_std.c **** ****************************************************************************//**
 556:Generated_Source\PSoC5/USBFS_std.c **** *
 557:Generated_Source\PSoC5/USBFS_std.c **** *  This routine configures endpoints for the entire configuration by scanning
 558:Generated_Source\PSoC5/USBFS_std.c **** *  the configuration descriptor.
 559:Generated_Source\PSoC5/USBFS_std.c **** *
 560:Generated_Source\PSoC5/USBFS_std.c **** *  \param clearAltSetting: It configures the bAlternateSetting 0 for each interface.
 561:Generated_Source\PSoC5/USBFS_std.c **** *
 562:Generated_Source\PSoC5/USBFS_std.c **** * USBFS_interfaceClass - Initialized class array for each interface.
 563:Generated_Source\PSoC5/USBFS_std.c **** *   It is used for handling Class specific requests depend on interface class.
 564:Generated_Source\PSoC5/USBFS_std.c **** *   Different classes in multiple Alternate settings does not supported.
 565:Generated_Source\PSoC5/USBFS_std.c **** *
 566:Generated_Source\PSoC5/USBFS_std.c **** * \reentrant
 567:Generated_Source\PSoC5/USBFS_std.c **** *  No.
 568:Generated_Source\PSoC5/USBFS_std.c **** *
 569:Generated_Source\PSoC5/USBFS_std.c **** *******************************************************************************/
 570:Generated_Source\PSoC5/USBFS_std.c **** void USBFS_Config(uint8 clearAltSetting) 
 571:Generated_Source\PSoC5/USBFS_std.c **** {
 572:Generated_Source\PSoC5/USBFS_std.c ****     uint8 ep;
 573:Generated_Source\PSoC5/USBFS_std.c ****     uint8 curEp;
 574:Generated_Source\PSoC5/USBFS_std.c ****     uint8 i;
 575:Generated_Source\PSoC5/USBFS_std.c ****     uint8 epType;
 576:Generated_Source\PSoC5/USBFS_std.c ****     const uint8 *pDescr;
 577:Generated_Source\PSoC5/USBFS_std.c ****     
 578:Generated_Source\PSoC5/USBFS_std.c ****     #if (!USBFS_EP_MANAGEMENT_DMA_AUTO)
 579:Generated_Source\PSoC5/USBFS_std.c ****         uint16 buffCount = 0u;
 580:Generated_Source\PSoC5/USBFS_std.c ****     #endif /* (!USBFS_EP_MANAGEMENT_DMA_AUTO) */
 581:Generated_Source\PSoC5/USBFS_std.c **** 
 582:Generated_Source\PSoC5/USBFS_std.c ****     const T_USBFS_LUT CYCODE *pTmp;
 583:Generated_Source\PSoC5/USBFS_std.c ****     const T_USBFS_EP_SETTINGS_BLOCK CYCODE *pEP;
 584:Generated_Source\PSoC5/USBFS_std.c **** 
 585:Generated_Source\PSoC5/USBFS_std.c ****     /* Clear endpoints settings */
 586:Generated_Source\PSoC5/USBFS_std.c ****     for (ep = 0u; ep < USBFS_MAX_EP; ++ep)
ARM GAS  C:\Users\Dan\AppData\Local\Temp\ccwiSTnc.s 			page 15


 587:Generated_Source\PSoC5/USBFS_std.c ****     {
 588:Generated_Source\PSoC5/USBFS_std.c ****         USBFS_EP[ep].attrib     = 0u;
 589:Generated_Source\PSoC5/USBFS_std.c ****         USBFS_EP[ep].hwEpState  = 0u;
 590:Generated_Source\PSoC5/USBFS_std.c ****         USBFS_EP[ep].epToggle   = 0u;
 591:Generated_Source\PSoC5/USBFS_std.c ****         USBFS_EP[ep].bufferSize = 0u;
 592:Generated_Source\PSoC5/USBFS_std.c ****         USBFS_EP[ep].interface  = 0u;
 593:Generated_Source\PSoC5/USBFS_std.c ****         USBFS_EP[ep].apiEpState = USBFS_NO_EVENT_PENDING;
 594:Generated_Source\PSoC5/USBFS_std.c ****         USBFS_EP[ep].epMode     = USBFS_MODE_DISABLE;   
 595:Generated_Source\PSoC5/USBFS_std.c ****     }
 596:Generated_Source\PSoC5/USBFS_std.c **** 
 597:Generated_Source\PSoC5/USBFS_std.c ****     /* Clear Alternate settings for all interfaces. */
 598:Generated_Source\PSoC5/USBFS_std.c ****     if (0u != clearAltSetting)
 599:Generated_Source\PSoC5/USBFS_std.c ****     {
 600:Generated_Source\PSoC5/USBFS_std.c ****         for (i = 0u; i < USBFS_MAX_INTERFACES_NUMBER; ++i)
 601:Generated_Source\PSoC5/USBFS_std.c ****         {
 602:Generated_Source\PSoC5/USBFS_std.c ****             USBFS_interfaceSetting[i]     = 0u;
 603:Generated_Source\PSoC5/USBFS_std.c ****             USBFS_interfaceSettingLast[i] = 0u;
 604:Generated_Source\PSoC5/USBFS_std.c ****         }
 605:Generated_Source\PSoC5/USBFS_std.c ****     }
 606:Generated_Source\PSoC5/USBFS_std.c **** 
 607:Generated_Source\PSoC5/USBFS_std.c ****     /* Init Endpoints and Device Status if configured */
 608:Generated_Source\PSoC5/USBFS_std.c ****     if (USBFS_configuration > 0u)
 609:Generated_Source\PSoC5/USBFS_std.c ****     {
 610:Generated_Source\PSoC5/USBFS_std.c ****         #if defined(USBFS_ENABLE_CDC_CLASS)
 611:Generated_Source\PSoC5/USBFS_std.c ****             uint8 cdcComNums = 0u;
 612:Generated_Source\PSoC5/USBFS_std.c ****         #endif  /* (USBFS_ENABLE_CDC_CLASS) */  
 613:Generated_Source\PSoC5/USBFS_std.c **** 
 614:Generated_Source\PSoC5/USBFS_std.c ****         pTmp = USBFS_GetConfigTablePtr(USBFS_configuration - 1u);
 615:Generated_Source\PSoC5/USBFS_std.c ****         
 616:Generated_Source\PSoC5/USBFS_std.c ****         /* Set Power status for current configuration */
 617:Generated_Source\PSoC5/USBFS_std.c ****         pDescr = (const uint8 *)pTmp->p_list;
 618:Generated_Source\PSoC5/USBFS_std.c ****         if ((pDescr[USBFS_CONFIG_DESCR_ATTRIB] & USBFS_CONFIG_DESCR_ATTRIB_SELF_POWERED) != 0u)
 619:Generated_Source\PSoC5/USBFS_std.c ****         {
 620:Generated_Source\PSoC5/USBFS_std.c ****             USBFS_deviceStatus |= (uint8)  USBFS_DEVICE_STATUS_SELF_POWERED;
 621:Generated_Source\PSoC5/USBFS_std.c ****         }
 622:Generated_Source\PSoC5/USBFS_std.c ****         else
 623:Generated_Source\PSoC5/USBFS_std.c ****         {
 624:Generated_Source\PSoC5/USBFS_std.c ****             USBFS_deviceStatus &= (uint8) ~USBFS_DEVICE_STATUS_SELF_POWERED;
 625:Generated_Source\PSoC5/USBFS_std.c ****         }
 626:Generated_Source\PSoC5/USBFS_std.c ****         
 627:Generated_Source\PSoC5/USBFS_std.c ****         /* Move to next element */
 628:Generated_Source\PSoC5/USBFS_std.c ****         pTmp = &pTmp[1u];
 629:Generated_Source\PSoC5/USBFS_std.c ****         ep = pTmp->c;  /* For this table, c is the number of endpoints configurations  */
 630:Generated_Source\PSoC5/USBFS_std.c **** 
 631:Generated_Source\PSoC5/USBFS_std.c ****         #if (USBFS_EP_MANAGEMENT_MANUAL && USBFS_EP_ALLOC_DYNAMIC)
 632:Generated_Source\PSoC5/USBFS_std.c ****             /* Configure for dynamic EP memory allocation */
 633:Generated_Source\PSoC5/USBFS_std.c ****             /* p_list points the endpoint setting table. */
 634:Generated_Source\PSoC5/USBFS_std.c ****             pEP = (T_USBFS_EP_SETTINGS_BLOCK *) pTmp->p_list;
 635:Generated_Source\PSoC5/USBFS_std.c ****             
 636:Generated_Source\PSoC5/USBFS_std.c ****             for (i = 0u; i < ep; i++)
 637:Generated_Source\PSoC5/USBFS_std.c ****             {     
 638:Generated_Source\PSoC5/USBFS_std.c ****                 /* Compare current Alternate setting with EP Alt */
 639:Generated_Source\PSoC5/USBFS_std.c ****                 if (USBFS_interfaceSetting[pEP->interface] == pEP->altSetting)
 640:Generated_Source\PSoC5/USBFS_std.c ****                 {                                                          
 641:Generated_Source\PSoC5/USBFS_std.c ****                     curEp  = pEP->addr & USBFS_DIR_UNUSED;
 642:Generated_Source\PSoC5/USBFS_std.c ****                     epType = pEP->attributes & USBFS_EP_TYPE_MASK;
 643:Generated_Source\PSoC5/USBFS_std.c ****                     
ARM GAS  C:\Users\Dan\AppData\Local\Temp\ccwiSTnc.s 			page 16


 644:Generated_Source\PSoC5/USBFS_std.c ****                     USBFS_EP[curEp].addr       = pEP->addr;
 645:Generated_Source\PSoC5/USBFS_std.c ****                     USBFS_EP[curEp].attrib     = pEP->attributes;
 646:Generated_Source\PSoC5/USBFS_std.c ****                     USBFS_EP[curEp].bufferSize = pEP->bufferSize;
 647:Generated_Source\PSoC5/USBFS_std.c **** 
 648:Generated_Source\PSoC5/USBFS_std.c ****                     if (0u != (pEP->addr & USBFS_DIR_IN))
 649:Generated_Source\PSoC5/USBFS_std.c ****                     {
 650:Generated_Source\PSoC5/USBFS_std.c ****                         /* IN Endpoint */
 651:Generated_Source\PSoC5/USBFS_std.c ****                         USBFS_EP[curEp].epMode     = USBFS_GET_ACTIVE_IN_EP_CR0_MODE(epType);
 652:Generated_Source\PSoC5/USBFS_std.c ****                         USBFS_EP[curEp].apiEpState = USBFS_EVENT_PENDING;
 653:Generated_Source\PSoC5/USBFS_std.c ****                     
 654:Generated_Source\PSoC5/USBFS_std.c ****                     #if (defined(USBFS_ENABLE_MIDI_STREAMING) && (USBFS_MIDI_IN_BUFF_SIZE > 0))
 655:Generated_Source\PSoC5/USBFS_std.c ****                         if ((pEP->bMisc == USBFS_CLASS_AUDIO) && (epType == USBFS_EP_TYPE_BULK))
 656:Generated_Source\PSoC5/USBFS_std.c ****                         {
 657:Generated_Source\PSoC5/USBFS_std.c ****                             USBFS_midi_in_ep = curEp;
 658:Generated_Source\PSoC5/USBFS_std.c ****                         }
 659:Generated_Source\PSoC5/USBFS_std.c ****                     #endif  /* (USBFS_ENABLE_MIDI_STREAMING) */
 660:Generated_Source\PSoC5/USBFS_std.c ****                     }
 661:Generated_Source\PSoC5/USBFS_std.c ****                     else
 662:Generated_Source\PSoC5/USBFS_std.c ****                     {
 663:Generated_Source\PSoC5/USBFS_std.c ****                         /* OUT Endpoint */
 664:Generated_Source\PSoC5/USBFS_std.c ****                         USBFS_EP[curEp].epMode     = USBFS_GET_ACTIVE_OUT_EP_CR0_MODE(epType);
 665:Generated_Source\PSoC5/USBFS_std.c ****                         USBFS_EP[curEp].apiEpState = USBFS_NO_EVENT_PENDING;
 666:Generated_Source\PSoC5/USBFS_std.c ****                         
 667:Generated_Source\PSoC5/USBFS_std.c ****                     #if (defined(USBFS_ENABLE_MIDI_STREAMING) && (USBFS_MIDI_OUT_BUFF_SIZE > 0))
 668:Generated_Source\PSoC5/USBFS_std.c ****                         if ((pEP->bMisc == USBFS_CLASS_AUDIO) && (epType == USBFS_EP_TYPE_BULK))
 669:Generated_Source\PSoC5/USBFS_std.c ****                         {
 670:Generated_Source\PSoC5/USBFS_std.c ****                             USBFS_midi_out_ep = curEp;
 671:Generated_Source\PSoC5/USBFS_std.c ****                         }
 672:Generated_Source\PSoC5/USBFS_std.c ****                     #endif  /* (USBFS_ENABLE_MIDI_STREAMING) */
 673:Generated_Source\PSoC5/USBFS_std.c ****                     }
 674:Generated_Source\PSoC5/USBFS_std.c **** 
 675:Generated_Source\PSoC5/USBFS_std.c ****                 #if(defined (USBFS_ENABLE_CDC_CLASS))
 676:Generated_Source\PSoC5/USBFS_std.c ****                     if((pEP->bMisc == USBFS_CLASS_CDC_DATA) ||(pEP->bMisc == USBFS_CLASS_CDC))
 677:Generated_Source\PSoC5/USBFS_std.c ****                     {
 678:Generated_Source\PSoC5/USBFS_std.c ****                         cdcComNums = USBFS_Cdc_EpInit(pEP, curEp, cdcComNums);
 679:Generated_Source\PSoC5/USBFS_std.c ****                     }
 680:Generated_Source\PSoC5/USBFS_std.c ****                 #endif  /* (USBFS_ENABLE_CDC_CLASS) */
 681:Generated_Source\PSoC5/USBFS_std.c ****                 }
 682:Generated_Source\PSoC5/USBFS_std.c ****                 
 683:Generated_Source\PSoC5/USBFS_std.c ****                 pEP = &pEP[1u];
 684:Generated_Source\PSoC5/USBFS_std.c ****             }
 685:Generated_Source\PSoC5/USBFS_std.c ****             
 686:Generated_Source\PSoC5/USBFS_std.c ****         #else
 687:Generated_Source\PSoC5/USBFS_std.c ****             for (i = USBFS_EP1; i < USBFS_MAX_EP; ++i)
 688:Generated_Source\PSoC5/USBFS_std.c ****             {
 689:Generated_Source\PSoC5/USBFS_std.c ****                 /* p_list points the endpoint setting table. */
 690:Generated_Source\PSoC5/USBFS_std.c ****                 pEP = (const T_USBFS_EP_SETTINGS_BLOCK CYCODE *) pTmp->p_list;
 691:Generated_Source\PSoC5/USBFS_std.c ****                 /* Find max length for each EP and select it (length could be different in differen
 692:Generated_Source\PSoC5/USBFS_std.c ****                 /* but other settings should be correct with regards to Interface alt Setting */
 693:Generated_Source\PSoC5/USBFS_std.c ****                 
 694:Generated_Source\PSoC5/USBFS_std.c ****                 for (curEp = 0u; curEp < ep; ++curEp)
 695:Generated_Source\PSoC5/USBFS_std.c ****                 {
 696:Generated_Source\PSoC5/USBFS_std.c ****                     if (i == (pEP->addr & USBFS_DIR_UNUSED))
 697:Generated_Source\PSoC5/USBFS_std.c ****                     {
 698:Generated_Source\PSoC5/USBFS_std.c ****                         /* Compare endpoint buffers size with current size to find greater. */
 699:Generated_Source\PSoC5/USBFS_std.c ****                         if (USBFS_EP[i].bufferSize < pEP->bufferSize)
 700:Generated_Source\PSoC5/USBFS_std.c ****                         {
ARM GAS  C:\Users\Dan\AppData\Local\Temp\ccwiSTnc.s 			page 17


 701:Generated_Source\PSoC5/USBFS_std.c ****                             USBFS_EP[i].bufferSize = pEP->bufferSize;
 702:Generated_Source\PSoC5/USBFS_std.c ****                         }
 703:Generated_Source\PSoC5/USBFS_std.c ****                         
 704:Generated_Source\PSoC5/USBFS_std.c ****                         /* Compare current Alternate setting with EP Alt */
 705:Generated_Source\PSoC5/USBFS_std.c ****                         if (USBFS_interfaceSetting[pEP->interface] == pEP->altSetting)
 706:Generated_Source\PSoC5/USBFS_std.c ****                         {                            
 707:Generated_Source\PSoC5/USBFS_std.c ****                             USBFS_EP[i].addr = pEP->addr;
 708:Generated_Source\PSoC5/USBFS_std.c ****                             USBFS_EP[i].attrib = pEP->attributes;
 709:Generated_Source\PSoC5/USBFS_std.c ****                             
 710:Generated_Source\PSoC5/USBFS_std.c ****                             epType = pEP->attributes & USBFS_EP_TYPE_MASK;
 711:Generated_Source\PSoC5/USBFS_std.c ****                             
 712:Generated_Source\PSoC5/USBFS_std.c ****                             if (0u != (pEP->addr & USBFS_DIR_IN))
 713:Generated_Source\PSoC5/USBFS_std.c ****                             {
 714:Generated_Source\PSoC5/USBFS_std.c ****                                 /* IN Endpoint */
 715:Generated_Source\PSoC5/USBFS_std.c ****                                 USBFS_EP[i].epMode     = USBFS_GET_ACTIVE_IN_EP_CR0_MODE(epType);
 716:Generated_Source\PSoC5/USBFS_std.c ****                                 USBFS_EP[i].apiEpState = USBFS_EVENT_PENDING;
 717:Generated_Source\PSoC5/USBFS_std.c ****                                 
 718:Generated_Source\PSoC5/USBFS_std.c ****                             #if (defined(USBFS_ENABLE_MIDI_STREAMING) && (USBFS_MIDI_IN_BUFF_SIZE >
 719:Generated_Source\PSoC5/USBFS_std.c ****                                 if ((pEP->bMisc == USBFS_CLASS_AUDIO) && (epType == USBFS_EP_TYPE_B
 720:Generated_Source\PSoC5/USBFS_std.c ****                                 {
 721:Generated_Source\PSoC5/USBFS_std.c ****                                     USBFS_midi_in_ep = i;
 722:Generated_Source\PSoC5/USBFS_std.c ****                                 }
 723:Generated_Source\PSoC5/USBFS_std.c ****                             #endif  /* (USBFS_ENABLE_MIDI_STREAMING) */
 724:Generated_Source\PSoC5/USBFS_std.c ****                             }
 725:Generated_Source\PSoC5/USBFS_std.c ****                             else
 726:Generated_Source\PSoC5/USBFS_std.c ****                             {
 727:Generated_Source\PSoC5/USBFS_std.c ****                                 /* OUT Endpoint */
 728:Generated_Source\PSoC5/USBFS_std.c ****                                 USBFS_EP[i].epMode     = USBFS_GET_ACTIVE_OUT_EP_CR0_MODE(epType);
 729:Generated_Source\PSoC5/USBFS_std.c ****                                 USBFS_EP[i].apiEpState = USBFS_NO_EVENT_PENDING;
 730:Generated_Source\PSoC5/USBFS_std.c ****                                 
 731:Generated_Source\PSoC5/USBFS_std.c ****                             #if (defined(USBFS_ENABLE_MIDI_STREAMING) && (USBFS_MIDI_OUT_BUFF_SIZE 
 732:Generated_Source\PSoC5/USBFS_std.c ****                                 if ((pEP->bMisc == USBFS_CLASS_AUDIO) && (epType == USBFS_EP_TYPE_B
 733:Generated_Source\PSoC5/USBFS_std.c ****                                 {
 734:Generated_Source\PSoC5/USBFS_std.c ****                                     USBFS_midi_out_ep = i;
 735:Generated_Source\PSoC5/USBFS_std.c ****                                 }
 736:Generated_Source\PSoC5/USBFS_std.c ****                             #endif  /* (USBFS_ENABLE_MIDI_STREAMING) */
 737:Generated_Source\PSoC5/USBFS_std.c ****                             }
 738:Generated_Source\PSoC5/USBFS_std.c **** 
 739:Generated_Source\PSoC5/USBFS_std.c ****                         #if (defined(USBFS_ENABLE_CDC_CLASS))
 740:Generated_Source\PSoC5/USBFS_std.c ****                             if((pEP->bMisc == USBFS_CLASS_CDC_DATA) ||(pEP->bMisc == USBFS_CLASS_CD
 741:Generated_Source\PSoC5/USBFS_std.c ****                             {
 742:Generated_Source\PSoC5/USBFS_std.c ****                                 cdcComNums = USBFS_Cdc_EpInit(pEP, i, cdcComNums);
 743:Generated_Source\PSoC5/USBFS_std.c ****                             }
 744:Generated_Source\PSoC5/USBFS_std.c ****                         #endif  /* (USBFS_ENABLE_CDC_CLASS) */
 745:Generated_Source\PSoC5/USBFS_std.c **** 
 746:Generated_Source\PSoC5/USBFS_std.c ****                             #if (USBFS_EP_MANAGEMENT_DMA_AUTO)
 747:Generated_Source\PSoC5/USBFS_std.c ****                                 break;  /* Use first EP setting in Auto memory management */
 748:Generated_Source\PSoC5/USBFS_std.c ****                             #endif /* (USBFS_EP_MANAGEMENT_DMA_AUTO) */
 749:Generated_Source\PSoC5/USBFS_std.c ****                         }
 750:Generated_Source\PSoC5/USBFS_std.c ****                     }
 751:Generated_Source\PSoC5/USBFS_std.c ****                     
 752:Generated_Source\PSoC5/USBFS_std.c ****                     pEP = &pEP[1u];
 753:Generated_Source\PSoC5/USBFS_std.c ****                 }
 754:Generated_Source\PSoC5/USBFS_std.c ****             }
 755:Generated_Source\PSoC5/USBFS_std.c ****         #endif /*  (USBFS_EP_MANAGEMENT_MANUAL && USBFS_EP_ALLOC_DYNAMIC) */
 756:Generated_Source\PSoC5/USBFS_std.c **** 
 757:Generated_Source\PSoC5/USBFS_std.c ****         /* Init class array for each interface and interface number for each EP.
ARM GAS  C:\Users\Dan\AppData\Local\Temp\ccwiSTnc.s 			page 18


 758:Generated_Source\PSoC5/USBFS_std.c ****         *  It is used for handling Class specific requests directed to either an
 759:Generated_Source\PSoC5/USBFS_std.c ****         *  interface or the endpoint.
 760:Generated_Source\PSoC5/USBFS_std.c ****         */
 761:Generated_Source\PSoC5/USBFS_std.c ****         /* p_list points the endpoint setting table. */
 762:Generated_Source\PSoC5/USBFS_std.c ****         pEP = (const T_USBFS_EP_SETTINGS_BLOCK CYCODE *) pTmp->p_list;
 763:Generated_Source\PSoC5/USBFS_std.c ****         for (i = 0u; i < ep; i++)
 764:Generated_Source\PSoC5/USBFS_std.c ****         {
 765:Generated_Source\PSoC5/USBFS_std.c ****             /* Configure interface number for each EP */
 766:Generated_Source\PSoC5/USBFS_std.c ****             USBFS_EP[pEP->addr & USBFS_DIR_UNUSED].interface = pEP->interface;
 767:Generated_Source\PSoC5/USBFS_std.c ****             pEP = &pEP[1u];
 768:Generated_Source\PSoC5/USBFS_std.c ****         }
 769:Generated_Source\PSoC5/USBFS_std.c ****         
 770:Generated_Source\PSoC5/USBFS_std.c ****         /* Init pointer on interface class table */
 771:Generated_Source\PSoC5/USBFS_std.c ****         USBFS_interfaceClass = USBFS_GetInterfaceClassTablePtr();
 772:Generated_Source\PSoC5/USBFS_std.c ****         
 773:Generated_Source\PSoC5/USBFS_std.c ****     /* Set the endpoint buffer addresses */
 774:Generated_Source\PSoC5/USBFS_std.c ****     #if (!USBFS_EP_MANAGEMENT_DMA_AUTO)
 775:Generated_Source\PSoC5/USBFS_std.c ****         buffCount = 0u;
 776:Generated_Source\PSoC5/USBFS_std.c ****         for (ep = USBFS_EP1; ep < USBFS_MAX_EP; ++ep)
 777:Generated_Source\PSoC5/USBFS_std.c ****         {
 778:Generated_Source\PSoC5/USBFS_std.c ****             USBFS_EP[ep].buffOffset = buffCount;        
 779:Generated_Source\PSoC5/USBFS_std.c ****             buffCount += USBFS_EP[ep].bufferSize;
 780:Generated_Source\PSoC5/USBFS_std.c ****             
 781:Generated_Source\PSoC5/USBFS_std.c ****         #if (USBFS_GEN_16BITS_EP_ACCESS)
 782:Generated_Source\PSoC5/USBFS_std.c ****             /* Align EP buffers to be event size to access 16-bits DR register. */
 783:Generated_Source\PSoC5/USBFS_std.c ****             buffCount += (0u != (buffCount & 0x01u)) ? 1u : 0u;
 784:Generated_Source\PSoC5/USBFS_std.c ****         #endif /* (USBFS_GEN_16BITS_EP_ACCESS) */            
 785:Generated_Source\PSoC5/USBFS_std.c ****         }
 786:Generated_Source\PSoC5/USBFS_std.c ****     #endif /* (!USBFS_EP_MANAGEMENT_DMA_AUTO) */
 787:Generated_Source\PSoC5/USBFS_std.c **** 
 788:Generated_Source\PSoC5/USBFS_std.c ****         /* Configure hardware registers */
 789:Generated_Source\PSoC5/USBFS_std.c ****         USBFS_ConfigReg();
 790:Generated_Source\PSoC5/USBFS_std.c ****     }
 791:Generated_Source\PSoC5/USBFS_std.c **** }
 792:Generated_Source\PSoC5/USBFS_std.c **** 
 793:Generated_Source\PSoC5/USBFS_std.c **** 
 794:Generated_Source\PSoC5/USBFS_std.c **** /*******************************************************************************
 795:Generated_Source\PSoC5/USBFS_std.c **** * Function Name: USBFS_ConfigAltChanged
 796:Generated_Source\PSoC5/USBFS_std.c **** ****************************************************************************//**
 797:Generated_Source\PSoC5/USBFS_std.c **** *
 798:Generated_Source\PSoC5/USBFS_std.c **** *  This routine update configuration for the required endpoints only.
 799:Generated_Source\PSoC5/USBFS_std.c **** *  It is called after SET_INTERFACE request when Static memory allocation used.
 800:Generated_Source\PSoC5/USBFS_std.c **** *
 801:Generated_Source\PSoC5/USBFS_std.c **** * \reentrant
 802:Generated_Source\PSoC5/USBFS_std.c **** *  No.
 803:Generated_Source\PSoC5/USBFS_std.c **** *
 804:Generated_Source\PSoC5/USBFS_std.c **** *******************************************************************************/
 805:Generated_Source\PSoC5/USBFS_std.c **** void USBFS_ConfigAltChanged(void) 
 806:Generated_Source\PSoC5/USBFS_std.c **** {
 807:Generated_Source\PSoC5/USBFS_std.c ****     uint8 ep;
 808:Generated_Source\PSoC5/USBFS_std.c ****     uint8 curEp;
 809:Generated_Source\PSoC5/USBFS_std.c ****     uint8 epType;
 810:Generated_Source\PSoC5/USBFS_std.c ****     uint8 i;
 811:Generated_Source\PSoC5/USBFS_std.c ****     uint8 interfaceNum;
 812:Generated_Source\PSoC5/USBFS_std.c **** 
 813:Generated_Source\PSoC5/USBFS_std.c ****     const T_USBFS_LUT CYCODE *pTmp;
 814:Generated_Source\PSoC5/USBFS_std.c ****     const T_USBFS_EP_SETTINGS_BLOCK CYCODE *pEP;
ARM GAS  C:\Users\Dan\AppData\Local\Temp\ccwiSTnc.s 			page 19


 815:Generated_Source\PSoC5/USBFS_std.c **** 
 816:Generated_Source\PSoC5/USBFS_std.c ****     /* Init Endpoints and Device Status if configured */
 817:Generated_Source\PSoC5/USBFS_std.c ****     if (USBFS_configuration > 0u)
 818:Generated_Source\PSoC5/USBFS_std.c ****     {
 819:Generated_Source\PSoC5/USBFS_std.c ****         /* Get number of endpoints configurations (ep). */
 820:Generated_Source\PSoC5/USBFS_std.c ****         pTmp = USBFS_GetConfigTablePtr(USBFS_configuration - 1u);
 821:Generated_Source\PSoC5/USBFS_std.c ****         pTmp = &pTmp[1u];
 822:Generated_Source\PSoC5/USBFS_std.c ****         ep = pTmp->c;
 823:Generated_Source\PSoC5/USBFS_std.c **** 
 824:Generated_Source\PSoC5/USBFS_std.c ****         /* Get pointer to endpoints setting table (pEP). */
 825:Generated_Source\PSoC5/USBFS_std.c ****         pEP = (const T_USBFS_EP_SETTINGS_BLOCK CYCODE *) pTmp->p_list;
 826:Generated_Source\PSoC5/USBFS_std.c ****         
 827:Generated_Source\PSoC5/USBFS_std.c ****         /* Look through all possible endpoint configurations. Find endpoints 
 828:Generated_Source\PSoC5/USBFS_std.c ****         * which belong to current interface and alternate settings for 
 829:Generated_Source\PSoC5/USBFS_std.c ****         * re-configuration.
 830:Generated_Source\PSoC5/USBFS_std.c ****         */
 831:Generated_Source\PSoC5/USBFS_std.c ****         interfaceNum = USBFS_interfaceNumber;
 832:Generated_Source\PSoC5/USBFS_std.c ****         for (i = 0u; i < ep; i++)
 833:Generated_Source\PSoC5/USBFS_std.c ****         {
 834:Generated_Source\PSoC5/USBFS_std.c ****             /* Find endpoints which belong to current interface and alternate settings. */
 835:Generated_Source\PSoC5/USBFS_std.c ****             if ((interfaceNum == pEP->interface) && 
 836:Generated_Source\PSoC5/USBFS_std.c ****                 (USBFS_interfaceSetting[interfaceNum] == pEP->altSetting))
 837:Generated_Source\PSoC5/USBFS_std.c ****             {
 838:Generated_Source\PSoC5/USBFS_std.c ****                 curEp  = ((uint8) pEP->addr & USBFS_DIR_UNUSED);
 839:Generated_Source\PSoC5/USBFS_std.c ****                 epType = ((uint8) pEP->attributes & USBFS_EP_TYPE_MASK);
 840:Generated_Source\PSoC5/USBFS_std.c ****                 
 841:Generated_Source\PSoC5/USBFS_std.c ****                 /* Change the SIE mode for the selected EP to NAK ALL */
 842:Generated_Source\PSoC5/USBFS_std.c ****                 USBFS_EP[curEp].epToggle   = 0u;
 843:Generated_Source\PSoC5/USBFS_std.c ****                 USBFS_EP[curEp].addr       = pEP->addr;
 844:Generated_Source\PSoC5/USBFS_std.c ****                 USBFS_EP[curEp].attrib     = pEP->attributes;
 845:Generated_Source\PSoC5/USBFS_std.c ****                 USBFS_EP[curEp].bufferSize = pEP->bufferSize;
 846:Generated_Source\PSoC5/USBFS_std.c **** 
 847:Generated_Source\PSoC5/USBFS_std.c ****                 if (0u != (pEP->addr & USBFS_DIR_IN))
 848:Generated_Source\PSoC5/USBFS_std.c ****                 {
 849:Generated_Source\PSoC5/USBFS_std.c ****                     /* IN Endpoint */
 850:Generated_Source\PSoC5/USBFS_std.c ****                     USBFS_EP[curEp].epMode     = USBFS_GET_ACTIVE_IN_EP_CR0_MODE(epType);
 851:Generated_Source\PSoC5/USBFS_std.c ****                     USBFS_EP[curEp].apiEpState = USBFS_EVENT_PENDING;
 852:Generated_Source\PSoC5/USBFS_std.c ****                 }
 853:Generated_Source\PSoC5/USBFS_std.c ****                 else
 854:Generated_Source\PSoC5/USBFS_std.c ****                 {
 855:Generated_Source\PSoC5/USBFS_std.c ****                     /* OUT Endpoint */
 856:Generated_Source\PSoC5/USBFS_std.c ****                     USBFS_EP[curEp].epMode     = USBFS_GET_ACTIVE_OUT_EP_CR0_MODE(epType);
 857:Generated_Source\PSoC5/USBFS_std.c ****                     USBFS_EP[curEp].apiEpState = USBFS_NO_EVENT_PENDING;
 858:Generated_Source\PSoC5/USBFS_std.c ****                 }
 859:Generated_Source\PSoC5/USBFS_std.c ****                 
 860:Generated_Source\PSoC5/USBFS_std.c ****                 /* Make SIE to NAK any endpoint requests */
 861:Generated_Source\PSoC5/USBFS_std.c ****                 USBFS_SIE_EP_BASE.sieEp[curEp].epCr0 = USBFS_MODE_NAK_IN_OUT;
 862:Generated_Source\PSoC5/USBFS_std.c **** 
 863:Generated_Source\PSoC5/USBFS_std.c ****             #if (USBFS_EP_MANAGEMENT_DMA_AUTO)
 864:Generated_Source\PSoC5/USBFS_std.c ****                 /* Clear IN data ready. */
 865:Generated_Source\PSoC5/USBFS_std.c ****                 USBFS_ARB_EP_BASE.arbEp[curEp].epCfg &= (uint8) ~USBFS_ARB_EPX_CFG_IN_DATA_RDY;
 866:Generated_Source\PSoC5/USBFS_std.c **** 
 867:Generated_Source\PSoC5/USBFS_std.c ****                 /* Select endpoint number of reconfiguration */
 868:Generated_Source\PSoC5/USBFS_std.c ****                 USBFS_DYN_RECONFIG_REG = (uint8) ((curEp - 1u) << USBFS_DYN_RECONFIG_EP_SHIFT);
 869:Generated_Source\PSoC5/USBFS_std.c ****                 
 870:Generated_Source\PSoC5/USBFS_std.c ****                 /* Request for dynamic re-configuration of endpoint. */
 871:Generated_Source\PSoC5/USBFS_std.c ****                 USBFS_DYN_RECONFIG_REG |= USBFS_DYN_RECONFIG_ENABLE;
ARM GAS  C:\Users\Dan\AppData\Local\Temp\ccwiSTnc.s 			page 20


 872:Generated_Source\PSoC5/USBFS_std.c ****                 
 873:Generated_Source\PSoC5/USBFS_std.c ****                 /* Wait until block is ready for re-configuration */
 874:Generated_Source\PSoC5/USBFS_std.c ****                 while (0u == (USBFS_DYN_RECONFIG_REG & USBFS_DYN_RECONFIG_RDY_STS))
 875:Generated_Source\PSoC5/USBFS_std.c ****                 {
 876:Generated_Source\PSoC5/USBFS_std.c ****                 }
 877:Generated_Source\PSoC5/USBFS_std.c ****                 
 878:Generated_Source\PSoC5/USBFS_std.c ****                 /* Once DYN_RECONFIG_RDY_STS bit is set, FW can change the EP configuration. */
 879:Generated_Source\PSoC5/USBFS_std.c ****                 /* Change EP Type with new direction */
 880:Generated_Source\PSoC5/USBFS_std.c ****                 if (0u != (pEP->addr & USBFS_DIR_IN))
 881:Generated_Source\PSoC5/USBFS_std.c ****                 {
 882:Generated_Source\PSoC5/USBFS_std.c ****                     /* Set endpoint type: 0 - IN and 1 - OUT. */
 883:Generated_Source\PSoC5/USBFS_std.c ****                     USBFS_EP_TYPE_REG &= (uint8) ~(uint8)((uint8) 0x01u << (curEp - 1u));
 884:Generated_Source\PSoC5/USBFS_std.c ****                     
 885:Generated_Source\PSoC5/USBFS_std.c ****                 #if (CY_PSOC4)
 886:Generated_Source\PSoC5/USBFS_std.c ****                     /* Clear DMA_TERMIN for IN endpoint */
 887:Generated_Source\PSoC5/USBFS_std.c ****                     USBFS_ARB_EP_BASE.arbEp[curEp].epIntEn &= (uint32) ~USBFS_ARB_EPX_INT_DMA_TERMI
 888:Generated_Source\PSoC5/USBFS_std.c ****                 #endif /* (CY_PSOC4) */
 889:Generated_Source\PSoC5/USBFS_std.c ****                 }
 890:Generated_Source\PSoC5/USBFS_std.c ****                 else
 891:Generated_Source\PSoC5/USBFS_std.c ****                 {
 892:Generated_Source\PSoC5/USBFS_std.c ****                     /* Set endpoint type: 0 - IN and 1- OUT. */
 893:Generated_Source\PSoC5/USBFS_std.c ****                     USBFS_EP_TYPE_REG |= (uint8) ((uint8) 0x01u << (curEp - 1u));
 894:Generated_Source\PSoC5/USBFS_std.c ****                     
 895:Generated_Source\PSoC5/USBFS_std.c ****                 #if (CY_PSOC4)
 896:Generated_Source\PSoC5/USBFS_std.c ****                     /* Set DMA_TERMIN for OUT endpoint */
 897:Generated_Source\PSoC5/USBFS_std.c ****                     USBFS_ARB_EP_BASE.arbEp[curEp].epIntEn |= (uint32) USBFS_ARB_EPX_INT_DMA_TERMIN
 898:Generated_Source\PSoC5/USBFS_std.c ****                 #endif /* (CY_PSOC4) */
 899:Generated_Source\PSoC5/USBFS_std.c ****                 }
 900:Generated_Source\PSoC5/USBFS_std.c ****                 
 901:Generated_Source\PSoC5/USBFS_std.c ****                 /* Complete dynamic re-configuration: all endpoint related status and signals 
 902:Generated_Source\PSoC5/USBFS_std.c ****                 * are set into the default state.
 903:Generated_Source\PSoC5/USBFS_std.c ****                 */
 904:Generated_Source\PSoC5/USBFS_std.c ****                 USBFS_DYN_RECONFIG_REG &= (uint8) ~USBFS_DYN_RECONFIG_ENABLE;
 905:Generated_Source\PSoC5/USBFS_std.c **** 
 906:Generated_Source\PSoC5/USBFS_std.c ****             #else
 907:Generated_Source\PSoC5/USBFS_std.c ****                 USBFS_SIE_EP_BASE.sieEp[curEp].epCnt0 = HI8(USBFS_EP[curEp].bufferSize);
 908:Generated_Source\PSoC5/USBFS_std.c ****                 USBFS_SIE_EP_BASE.sieEp[curEp].epCnt1 = LO8(USBFS_EP[curEp].bufferSize);
 909:Generated_Source\PSoC5/USBFS_std.c ****                 
 910:Generated_Source\PSoC5/USBFS_std.c ****                 #if (CY_PSOC4)
 911:Generated_Source\PSoC5/USBFS_std.c ****                     USBFS_ARB_EP16_BASE.arbEp[curEp].rwRa16  = (uint32) USBFS_EP[curEp].buffOffset;
 912:Generated_Source\PSoC5/USBFS_std.c ****                     USBFS_ARB_EP16_BASE.arbEp[curEp].rwWa16  = (uint32) USBFS_EP[curEp].buffOffset;
 913:Generated_Source\PSoC5/USBFS_std.c ****                 #else
 914:Generated_Source\PSoC5/USBFS_std.c ****                     USBFS_ARB_EP_BASE.arbEp[curEp].rwRa    = LO8(USBFS_EP[curEp].buffOffset);
 915:Generated_Source\PSoC5/USBFS_std.c ****                     USBFS_ARB_EP_BASE.arbEp[curEp].rwRaMsb = HI8(USBFS_EP[curEp].buffOffset);
 916:Generated_Source\PSoC5/USBFS_std.c ****                     USBFS_ARB_EP_BASE.arbEp[curEp].rwWa    = LO8(USBFS_EP[curEp].buffOffset);
 917:Generated_Source\PSoC5/USBFS_std.c ****                     USBFS_ARB_EP_BASE.arbEp[curEp].rwWaMsb = HI8(USBFS_EP[curEp].buffOffset);
 918:Generated_Source\PSoC5/USBFS_std.c ****                 #endif /* (CY_PSOC4) */                
 919:Generated_Source\PSoC5/USBFS_std.c ****             #endif /* (USBFS_EP_MANAGEMENT_DMA_AUTO) */
 920:Generated_Source\PSoC5/USBFS_std.c ****             }
 921:Generated_Source\PSoC5/USBFS_std.c ****             
 922:Generated_Source\PSoC5/USBFS_std.c ****             pEP = &pEP[1u]; /* Get next EP element */
 923:Generated_Source\PSoC5/USBFS_std.c ****         }
 924:Generated_Source\PSoC5/USBFS_std.c ****         
 925:Generated_Source\PSoC5/USBFS_std.c ****         /* The main loop has to re-enable DMA and OUT endpoint */
 926:Generated_Source\PSoC5/USBFS_std.c ****     }
 927:Generated_Source\PSoC5/USBFS_std.c **** }
 928:Generated_Source\PSoC5/USBFS_std.c **** 
ARM GAS  C:\Users\Dan\AppData\Local\Temp\ccwiSTnc.s 			page 21


 929:Generated_Source\PSoC5/USBFS_std.c **** 
 930:Generated_Source\PSoC5/USBFS_std.c **** /*******************************************************************************
 931:Generated_Source\PSoC5/USBFS_std.c **** * Function Name: USBFS_GetConfigTablePtr
 932:Generated_Source\PSoC5/USBFS_std.c **** ****************************************************************************//**
 933:Generated_Source\PSoC5/USBFS_std.c **** *
 934:Generated_Source\PSoC5/USBFS_std.c **** *  This routine returns a pointer a configuration table entry
 935:Generated_Source\PSoC5/USBFS_std.c **** *
 936:Generated_Source\PSoC5/USBFS_std.c **** *  \param confIndex:  Configuration Index
 937:Generated_Source\PSoC5/USBFS_std.c **** *
 938:Generated_Source\PSoC5/USBFS_std.c **** * \return
 939:Generated_Source\PSoC5/USBFS_std.c **** *  Device Descriptor pointer or NULL when descriptor does not exist.
 940:Generated_Source\PSoC5/USBFS_std.c **** *
 941:Generated_Source\PSoC5/USBFS_std.c **** *******************************************************************************/
 942:Generated_Source\PSoC5/USBFS_std.c **** const T_USBFS_LUT CYCODE *USBFS_GetConfigTablePtr(uint8 confIndex)
 943:Generated_Source\PSoC5/USBFS_std.c ****                                                         
 944:Generated_Source\PSoC5/USBFS_std.c **** {
 209              		.loc 1 944 0
 210              		.cfi_startproc
 211              		@ args = 0, pretend = 0, frame = 0
 212              		@ frame_needed = 0, uses_anonymous_args = 0
 213              		@ link register save eliminated.
 214              	.LVL9:
 945:Generated_Source\PSoC5/USBFS_std.c ****     /* Device Table */
 946:Generated_Source\PSoC5/USBFS_std.c ****     const T_USBFS_LUT CYCODE *pTmp;
 947:Generated_Source\PSoC5/USBFS_std.c **** 
 948:Generated_Source\PSoC5/USBFS_std.c ****     pTmp = (const T_USBFS_LUT CYCODE *) USBFS_TABLE[USBFS_device].p_list;
 215              		.loc 1 948 0
 216 0000 074B     		ldr	r3, .L20
 217 0002 1A78     		ldrb	r2, [r3]	@ zero_extendqisi2
 218 0004 074B     		ldr	r3, .L20+4
 219 0006 03EBC203 		add	r3, r3, r2, lsl #3
 220 000a 5B68     		ldr	r3, [r3, #4]
 221              	.LVL10:
 949:Generated_Source\PSoC5/USBFS_std.c **** 
 950:Generated_Source\PSoC5/USBFS_std.c ****     /* The first entry points to the Device Descriptor,
 951:Generated_Source\PSoC5/USBFS_std.c ****     *  the second entry point to the BOS Descriptor
 952:Generated_Source\PSoC5/USBFS_std.c ****     *  the rest configuration entries.
 953:Generated_Source\PSoC5/USBFS_std.c ****     *  Set pointer to the first Configuration Descriptor
 954:Generated_Source\PSoC5/USBFS_std.c ****     */
 955:Generated_Source\PSoC5/USBFS_std.c ****     pTmp = &pTmp[2u];
 956:Generated_Source\PSoC5/USBFS_std.c ****     /* For this table, c is the number of configuration descriptors  */
 957:Generated_Source\PSoC5/USBFS_std.c ****     if(confIndex >= pTmp->c)   /* Verify that required configuration descriptor exists */
 222              		.loc 1 957 0
 223 000c 1A7C     		ldrb	r2, [r3, #16]	@ zero_extendqisi2
 224 000e 8242     		cmp	r2, r0
 225 0010 04D9     		bls	.L19
 958:Generated_Source\PSoC5/USBFS_std.c ****     {
 959:Generated_Source\PSoC5/USBFS_std.c ****         pTmp = (const T_USBFS_LUT CYCODE *) NULL;
 960:Generated_Source\PSoC5/USBFS_std.c ****     }
 961:Generated_Source\PSoC5/USBFS_std.c ****     else
 962:Generated_Source\PSoC5/USBFS_std.c ****     {
 963:Generated_Source\PSoC5/USBFS_std.c ****         pTmp = (const T_USBFS_LUT CYCODE *) pTmp[confIndex].p_list;
 226              		.loc 1 963 0
 227 0012 C000     		lsls	r0, r0, #3
 228              	.LVL11:
 229 0014 1030     		adds	r0, r0, #16
 230 0016 1844     		add	r0, r0, r3
ARM GAS  C:\Users\Dan\AppData\Local\Temp\ccwiSTnc.s 			page 22


 231 0018 4068     		ldr	r0, [r0, #4]
 232              	.LVL12:
 233 001a 7047     		bx	lr
 234              	.LVL13:
 235              	.L19:
 959:Generated_Source\PSoC5/USBFS_std.c ****     }
 236              		.loc 1 959 0
 237 001c 0020     		movs	r0, #0
 238              	.LVL14:
 964:Generated_Source\PSoC5/USBFS_std.c ****     }
 965:Generated_Source\PSoC5/USBFS_std.c **** 
 966:Generated_Source\PSoC5/USBFS_std.c ****     return (pTmp);
 967:Generated_Source\PSoC5/USBFS_std.c **** }
 239              		.loc 1 967 0
 240 001e 7047     		bx	lr
 241              	.L21:
 242              		.align	2
 243              	.L20:
 244 0020 00000000 		.word	USBFS_device
 245 0024 00000000 		.word	USBFS_TABLE
 246              		.cfi_endproc
 247              	.LFE5:
 248              		.size	USBFS_GetConfigTablePtr, .-USBFS_GetConfigTablePtr
 249              		.section	.text.USBFS_ConfigAltChanged,"ax",%progbits
 250              		.align	2
 251              		.global	USBFS_ConfigAltChanged
 252              		.thumb
 253              		.thumb_func
 254              		.type	USBFS_ConfigAltChanged, %function
 255              	USBFS_ConfigAltChanged:
 256              	.LFB4:
 806:Generated_Source\PSoC5/USBFS_std.c ****     uint8 ep;
 257              		.loc 1 806 0
 258              		.cfi_startproc
 259              		@ args = 0, pretend = 0, frame = 0
 260              		@ frame_needed = 0, uses_anonymous_args = 0
 261 0000 F8B5     		push	{r3, r4, r5, r6, r7, lr}
 262              		.cfi_def_cfa_offset 24
 263              		.cfi_offset 3, -24
 264              		.cfi_offset 4, -20
 265              		.cfi_offset 5, -16
 266              		.cfi_offset 6, -12
 267              		.cfi_offset 7, -8
 268              		.cfi_offset 14, -4
 817:Generated_Source\PSoC5/USBFS_std.c ****     {
 269              		.loc 1 817 0
 270 0002 404B     		ldr	r3, .L34
 271 0004 1B78     		ldrb	r3, [r3]	@ zero_extendqisi2
 272 0006 13F0FF0F 		tst	r3, #255
 273 000a 79D0     		beq	.L22
 820:Generated_Source\PSoC5/USBFS_std.c ****         pTmp = &pTmp[1u];
 274              		.loc 1 820 0
 275 000c 3D4B     		ldr	r3, .L34
 276 000e 1878     		ldrb	r0, [r3]	@ zero_extendqisi2
 277 0010 0138     		subs	r0, r0, #1
 278 0012 C0B2     		uxtb	r0, r0
 279 0014 FFF7FEFF 		bl	USBFS_GetConfigTablePtr
ARM GAS  C:\Users\Dan\AppData\Local\Temp\ccwiSTnc.s 			page 23


 280              	.LVL15:
 822:Generated_Source\PSoC5/USBFS_std.c **** 
 281              		.loc 1 822 0
 282 0018 047A     		ldrb	r4, [r0, #8]	@ zero_extendqisi2
 283              	.LVL16:
 825:Generated_Source\PSoC5/USBFS_std.c ****         
 284              		.loc 1 825 0
 285 001a C268     		ldr	r2, [r0, #12]
 286              	.LVL17:
 831:Generated_Source\PSoC5/USBFS_std.c ****         for (i = 0u; i < ep; i++)
 287              		.loc 1 831 0
 288 001c 3A4B     		ldr	r3, .L34+4
 289 001e 1878     		ldrb	r0, [r3]	@ zero_extendqisi2
 290              	.LVL18:
 291 0020 C0B2     		uxtb	r0, r0
 292              	.LVL19:
 832:Generated_Source\PSoC5/USBFS_std.c ****         {
 293              		.loc 1 832 0
 294 0022 0023     		movs	r3, #0
 295 0024 6AE0     		b	.L24
 296              	.LVL20:
 297              	.L30:
 835:Generated_Source\PSoC5/USBFS_std.c ****                 (USBFS_interfaceSetting[interfaceNum] == pEP->altSetting))
 298              		.loc 1 835 0
 299 0026 1178     		ldrb	r1, [r2]	@ zero_extendqisi2
 300 0028 8842     		cmp	r0, r1
 301 002a 64D1     		bne	.L25
 836:Generated_Source\PSoC5/USBFS_std.c ****             {
 302              		.loc 1 836 0 discriminator 1
 303 002c 3749     		ldr	r1, .L34+8
 304 002e 095C     		ldrb	r1, [r1, r0]	@ zero_extendqisi2
 305 0030 C9B2     		uxtb	r1, r1
 306 0032 5578     		ldrb	r5, [r2, #1]	@ zero_extendqisi2
 835:Generated_Source\PSoC5/USBFS_std.c ****                 (USBFS_interfaceSetting[interfaceNum] == pEP->altSetting))
 307              		.loc 1 835 0 discriminator 1
 308 0034 A942     		cmp	r1, r5
 309 0036 5ED1     		bne	.L25
 838:Generated_Source\PSoC5/USBFS_std.c ****                 epType = ((uint8) pEP->attributes & USBFS_EP_TYPE_MASK);
 310              		.loc 1 838 0
 311 0038 9178     		ldrb	r1, [r2, #2]	@ zero_extendqisi2
 312 003a 01F07F01 		and	r1, r1, #127
 313              	.LVL21:
 839:Generated_Source\PSoC5/USBFS_std.c ****                 
 314              		.loc 1 839 0
 315 003e D678     		ldrb	r6, [r2, #3]	@ zero_extendqisi2
 316 0040 06F00306 		and	r6, r6, #3
 317              	.LVL22:
 842:Generated_Source\PSoC5/USBFS_std.c ****                 USBFS_EP[curEp].addr       = pEP->addr;
 318              		.loc 1 842 0
 319 0044 DFF8C8E0 		ldr	lr, .L34+12
 320 0048 4D00     		lsls	r5, r1, #1
 321 004a 0D44     		add	r5, r5, r1
 322 004c AF00     		lsls	r7, r5, #2
 323 004e 0EEB0705 		add	r5, lr, r7
 324 0052 4FF0000C 		mov	ip, #0
 325 0056 85F803C0 		strb	ip, [r5, #3]
 843:Generated_Source\PSoC5/USBFS_std.c ****                 USBFS_EP[curEp].attrib     = pEP->attributes;
ARM GAS  C:\Users\Dan\AppData\Local\Temp\ccwiSTnc.s 			page 24


 326              		.loc 1 843 0
 327 005a 92F802C0 		ldrb	ip, [r2, #2]	@ zero_extendqisi2
 328 005e 85F804C0 		strb	ip, [r5, #4]
 844:Generated_Source\PSoC5/USBFS_std.c ****                 USBFS_EP[curEp].bufferSize = pEP->bufferSize;
 329              		.loc 1 844 0
 330 0062 92F803C0 		ldrb	ip, [r2, #3]	@ zero_extendqisi2
 331 0066 0EF807C0 		strb	ip, [lr, r7]
 845:Generated_Source\PSoC5/USBFS_std.c **** 
 332              		.loc 1 845 0
 333 006a 9788     		ldrh	r7, [r2, #4]
 334 006c 2F81     		strh	r7, [r5, #8]	@ movhi
 847:Generated_Source\PSoC5/USBFS_std.c ****                 {
 335              		.loc 1 847 0
 336 006e 92F90250 		ldrsb	r5, [r2, #2]
 337 0072 002D     		cmp	r5, #0
 338 0074 0DDA     		bge	.L26
 850:Generated_Source\PSoC5/USBFS_std.c ****                     USBFS_EP[curEp].apiEpState = USBFS_EVENT_PENDING;
 339              		.loc 1 850 0
 340 0076 012E     		cmp	r6, #1
 341 0078 01D1     		bne	.L31
 342 007a 0727     		movs	r7, #7
 343 007c 00E0     		b	.L27
 344              	.L31:
 345 007e 0D27     		movs	r7, #13
 346              	.L27:
 850:Generated_Source\PSoC5/USBFS_std.c ****                     USBFS_EP[curEp].apiEpState = USBFS_EVENT_PENDING;
 347              		.loc 1 850 0 is_stmt 0 discriminator 4
 348 0080 4E00     		lsls	r6, r1, #1
 349              	.LVL23:
 350 0082 0E44     		add	r6, r6, r1
 351 0084 B500     		lsls	r5, r6, #2
 352 0086 224E     		ldr	r6, .L34+12
 353 0088 3544     		add	r5, r5, r6
 354 008a 6F71     		strb	r7, [r5, #5]
 851:Generated_Source\PSoC5/USBFS_std.c ****                 }
 355              		.loc 1 851 0 is_stmt 1 discriminator 4
 356 008c 0126     		movs	r6, #1
 357 008e 6E70     		strb	r6, [r5, #1]
 358 0090 0CE0     		b	.L28
 359              	.LVL24:
 360              	.L26:
 856:Generated_Source\PSoC5/USBFS_std.c ****                     USBFS_EP[curEp].apiEpState = USBFS_NO_EVENT_PENDING;
 361              		.loc 1 856 0
 362 0092 012E     		cmp	r6, #1
 363 0094 01D1     		bne	.L32
 364 0096 0527     		movs	r7, #5
 365 0098 00E0     		b	.L29
 366              	.L32:
 367 009a 0927     		movs	r7, #9
 368              	.L29:
 856:Generated_Source\PSoC5/USBFS_std.c ****                     USBFS_EP[curEp].apiEpState = USBFS_NO_EVENT_PENDING;
 369              		.loc 1 856 0 is_stmt 0 discriminator 4
 370 009c 4E00     		lsls	r6, r1, #1
 371              	.LVL25:
 372 009e 0E44     		add	r6, r6, r1
 373 00a0 B500     		lsls	r5, r6, #2
 374 00a2 1B4E     		ldr	r6, .L34+12
ARM GAS  C:\Users\Dan\AppData\Local\Temp\ccwiSTnc.s 			page 25


 375 00a4 3544     		add	r5, r5, r6
 376 00a6 6F71     		strb	r7, [r5, #5]
 857:Generated_Source\PSoC5/USBFS_std.c ****                 }
 377              		.loc 1 857 0 is_stmt 1 discriminator 4
 378 00a8 0026     		movs	r6, #0
 379 00aa 6E70     		strb	r6, [r5, #1]
 380              	.L28:
 861:Generated_Source\PSoC5/USBFS_std.c **** 
 381              		.loc 1 861 0
 382 00ac DFF868E0 		ldr	lr, .L34+20
 383 00b0 0F01     		lsls	r7, r1, #4
 384 00b2 0EEB0706 		add	r6, lr, r7
 385 00b6 0125     		movs	r5, #1
 386 00b8 B570     		strb	r5, [r6, #2]
 907:Generated_Source\PSoC5/USBFS_std.c ****                 USBFS_SIE_EP_BASE.sieEp[curEp].epCnt1 = LO8(USBFS_EP[curEp].bufferSize);
 387              		.loc 1 907 0
 388 00ba 01FA05F5 		lsl	r5, r1, r5
 389 00be 2944     		add	r1, r1, r5
 390              	.LVL26:
 391 00c0 8D00     		lsls	r5, r1, #2
 392 00c2 1349     		ldr	r1, .L34+12
 393 00c4 2944     		add	r1, r1, r5
 394 00c6 0D89     		ldrh	r5, [r1, #8]
 395 00c8 C5F30725 		ubfx	r5, r5, #8, #8
 396 00cc 0EF80750 		strb	r5, [lr, r7]
 908:Generated_Source\PSoC5/USBFS_std.c ****                 
 397              		.loc 1 908 0
 398 00d0 0D89     		ldrh	r5, [r1, #8]
 399 00d2 EDB2     		uxtb	r5, r5
 400 00d4 7570     		strb	r5, [r6, #1]
 914:Generated_Source\PSoC5/USBFS_std.c ****                     USBFS_ARB_EP_BASE.arbEp[curEp].rwRaMsb = HI8(USBFS_EP[curEp].buffOffset);
 401              		.loc 1 914 0
 402 00d6 CE88     		ldrh	r6, [r1, #6]
 403 00d8 F6B2     		uxtb	r6, r6
 404 00da 0E4D     		ldr	r5, .L34+16
 405 00dc 3D44     		add	r5, r5, r7
 406 00de AE71     		strb	r6, [r5, #6]
 915:Generated_Source\PSoC5/USBFS_std.c ****                     USBFS_ARB_EP_BASE.arbEp[curEp].rwWa    = LO8(USBFS_EP[curEp].buffOffset);
 407              		.loc 1 915 0
 408 00e0 CE88     		ldrh	r6, [r1, #6]
 409 00e2 C6F30726 		ubfx	r6, r6, #8, #8
 410 00e6 EE71     		strb	r6, [r5, #7]
 916:Generated_Source\PSoC5/USBFS_std.c ****                     USBFS_ARB_EP_BASE.arbEp[curEp].rwWaMsb = HI8(USBFS_EP[curEp].buffOffset);
 411              		.loc 1 916 0
 412 00e8 CE88     		ldrh	r6, [r1, #6]
 413 00ea F6B2     		uxtb	r6, r6
 414 00ec 2E71     		strb	r6, [r5, #4]
 917:Generated_Source\PSoC5/USBFS_std.c ****                 #endif /* (CY_PSOC4) */                
 415              		.loc 1 917 0
 416 00ee C988     		ldrh	r1, [r1, #6]
 417 00f0 C1F30721 		ubfx	r1, r1, #8, #8
 418 00f4 6971     		strb	r1, [r5, #5]
 419              	.L25:
 922:Generated_Source\PSoC5/USBFS_std.c ****         }
 420              		.loc 1 922 0 discriminator 2
 421 00f6 0832     		adds	r2, r2, #8
 422              	.LVL27:
ARM GAS  C:\Users\Dan\AppData\Local\Temp\ccwiSTnc.s 			page 26


 832:Generated_Source\PSoC5/USBFS_std.c ****         {
 423              		.loc 1 832 0 discriminator 2
 424 00f8 0133     		adds	r3, r3, #1
 425              	.LVL28:
 426 00fa DBB2     		uxtb	r3, r3
 427              	.LVL29:
 428              	.L24:
 832:Generated_Source\PSoC5/USBFS_std.c ****         {
 429              		.loc 1 832 0 is_stmt 0 discriminator 1
 430 00fc A342     		cmp	r3, r4
 431 00fe 92D3     		bcc	.L30
 432              	.LVL30:
 433              	.L22:
 434 0100 F8BD     		pop	{r3, r4, r5, r6, r7, pc}
 435              	.L35:
 436 0102 00BF     		.align	2
 437              	.L34:
 438 0104 00000000 		.word	USBFS_configuration
 439 0108 00000000 		.word	USBFS_interfaceNumber
 440 010c 00000000 		.word	USBFS_interfaceSetting
 441 0110 00000000 		.word	USBFS_EP
 442 0114 70600040 		.word	1073766512
 443 0118 FC5F0040 		.word	1073766396
 444              		.cfi_endproc
 445              	.LFE4:
 446              		.size	USBFS_ConfigAltChanged, .-USBFS_ConfigAltChanged
 447              		.section	.text.USBFS_GetDeviceTablePtr,"ax",%progbits
 448              		.align	2
 449              		.global	USBFS_GetDeviceTablePtr
 450              		.thumb
 451              		.thumb_func
 452              		.type	USBFS_GetDeviceTablePtr, %function
 453              	USBFS_GetDeviceTablePtr:
 454              	.LFB6:
 968:Generated_Source\PSoC5/USBFS_std.c **** 
 969:Generated_Source\PSoC5/USBFS_std.c **** 
 970:Generated_Source\PSoC5/USBFS_std.c **** #if (USBFS_BOS_ENABLE)
 971:Generated_Source\PSoC5/USBFS_std.c ****     /*******************************************************************************
 972:Generated_Source\PSoC5/USBFS_std.c ****     * Function Name: USBFS_GetBOSPtr
 973:Generated_Source\PSoC5/USBFS_std.c ****     ****************************************************************************//**
 974:Generated_Source\PSoC5/USBFS_std.c ****     *
 975:Generated_Source\PSoC5/USBFS_std.c ****     *  This routine returns a pointer a BOS table entry
 976:Generated_Source\PSoC5/USBFS_std.c ****     *
 977:Generated_Source\PSoC5/USBFS_std.c ****     *  
 978:Generated_Source\PSoC5/USBFS_std.c ****     *
 979:Generated_Source\PSoC5/USBFS_std.c ****     * \return
 980:Generated_Source\PSoC5/USBFS_std.c ****     *  BOS Descriptor pointer or NULL when descriptor does not exist.
 981:Generated_Source\PSoC5/USBFS_std.c ****     *
 982:Generated_Source\PSoC5/USBFS_std.c ****     *******************************************************************************/
 983:Generated_Source\PSoC5/USBFS_std.c ****     const T_USBFS_LUT CYCODE *USBFS_GetBOSPtr(void)
 984:Generated_Source\PSoC5/USBFS_std.c ****                                                             
 985:Generated_Source\PSoC5/USBFS_std.c ****     {
 986:Generated_Source\PSoC5/USBFS_std.c ****         /* Device Table */
 987:Generated_Source\PSoC5/USBFS_std.c ****         const T_USBFS_LUT CYCODE *pTmp;
 988:Generated_Source\PSoC5/USBFS_std.c **** 
 989:Generated_Source\PSoC5/USBFS_std.c ****         pTmp = (const T_USBFS_LUT CYCODE *) USBFS_TABLE[USBFS_device].p_list;
 990:Generated_Source\PSoC5/USBFS_std.c **** 
ARM GAS  C:\Users\Dan\AppData\Local\Temp\ccwiSTnc.s 			page 27


 991:Generated_Source\PSoC5/USBFS_std.c ****         /* The first entry points to the Device Descriptor,
 992:Generated_Source\PSoC5/USBFS_std.c ****         *  the second entry points to the BOS Descriptor
 993:Generated_Source\PSoC5/USBFS_std.c ****         */
 994:Generated_Source\PSoC5/USBFS_std.c ****         pTmp = &pTmp[1u];
 995:Generated_Source\PSoC5/USBFS_std.c ****         pTmp = (const T_USBFS_LUT CYCODE *) pTmp->p_list;
 996:Generated_Source\PSoC5/USBFS_std.c ****         return (pTmp);
 997:Generated_Source\PSoC5/USBFS_std.c ****     }
 998:Generated_Source\PSoC5/USBFS_std.c **** #endif /* (USBFS_BOS_ENABLE) */
 999:Generated_Source\PSoC5/USBFS_std.c **** 
1000:Generated_Source\PSoC5/USBFS_std.c **** 
1001:Generated_Source\PSoC5/USBFS_std.c **** /*******************************************************************************
1002:Generated_Source\PSoC5/USBFS_std.c **** * Function Name: USBFS_GetDeviceTablePtr
1003:Generated_Source\PSoC5/USBFS_std.c **** ****************************************************************************//**
1004:Generated_Source\PSoC5/USBFS_std.c **** *
1005:Generated_Source\PSoC5/USBFS_std.c **** *  This routine returns a pointer to the Device table
1006:Generated_Source\PSoC5/USBFS_std.c **** *
1007:Generated_Source\PSoC5/USBFS_std.c **** * \return
1008:Generated_Source\PSoC5/USBFS_std.c **** *  Device Table pointer
1009:Generated_Source\PSoC5/USBFS_std.c **** *
1010:Generated_Source\PSoC5/USBFS_std.c **** *******************************************************************************/
1011:Generated_Source\PSoC5/USBFS_std.c **** const T_USBFS_LUT CYCODE *USBFS_GetDeviceTablePtr(void)
1012:Generated_Source\PSoC5/USBFS_std.c ****                                                             
1013:Generated_Source\PSoC5/USBFS_std.c **** {
 455              		.loc 1 1013 0 is_stmt 1
 456              		.cfi_startproc
 457              		@ args = 0, pretend = 0, frame = 0
 458              		@ frame_needed = 0, uses_anonymous_args = 0
 459              		@ link register save eliminated.
1014:Generated_Source\PSoC5/USBFS_std.c ****     /* Device Table */
1015:Generated_Source\PSoC5/USBFS_std.c ****     return( (const T_USBFS_LUT CYCODE *) USBFS_TABLE[USBFS_device].p_list );
 460              		.loc 1 1015 0
 461 0000 034B     		ldr	r3, .L37
 462 0002 1A78     		ldrb	r2, [r3]	@ zero_extendqisi2
 463 0004 034B     		ldr	r3, .L37+4
 464 0006 03EBC203 		add	r3, r3, r2, lsl #3
1016:Generated_Source\PSoC5/USBFS_std.c **** }
 465              		.loc 1 1016 0
 466 000a 5868     		ldr	r0, [r3, #4]
 467 000c 7047     		bx	lr
 468              	.L38:
 469 000e 00BF     		.align	2
 470              	.L37:
 471 0010 00000000 		.word	USBFS_device
 472 0014 00000000 		.word	USBFS_TABLE
 473              		.cfi_endproc
 474              	.LFE6:
 475              		.size	USBFS_GetDeviceTablePtr, .-USBFS_GetDeviceTablePtr
 476              		.section	.text.USBFS_GetInterfaceClassTablePtr,"ax",%progbits
 477              		.align	2
 478              		.global	USBFS_GetInterfaceClassTablePtr
 479              		.thumb
 480              		.thumb_func
 481              		.type	USBFS_GetInterfaceClassTablePtr, %function
 482              	USBFS_GetInterfaceClassTablePtr:
 483              	.LFB7:
1017:Generated_Source\PSoC5/USBFS_std.c **** 
1018:Generated_Source\PSoC5/USBFS_std.c **** 
ARM GAS  C:\Users\Dan\AppData\Local\Temp\ccwiSTnc.s 			page 28


1019:Generated_Source\PSoC5/USBFS_std.c **** /*******************************************************************************
1020:Generated_Source\PSoC5/USBFS_std.c **** * Function Name: USB_GetInterfaceClassTablePtr
1021:Generated_Source\PSoC5/USBFS_std.c **** ****************************************************************************//**
1022:Generated_Source\PSoC5/USBFS_std.c **** *
1023:Generated_Source\PSoC5/USBFS_std.c **** *  This routine returns Interface Class table pointer, which contains
1024:Generated_Source\PSoC5/USBFS_std.c **** *  the relation between interface number and interface class.
1025:Generated_Source\PSoC5/USBFS_std.c **** *
1026:Generated_Source\PSoC5/USBFS_std.c **** * \return
1027:Generated_Source\PSoC5/USBFS_std.c **** *  Interface Class table pointer.
1028:Generated_Source\PSoC5/USBFS_std.c **** *
1029:Generated_Source\PSoC5/USBFS_std.c **** *******************************************************************************/
1030:Generated_Source\PSoC5/USBFS_std.c **** const uint8 CYCODE *USBFS_GetInterfaceClassTablePtr(void)
1031:Generated_Source\PSoC5/USBFS_std.c ****                                                         
1032:Generated_Source\PSoC5/USBFS_std.c **** {
 484              		.loc 1 1032 0
 485              		.cfi_startproc
 486              		@ args = 0, pretend = 0, frame = 0
 487              		@ frame_needed = 0, uses_anonymous_args = 0
 488 0000 08B5     		push	{r3, lr}
 489              		.cfi_def_cfa_offset 8
 490              		.cfi_offset 3, -8
 491              		.cfi_offset 14, -4
1033:Generated_Source\PSoC5/USBFS_std.c ****     const T_USBFS_LUT CYCODE *pTmp;
1034:Generated_Source\PSoC5/USBFS_std.c ****     const uint8 CYCODE *pInterfaceClass;
1035:Generated_Source\PSoC5/USBFS_std.c ****     uint8 currentInterfacesNum;
1036:Generated_Source\PSoC5/USBFS_std.c **** 
1037:Generated_Source\PSoC5/USBFS_std.c ****     pTmp = USBFS_GetConfigTablePtr(USBFS_configuration - 1u);
 492              		.loc 1 1037 0
 493 0002 084B     		ldr	r3, .L43
 494 0004 1878     		ldrb	r0, [r3]	@ zero_extendqisi2
 495 0006 0138     		subs	r0, r0, #1
 496 0008 C0B2     		uxtb	r0, r0
 497 000a FFF7FEFF 		bl	USBFS_GetConfigTablePtr
 498              	.LVL31:
1038:Generated_Source\PSoC5/USBFS_std.c ****     if (pTmp != NULL)
 499              		.loc 1 1038 0
 500 000e 30B1     		cbz	r0, .L41
1039:Generated_Source\PSoC5/USBFS_std.c ****     {
1040:Generated_Source\PSoC5/USBFS_std.c ****         currentInterfacesNum  = ((const uint8 *) pTmp->p_list)[USBFS_CONFIG_DESCR_NUM_INTERFACES];
 501              		.loc 1 1040 0
 502 0010 4268     		ldr	r2, [r0, #4]
 503 0012 1279     		ldrb	r2, [r2, #4]	@ zero_extendqisi2
 504              	.LVL32:
1041:Generated_Source\PSoC5/USBFS_std.c ****         /* Third entry in the LUT starts the Interface Table pointers */
1042:Generated_Source\PSoC5/USBFS_std.c ****         /* The INTERFACE_CLASS table is located after all interfaces */
1043:Generated_Source\PSoC5/USBFS_std.c ****         pTmp = &pTmp[currentInterfacesNum + 2u];
 505              		.loc 1 1043 0
 506 0014 0232     		adds	r2, r2, #2
 507              	.LVL33:
 508 0016 00EBC203 		add	r3, r0, r2, lsl #3
 509              	.LVL34:
1044:Generated_Source\PSoC5/USBFS_std.c ****         pInterfaceClass = (const uint8 CYCODE *) pTmp->p_list;
 510              		.loc 1 1044 0
 511 001a 5868     		ldr	r0, [r3, #4]
 512              	.LVL35:
 513 001c 08BD     		pop	{r3, pc}
 514              	.LVL36:
ARM GAS  C:\Users\Dan\AppData\Local\Temp\ccwiSTnc.s 			page 29


 515              	.L41:
1045:Generated_Source\PSoC5/USBFS_std.c ****     }
1046:Generated_Source\PSoC5/USBFS_std.c ****     else
1047:Generated_Source\PSoC5/USBFS_std.c ****     {
1048:Generated_Source\PSoC5/USBFS_std.c ****         pInterfaceClass = (const uint8 CYCODE *) NULL;
 516              		.loc 1 1048 0
 517 001e 0020     		movs	r0, #0
 518              	.LVL37:
1049:Generated_Source\PSoC5/USBFS_std.c ****     }
1050:Generated_Source\PSoC5/USBFS_std.c **** 
1051:Generated_Source\PSoC5/USBFS_std.c ****     return (pInterfaceClass);
1052:Generated_Source\PSoC5/USBFS_std.c **** }
 519              		.loc 1 1052 0
 520 0020 08BD     		pop	{r3, pc}
 521              	.L44:
 522 0022 00BF     		.align	2
 523              	.L43:
 524 0024 00000000 		.word	USBFS_configuration
 525              		.cfi_endproc
 526              	.LFE7:
 527              		.size	USBFS_GetInterfaceClassTablePtr, .-USBFS_GetInterfaceClassTablePtr
 528              		.section	.text.USBFS_Config,"ax",%progbits
 529              		.align	2
 530              		.global	USBFS_Config
 531              		.thumb
 532              		.thumb_func
 533              		.type	USBFS_Config, %function
 534              	USBFS_Config:
 535              	.LFB3:
 571:Generated_Source\PSoC5/USBFS_std.c ****     uint8 ep;
 536              		.loc 1 571 0
 537              		.cfi_startproc
 538              		@ args = 0, pretend = 0, frame = 0
 539              		@ frame_needed = 0, uses_anonymous_args = 0
 540              	.LVL38:
 541 0000 2DE9F041 		push	{r4, r5, r6, r7, r8, lr}
 542              		.cfi_def_cfa_offset 24
 543              		.cfi_offset 4, -24
 544              		.cfi_offset 5, -20
 545              		.cfi_offset 6, -16
 546              		.cfi_offset 7, -12
 547              		.cfi_offset 8, -8
 548              		.cfi_offset 14, -4
 549              	.LVL39:
 586:Generated_Source\PSoC5/USBFS_std.c ****     {
 550              		.loc 1 586 0
 551 0004 0023     		movs	r3, #0
 552 0006 10E0     		b	.L46
 553              	.LVL40:
 554              	.L47:
 588:Generated_Source\PSoC5/USBFS_std.c ****         USBFS_EP[ep].hwEpState  = 0u;
 555              		.loc 1 588 0 discriminator 3
 556 0008 684D     		ldr	r5, .L71
 557 000a 5900     		lsls	r1, r3, #1
 558 000c CA18     		adds	r2, r1, r3
 559 000e 9600     		lsls	r6, r2, #2
 560 0010 AC19     		adds	r4, r5, r6
ARM GAS  C:\Users\Dan\AppData\Local\Temp\ccwiSTnc.s 			page 30


 561 0012 0022     		movs	r2, #0
 562 0014 AA55     		strb	r2, [r5, r6]
 589:Generated_Source\PSoC5/USBFS_std.c ****         USBFS_EP[ep].epToggle   = 0u;
 563              		.loc 1 589 0 discriminator 3
 564 0016 A270     		strb	r2, [r4, #2]
 590:Generated_Source\PSoC5/USBFS_std.c ****         USBFS_EP[ep].bufferSize = 0u;
 565              		.loc 1 590 0 discriminator 3
 566 0018 E270     		strb	r2, [r4, #3]
 591:Generated_Source\PSoC5/USBFS_std.c ****         USBFS_EP[ep].interface  = 0u;
 567              		.loc 1 591 0 discriminator 3
 568 001a 2281     		strh	r2, [r4, #8]	@ movhi
 592:Generated_Source\PSoC5/USBFS_std.c ****         USBFS_EP[ep].apiEpState = USBFS_NO_EVENT_PENDING;
 569              		.loc 1 592 0 discriminator 3
 570 001c A272     		strb	r2, [r4, #10]
 593:Generated_Source\PSoC5/USBFS_std.c ****         USBFS_EP[ep].epMode     = USBFS_MODE_DISABLE;   
 571              		.loc 1 593 0 discriminator 3
 572 001e 6270     		strb	r2, [r4, #1]
 594:Generated_Source\PSoC5/USBFS_std.c ****     }
 573              		.loc 1 594 0 discriminator 3
 574 0020 3446     		mov	r4, r6
 575 0022 2C44     		add	r4, r4, r5
 576 0024 6271     		strb	r2, [r4, #5]
 586:Generated_Source\PSoC5/USBFS_std.c ****     {
 577              		.loc 1 586 0 discriminator 3
 578 0026 0133     		adds	r3, r3, #1
 579              	.LVL41:
 580 0028 DBB2     		uxtb	r3, r3
 581              	.LVL42:
 582              	.L46:
 586:Generated_Source\PSoC5/USBFS_std.c ****     {
 583              		.loc 1 586 0 is_stmt 0 discriminator 1
 584 002a 082B     		cmp	r3, #8
 585 002c ECD9     		bls	.L47
 598:Generated_Source\PSoC5/USBFS_std.c ****     {
 586              		.loc 1 598 0 is_stmt 1
 587 002e 40B9     		cbnz	r0, .L67
 588 0030 0AE0     		b	.L49
 589              	.LVL43:
 590              	.L50:
 602:Generated_Source\PSoC5/USBFS_std.c ****             USBFS_interfaceSettingLast[i] = 0u;
 591              		.loc 1 602 0 discriminator 3
 592 0032 0022     		movs	r2, #0
 593 0034 5E49     		ldr	r1, .L71+4
 594 0036 CA54     		strb	r2, [r1, r3]
 603:Generated_Source\PSoC5/USBFS_std.c ****         }
 595              		.loc 1 603 0 discriminator 3
 596 0038 5E49     		ldr	r1, .L71+8
 597 003a CA54     		strb	r2, [r1, r3]
 600:Generated_Source\PSoC5/USBFS_std.c ****         {
 598              		.loc 1 600 0 discriminator 3
 599 003c 0133     		adds	r3, r3, #1
 600              	.LVL44:
 601 003e DBB2     		uxtb	r3, r3
 602              	.LVL45:
 603 0040 00E0     		b	.L48
 604              	.LVL46:
 605              	.L67:
ARM GAS  C:\Users\Dan\AppData\Local\Temp\ccwiSTnc.s 			page 31


 606 0042 0023     		movs	r3, #0
 607              	.LVL47:
 608              	.L48:
 600:Generated_Source\PSoC5/USBFS_std.c ****         {
 609              		.loc 1 600 0 is_stmt 0 discriminator 1
 610 0044 002B     		cmp	r3, #0
 611 0046 F4D0     		beq	.L50
 612              	.LVL48:
 613              	.L49:
 608:Generated_Source\PSoC5/USBFS_std.c ****     {
 614              		.loc 1 608 0 is_stmt 1
 615 0048 5B4B     		ldr	r3, .L71+12
 616 004a 1B78     		ldrb	r3, [r3]	@ zero_extendqisi2
 617 004c 13F0FF0F 		tst	r3, #255
 618 0050 00F0A980 		beq	.L45
 614:Generated_Source\PSoC5/USBFS_std.c ****         
 619              		.loc 1 614 0
 620 0054 584B     		ldr	r3, .L71+12
 621 0056 1878     		ldrb	r0, [r3]	@ zero_extendqisi2
 622              	.LVL49:
 623 0058 0138     		subs	r0, r0, #1
 624 005a C0B2     		uxtb	r0, r0
 625 005c FFF7FEFF 		bl	USBFS_GetConfigTablePtr
 626              	.LVL50:
 617:Generated_Source\PSoC5/USBFS_std.c ****         if ((pDescr[USBFS_CONFIG_DESCR_ATTRIB] & USBFS_CONFIG_DESCR_ATTRIB_SELF_POWERED) != 0u)
 627              		.loc 1 617 0
 628 0060 4368     		ldr	r3, [r0, #4]
 629              	.LVL51:
 618:Generated_Source\PSoC5/USBFS_std.c ****         {
 630              		.loc 1 618 0
 631 0062 DB79     		ldrb	r3, [r3, #7]	@ zero_extendqisi2
 632              	.LVL52:
 633 0064 13F0400F 		tst	r3, #64
 634 0068 05D0     		beq	.L52
 620:Generated_Source\PSoC5/USBFS_std.c ****         }
 635              		.loc 1 620 0
 636 006a 544A     		ldr	r2, .L71+16
 637 006c 1378     		ldrb	r3, [r2]	@ zero_extendqisi2
 638 006e 43F00103 		orr	r3, r3, #1
 639 0072 1370     		strb	r3, [r2]
 640 0074 04E0     		b	.L53
 641              	.L52:
 624:Generated_Source\PSoC5/USBFS_std.c ****         }
 642              		.loc 1 624 0
 643 0076 514A     		ldr	r2, .L71+16
 644 0078 1378     		ldrb	r3, [r2]	@ zero_extendqisi2
 645 007a 03F0FE03 		and	r3, r3, #254
 646 007e 1370     		strb	r3, [r2]
 647              	.L53:
 648              	.LVL53:
 629:Generated_Source\PSoC5/USBFS_std.c **** 
 649              		.loc 1 629 0
 650 0080 057A     		ldrb	r5, [r0, #8]	@ zero_extendqisi2
 651              	.LVL54:
 687:Generated_Source\PSoC5/USBFS_std.c ****             {
 652              		.loc 1 687 0
 653 0082 0124     		movs	r4, #1
ARM GAS  C:\Users\Dan\AppData\Local\Temp\ccwiSTnc.s 			page 32


 654 0084 64E0     		b	.L54
 655              	.LVL55:
 656              	.L62:
 690:Generated_Source\PSoC5/USBFS_std.c ****                 /* Find max length for each EP and select it (length could be different in differen
 657              		.loc 1 690 0
 658 0086 C168     		ldr	r1, [r0, #12]
 659              	.LVL56:
 694:Generated_Source\PSoC5/USBFS_std.c ****                 {
 660              		.loc 1 694 0
 661 0088 0023     		movs	r3, #0
 662 008a 5DE0     		b	.L55
 663              	.LVL57:
 664              	.L61:
 696:Generated_Source\PSoC5/USBFS_std.c ****                     {
 665              		.loc 1 696 0
 666 008c 8A78     		ldrb	r2, [r1, #2]	@ zero_extendqisi2
 667 008e 02F07F02 		and	r2, r2, #127
 668 0092 9442     		cmp	r4, r2
 669 0094 55D1     		bne	.L56
 699:Generated_Source\PSoC5/USBFS_std.c ****                         {
 670              		.loc 1 699 0
 671 0096 2646     		mov	r6, r4
 672 0098 04EB4407 		add	r7, r4, r4, lsl #1
 673 009c BA00     		lsls	r2, r7, #2
 674 009e 434F     		ldr	r7, .L71
 675 00a0 3A44     		add	r2, r2, r7
 676 00a2 1289     		ldrh	r2, [r2, #8]
 677 00a4 92B2     		uxth	r2, r2
 678 00a6 8F88     		ldrh	r7, [r1, #4]
 679 00a8 BA42     		cmp	r2, r7
 680 00aa 07D2     		bcs	.L57
 701:Generated_Source\PSoC5/USBFS_std.c ****                         }
 681              		.loc 1 701 0
 682 00ac 04EB440E 		add	lr, r4, r4, lsl #1
 683 00b0 4FEA8E02 		lsl	r2, lr, #2
 684 00b4 DFF8F4E0 		ldr	lr, .L71
 685 00b8 7244     		add	r2, r2, lr
 686 00ba 1781     		strh	r7, [r2, #8]	@ movhi
 687              	.L57:
 705:Generated_Source\PSoC5/USBFS_std.c ****                         {                            
 688              		.loc 1 705 0
 689 00bc 0A78     		ldrb	r2, [r1]	@ zero_extendqisi2
 690 00be 3C4F     		ldr	r7, .L71+4
 691 00c0 BA5C     		ldrb	r2, [r7, r2]	@ zero_extendqisi2
 692 00c2 D2B2     		uxtb	r2, r2
 693 00c4 4F78     		ldrb	r7, [r1, #1]	@ zero_extendqisi2
 694 00c6 BA42     		cmp	r2, r7
 695 00c8 3BD1     		bne	.L56
 707:Generated_Source\PSoC5/USBFS_std.c ****                             USBFS_EP[i].attrib = pEP->attributes;
 696              		.loc 1 707 0
 697 00ca 91F802C0 		ldrb	ip, [r1, #2]	@ zero_extendqisi2
 698 00ce DFF8DCE0 		ldr	lr, .L71
 699 00d2 7200     		lsls	r2, r6, #1
 700 00d4 3244     		add	r2, r2, r6
 701 00d6 9700     		lsls	r7, r2, #2
 702 00d8 0EEB0702 		add	r2, lr, r7
 703 00dc 82F804C0 		strb	ip, [r2, #4]
ARM GAS  C:\Users\Dan\AppData\Local\Temp\ccwiSTnc.s 			page 33


 708:Generated_Source\PSoC5/USBFS_std.c ****                             
 704              		.loc 1 708 0
 705 00e0 CA78     		ldrb	r2, [r1, #3]	@ zero_extendqisi2
 706 00e2 0EF80720 		strb	r2, [lr, r7]
 710:Generated_Source\PSoC5/USBFS_std.c ****                             
 707              		.loc 1 710 0
 708 00e6 CA78     		ldrb	r2, [r1, #3]	@ zero_extendqisi2
 709 00e8 02F00302 		and	r2, r2, #3
 710              	.LVL58:
 712:Generated_Source\PSoC5/USBFS_std.c ****                             {
 711              		.loc 1 712 0
 712 00ec 91F90270 		ldrsb	r7, [r1, #2]
 713 00f0 002F     		cmp	r7, #0
 714 00f2 13DA     		bge	.L58
 715:Generated_Source\PSoC5/USBFS_std.c ****                                 USBFS_EP[i].apiEpState = USBFS_EVENT_PENDING;
 715              		.loc 1 715 0
 716 00f4 012A     		cmp	r2, #1
 717 00f6 02D1     		bne	.L68
 718 00f8 4FF00708 		mov	r8, #7
 719 00fc 01E0     		b	.L59
 720              	.L68:
 721 00fe 4FF00D08 		mov	r8, #13
 722              	.L59:
 715:Generated_Source\PSoC5/USBFS_std.c ****                                 USBFS_EP[i].apiEpState = USBFS_EVENT_PENDING;
 723              		.loc 1 715 0 is_stmt 0 discriminator 4
 724 0102 DFF8A8E0 		ldr	lr, .L71
 725 0106 7200     		lsls	r2, r6, #1
 726              	.LVL59:
 727 0108 02EB060C 		add	ip, r2, r6
 728 010c 4FEA8C07 		lsl	r7, ip, #2
 729 0110 7744     		add	r7, r7, lr
 730 0112 87F80580 		strb	r8, [r7, #5]
 731              	.LVL60:
 716:Generated_Source\PSoC5/USBFS_std.c ****                                 
 732              		.loc 1 716 0 is_stmt 1 discriminator 4
 733 0116 0126     		movs	r6, #1
 734 0118 7E70     		strb	r6, [r7, #1]
 735 011a 12E0     		b	.L56
 736              	.LVL61:
 737              	.L58:
 728:Generated_Source\PSoC5/USBFS_std.c ****                                 USBFS_EP[i].apiEpState = USBFS_NO_EVENT_PENDING;
 738              		.loc 1 728 0
 739 011c 012A     		cmp	r2, #1
 740 011e 02D1     		bne	.L69
 741 0120 4FF00508 		mov	r8, #5
 742 0124 01E0     		b	.L60
 743              	.L69:
 744 0126 4FF00908 		mov	r8, #9
 745              	.L60:
 728:Generated_Source\PSoC5/USBFS_std.c ****                                 USBFS_EP[i].apiEpState = USBFS_NO_EVENT_PENDING;
 746              		.loc 1 728 0 is_stmt 0 discriminator 4
 747 012a DFF880E0 		ldr	lr, .L71
 748 012e 7200     		lsls	r2, r6, #1
 749              	.LVL62:
 750 0130 02EB060C 		add	ip, r2, r6
 751 0134 4FEA8C07 		lsl	r7, ip, #2
 752 0138 7744     		add	r7, r7, lr
ARM GAS  C:\Users\Dan\AppData\Local\Temp\ccwiSTnc.s 			page 34


 753 013a 87F80580 		strb	r8, [r7, #5]
 754              	.LVL63:
 729:Generated_Source\PSoC5/USBFS_std.c ****                                 
 755              		.loc 1 729 0 is_stmt 1 discriminator 4
 756 013e 0026     		movs	r6, #0
 757 0140 7E70     		strb	r6, [r7, #1]
 758              	.L56:
 752:Generated_Source\PSoC5/USBFS_std.c ****                 }
 759              		.loc 1 752 0 discriminator 2
 760 0142 0831     		adds	r1, r1, #8
 761              	.LVL64:
 694:Generated_Source\PSoC5/USBFS_std.c ****                 {
 762              		.loc 1 694 0 discriminator 2
 763 0144 0133     		adds	r3, r3, #1
 764              	.LVL65:
 765 0146 DBB2     		uxtb	r3, r3
 766              	.LVL66:
 767              	.L55:
 694:Generated_Source\PSoC5/USBFS_std.c ****                 {
 768              		.loc 1 694 0 is_stmt 0 discriminator 1
 769 0148 AB42     		cmp	r3, r5
 770 014a 9FD3     		bcc	.L61
 687:Generated_Source\PSoC5/USBFS_std.c ****             {
 771              		.loc 1 687 0 is_stmt 1 discriminator 2
 772 014c 0134     		adds	r4, r4, #1
 773              	.LVL67:
 774 014e E4B2     		uxtb	r4, r4
 775              	.LVL68:
 776              	.L54:
 687:Generated_Source\PSoC5/USBFS_std.c ****             {
 777              		.loc 1 687 0 is_stmt 0 discriminator 1
 778 0150 082C     		cmp	r4, #8
 779 0152 98D9     		bls	.L62
 762:Generated_Source\PSoC5/USBFS_std.c ****         for (i = 0u; i < ep; i++)
 780              		.loc 1 762 0 is_stmt 1
 781 0154 C068     		ldr	r0, [r0, #12]
 782              	.LVL69:
 763:Generated_Source\PSoC5/USBFS_std.c ****         {
 783              		.loc 1 763 0
 784 0156 0022     		movs	r2, #0
 785 0158 0CE0     		b	.L63
 786              	.LVL70:
 787              	.L64:
 766:Generated_Source\PSoC5/USBFS_std.c ****             pEP = &pEP[1u];
 788              		.loc 1 766 0 discriminator 3
 789 015a 8378     		ldrb	r3, [r0, #2]	@ zero_extendqisi2
 790 015c 03F07F03 		and	r3, r3, #127
 791 0160 10F8084B 		ldrb	r4, [r0], #8	@ zero_extendqisi2
 792              	.LVL71:
 793 0164 03EB4303 		add	r3, r3, r3, lsl #1
 794 0168 9900     		lsls	r1, r3, #2
 795 016a 104B     		ldr	r3, .L71
 796 016c 1944     		add	r1, r1, r3
 797 016e 8C72     		strb	r4, [r1, #10]
 798              	.LVL72:
 763:Generated_Source\PSoC5/USBFS_std.c ****         {
 799              		.loc 1 763 0 discriminator 3
ARM GAS  C:\Users\Dan\AppData\Local\Temp\ccwiSTnc.s 			page 35


 800 0170 0132     		adds	r2, r2, #1
 801              	.LVL73:
 802 0172 D2B2     		uxtb	r2, r2
 803              	.LVL74:
 804              	.L63:
 763:Generated_Source\PSoC5/USBFS_std.c ****         {
 805              		.loc 1 763 0 is_stmt 0 discriminator 1
 806 0174 AA42     		cmp	r2, r5
 807 0176 F0D3     		bcc	.L64
 771:Generated_Source\PSoC5/USBFS_std.c ****         
 808              		.loc 1 771 0 is_stmt 1
 809 0178 FFF7FEFF 		bl	USBFS_GetInterfaceClassTablePtr
 810              	.LVL75:
 811 017c 104B     		ldr	r3, .L71+20
 812 017e 1860     		str	r0, [r3]
 813              	.LVL76:
 775:Generated_Source\PSoC5/USBFS_std.c ****         for (ep = USBFS_EP1; ep < USBFS_MAX_EP; ++ep)
 814              		.loc 1 775 0
 815 0180 0021     		movs	r1, #0
 776:Generated_Source\PSoC5/USBFS_std.c ****         {
 816              		.loc 1 776 0
 817 0182 0123     		movs	r3, #1
 818 0184 0BE0     		b	.L65
 819              	.LVL77:
 820              	.L66:
 778:Generated_Source\PSoC5/USBFS_std.c ****             buffCount += USBFS_EP[ep].bufferSize;
 821              		.loc 1 778 0 discriminator 3
 822 0186 094D     		ldr	r5, .L71
 823 0188 5A00     		lsls	r2, r3, #1
 824 018a D018     		adds	r0, r2, r3
 825 018c 8400     		lsls	r4, r0, #2
 826 018e 2C44     		add	r4, r4, r5
 827 0190 E180     		strh	r1, [r4, #6]	@ movhi
 779:Generated_Source\PSoC5/USBFS_std.c ****             
 828              		.loc 1 779 0 discriminator 3
 829 0192 2289     		ldrh	r2, [r4, #8]
 830 0194 92B2     		uxth	r2, r2
 831 0196 1144     		add	r1, r1, r2
 832              	.LVL78:
 833 0198 89B2     		uxth	r1, r1
 834              	.LVL79:
 776:Generated_Source\PSoC5/USBFS_std.c ****         {
 835              		.loc 1 776 0 discriminator 3
 836 019a 0133     		adds	r3, r3, #1
 837              	.LVL80:
 838 019c DBB2     		uxtb	r3, r3
 839              	.LVL81:
 840              	.L65:
 776:Generated_Source\PSoC5/USBFS_std.c ****         {
 841              		.loc 1 776 0 is_stmt 0 discriminator 1
 842 019e 082B     		cmp	r3, #8
 843 01a0 F1D9     		bls	.L66
 789:Generated_Source\PSoC5/USBFS_std.c ****     }
 844              		.loc 1 789 0 is_stmt 1
 845 01a2 FFF7FEFF 		bl	USBFS_ConfigReg
 846              	.LVL82:
 847              	.L45:
ARM GAS  C:\Users\Dan\AppData\Local\Temp\ccwiSTnc.s 			page 36


 848 01a6 BDE8F081 		pop	{r4, r5, r6, r7, r8, pc}
 849              	.L72:
 850 01aa 00BF     		.align	2
 851              	.L71:
 852 01ac 00000000 		.word	USBFS_EP
 853 01b0 00000000 		.word	USBFS_interfaceSetting
 854 01b4 00000000 		.word	USBFS_interfaceSettingLast
 855 01b8 00000000 		.word	USBFS_configuration
 856 01bc 00000000 		.word	USBFS_deviceStatus
 857 01c0 00000000 		.word	USBFS_interfaceClass
 858              		.cfi_endproc
 859              	.LFE3:
 860              		.size	USBFS_Config, .-USBFS_Config
 861              		.section	.text.USBFS_TerminateEP,"ax",%progbits
 862              		.align	2
 863              		.global	USBFS_TerminateEP
 864              		.thumb
 865              		.thumb_func
 866              		.type	USBFS_TerminateEP, %function
 867              	USBFS_TerminateEP:
 868              	.LFB8:
1053:Generated_Source\PSoC5/USBFS_std.c **** 
1054:Generated_Source\PSoC5/USBFS_std.c **** 
1055:Generated_Source\PSoC5/USBFS_std.c **** /*******************************************************************************
1056:Generated_Source\PSoC5/USBFS_std.c **** * Function Name: USBFS_TerminateEP
1057:Generated_Source\PSoC5/USBFS_std.c **** ****************************************************************************//**
1058:Generated_Source\PSoC5/USBFS_std.c **** *
1059:Generated_Source\PSoC5/USBFS_std.c **** *  This function terminates the specified USBFS endpoint.
1060:Generated_Source\PSoC5/USBFS_std.c **** *  This function should be used before endpoint reconfiguration.
1061:Generated_Source\PSoC5/USBFS_std.c **** *
1062:Generated_Source\PSoC5/USBFS_std.c **** *  \param ep Contains the data endpoint number.
1063:Generated_Source\PSoC5/USBFS_std.c **** *
1064:Generated_Source\PSoC5/USBFS_std.c **** *  \reentrant
1065:Generated_Source\PSoC5/USBFS_std.c **** *  No.
1066:Generated_Source\PSoC5/USBFS_std.c **** *
1067:Generated_Source\PSoC5/USBFS_std.c **** * \sideeffect
1068:Generated_Source\PSoC5/USBFS_std.c **** * 
1069:Generated_Source\PSoC5/USBFS_std.c **** * The device responds with a NAK for any transactions on the selected endpoint.
1070:Generated_Source\PSoC5/USBFS_std.c **** *   
1071:Generated_Source\PSoC5/USBFS_std.c **** *******************************************************************************/
1072:Generated_Source\PSoC5/USBFS_std.c **** void USBFS_TerminateEP(uint8 epNumber) 
1073:Generated_Source\PSoC5/USBFS_std.c **** {
 869              		.loc 1 1073 0
 870              		.cfi_startproc
 871              		@ args = 0, pretend = 0, frame = 0
 872              		@ frame_needed = 0, uses_anonymous_args = 0
 873              		@ link register save eliminated.
 874              	.LVL83:
1074:Generated_Source\PSoC5/USBFS_std.c ****     /* Get endpoint number */
1075:Generated_Source\PSoC5/USBFS_std.c ****     epNumber &= USBFS_DIR_UNUSED;
 875              		.loc 1 1075 0
 876 0000 00F07F00 		and	r0, r0, #127
 877              	.LVL84:
1076:Generated_Source\PSoC5/USBFS_std.c **** 
1077:Generated_Source\PSoC5/USBFS_std.c ****     if ((epNumber > USBFS_EP0) && (epNumber < USBFS_MAX_EP))
 878              		.loc 1 1077 0
 879 0004 431E     		subs	r3, r0, #1
ARM GAS  C:\Users\Dan\AppData\Local\Temp\ccwiSTnc.s 			page 37


 880 0006 DBB2     		uxtb	r3, r3
 881 0008 072B     		cmp	r3, #7
 882 000a 19D8     		bhi	.L73
1078:Generated_Source\PSoC5/USBFS_std.c ****     {
1079:Generated_Source\PSoC5/USBFS_std.c ****         /* Set the endpoint Halt */
1080:Generated_Source\PSoC5/USBFS_std.c ****         USBFS_EP[epNumber].hwEpState |= USBFS_ENDPOINT_STATUS_HALT;
 883              		.loc 1 1080 0
 884 000c 4200     		lsls	r2, r0, #1
 885 000e 0244     		add	r2, r2, r0
 886 0010 9300     		lsls	r3, r2, #2
 887 0012 0C4A     		ldr	r2, .L76
 888 0014 1344     		add	r3, r3, r2
 889 0016 9A78     		ldrb	r2, [r3, #2]	@ zero_extendqisi2
 890 0018 42F00102 		orr	r2, r2, #1
 891 001c 9A70     		strb	r2, [r3, #2]
1081:Generated_Source\PSoC5/USBFS_std.c **** 
1082:Generated_Source\PSoC5/USBFS_std.c ****         /* Clear the data toggle */
1083:Generated_Source\PSoC5/USBFS_std.c ****         USBFS_EP[epNumber].epToggle = 0u;
 892              		.loc 1 1083 0
 893 001e 0022     		movs	r2, #0
 894 0020 DA70     		strb	r2, [r3, #3]
1084:Generated_Source\PSoC5/USBFS_std.c ****         USBFS_EP[epNumber].apiEpState = USBFS_NO_EVENT_ALLOWED;
 895              		.loc 1 1084 0
 896 0022 0222     		movs	r2, #2
 897 0024 5A70     		strb	r2, [r3, #1]
1085:Generated_Source\PSoC5/USBFS_std.c **** 
1086:Generated_Source\PSoC5/USBFS_std.c ****         if ((USBFS_EP[epNumber].addr & USBFS_DIR_IN) != 0u)
 898              		.loc 1 1086 0
 899 0026 1B79     		ldrb	r3, [r3, #4]	@ zero_extendqisi2
 900 0028 13F0800F 		tst	r3, #128
 901 002c 04D0     		beq	.L75
1087:Generated_Source\PSoC5/USBFS_std.c ****         {   
1088:Generated_Source\PSoC5/USBFS_std.c ****             /* IN Endpoint */
1089:Generated_Source\PSoC5/USBFS_std.c ****             USBFS_SIE_EP_BASE.sieEp[epNumber].epCr0 = USBFS_MODE_NAK_IN;
 902              		.loc 1 1089 0
 903 002e 0001     		lsls	r0, r0, #4
 904              	.LVL85:
 905 0030 054B     		ldr	r3, .L76+4
 906 0032 0C22     		movs	r2, #12
 907 0034 1A54     		strb	r2, [r3, r0]
 908 0036 7047     		bx	lr
 909              	.LVL86:
 910              	.L75:
1090:Generated_Source\PSoC5/USBFS_std.c ****         }
1091:Generated_Source\PSoC5/USBFS_std.c ****         else
1092:Generated_Source\PSoC5/USBFS_std.c ****         {
1093:Generated_Source\PSoC5/USBFS_std.c ****             /* OUT Endpoint */
1094:Generated_Source\PSoC5/USBFS_std.c ****             USBFS_SIE_EP_BASE.sieEp[epNumber].epCr0 = USBFS_MODE_NAK_OUT;
 911              		.loc 1 1094 0
 912 0038 0001     		lsls	r0, r0, #4
 913              	.LVL87:
 914 003a 034B     		ldr	r3, .L76+4
 915 003c 0822     		movs	r2, #8
 916 003e 1A54     		strb	r2, [r3, r0]
 917              	.L73:
 918 0040 7047     		bx	lr
 919              	.L77:
ARM GAS  C:\Users\Dan\AppData\Local\Temp\ccwiSTnc.s 			page 38


 920 0042 00BF     		.align	2
 921              	.L76:
 922 0044 00000000 		.word	USBFS_EP
 923 0048 FE5F0040 		.word	1073766398
 924              		.cfi_endproc
 925              	.LFE8:
 926              		.size	USBFS_TerminateEP, .-USBFS_TerminateEP
 927              		.section	.text.USBFS_SetEndpointHalt,"ax",%progbits
 928              		.align	2
 929              		.global	USBFS_SetEndpointHalt
 930              		.thumb
 931              		.thumb_func
 932              		.type	USBFS_SetEndpointHalt, %function
 933              	USBFS_SetEndpointHalt:
 934              	.LFB9:
1095:Generated_Source\PSoC5/USBFS_std.c ****         }
1096:Generated_Source\PSoC5/USBFS_std.c ****     }
1097:Generated_Source\PSoC5/USBFS_std.c **** }
1098:Generated_Source\PSoC5/USBFS_std.c **** 
1099:Generated_Source\PSoC5/USBFS_std.c **** 
1100:Generated_Source\PSoC5/USBFS_std.c **** /*******************************************************************************
1101:Generated_Source\PSoC5/USBFS_std.c **** * Function Name: USBFS_SetEndpointHalt
1102:Generated_Source\PSoC5/USBFS_std.c **** ****************************************************************************//**
1103:Generated_Source\PSoC5/USBFS_std.c **** *
1104:Generated_Source\PSoC5/USBFS_std.c **** *  This routine handles set endpoint halt.
1105:Generated_Source\PSoC5/USBFS_std.c **** *
1106:Generated_Source\PSoC5/USBFS_std.c **** * \return
1107:Generated_Source\PSoC5/USBFS_std.c **** *  requestHandled.
1108:Generated_Source\PSoC5/USBFS_std.c **** *
1109:Generated_Source\PSoC5/USBFS_std.c **** * \reentrant
1110:Generated_Source\PSoC5/USBFS_std.c **** *  No.
1111:Generated_Source\PSoC5/USBFS_std.c **** *
1112:Generated_Source\PSoC5/USBFS_std.c **** *******************************************************************************/
1113:Generated_Source\PSoC5/USBFS_std.c **** uint8 USBFS_SetEndpointHalt(void) 
1114:Generated_Source\PSoC5/USBFS_std.c **** {
 935              		.loc 1 1114 0
 936              		.cfi_startproc
 937              		@ args = 0, pretend = 0, frame = 0
 938              		@ frame_needed = 0, uses_anonymous_args = 0
 939 0000 08B5     		push	{r3, lr}
 940              		.cfi_def_cfa_offset 8
 941              		.cfi_offset 3, -8
 942              		.cfi_offset 14, -4
 943              	.LVL88:
1115:Generated_Source\PSoC5/USBFS_std.c ****     uint8 requestHandled = USBFS_FALSE;
1116:Generated_Source\PSoC5/USBFS_std.c ****     uint8 ep;
1117:Generated_Source\PSoC5/USBFS_std.c ****     
1118:Generated_Source\PSoC5/USBFS_std.c ****     /* Set endpoint halt */
1119:Generated_Source\PSoC5/USBFS_std.c ****     ep = USBFS_wIndexLoReg & USBFS_DIR_UNUSED;
 944              		.loc 1 1119 0
 945 0002 154B     		ldr	r3, .L84
 946 0004 1B79     		ldrb	r3, [r3, #4]	@ zero_extendqisi2
 947 0006 03F07F03 		and	r3, r3, #127
 948              	.LVL89:
1120:Generated_Source\PSoC5/USBFS_std.c **** 
1121:Generated_Source\PSoC5/USBFS_std.c ****     if ((ep > USBFS_EP0) && (ep < USBFS_MAX_EP))
 949              		.loc 1 1121 0
ARM GAS  C:\Users\Dan\AppData\Local\Temp\ccwiSTnc.s 			page 39


 950 000a 5A1E     		subs	r2, r3, #1
 951 000c D2B2     		uxtb	r2, r2
 952 000e 072A     		cmp	r2, #7
 953 0010 20D8     		bhi	.L82
1122:Generated_Source\PSoC5/USBFS_std.c ****     {
1123:Generated_Source\PSoC5/USBFS_std.c ****         /* Set the endpoint Halt */
1124:Generated_Source\PSoC5/USBFS_std.c ****         USBFS_EP[ep].hwEpState |= (USBFS_ENDPOINT_STATUS_HALT);
 954              		.loc 1 1124 0
 955 0012 5900     		lsls	r1, r3, #1
 956 0014 1944     		add	r1, r1, r3
 957 0016 8A00     		lsls	r2, r1, #2
 958 0018 1049     		ldr	r1, .L84+4
 959 001a 0A44     		add	r2, r2, r1
 960 001c 9178     		ldrb	r1, [r2, #2]	@ zero_extendqisi2
 961 001e 41F00101 		orr	r1, r1, #1
 962 0022 9170     		strb	r1, [r2, #2]
1125:Generated_Source\PSoC5/USBFS_std.c **** 
1126:Generated_Source\PSoC5/USBFS_std.c ****         /* Clear the data toggle */
1127:Generated_Source\PSoC5/USBFS_std.c ****         USBFS_EP[ep].epToggle = 0u;
 963              		.loc 1 1127 0
 964 0024 0021     		movs	r1, #0
 965 0026 D170     		strb	r1, [r2, #3]
1128:Generated_Source\PSoC5/USBFS_std.c ****         USBFS_EP[ep].apiEpState |= USBFS_NO_EVENT_ALLOWED;
 966              		.loc 1 1128 0
 967 0028 5178     		ldrb	r1, [r2, #1]	@ zero_extendqisi2
 968 002a 41F00201 		orr	r1, r1, #2
 969 002e 5170     		strb	r1, [r2, #1]
1129:Generated_Source\PSoC5/USBFS_std.c **** 
1130:Generated_Source\PSoC5/USBFS_std.c ****         if ((USBFS_EP[ep].addr & USBFS_DIR_IN) != 0u)
 970              		.loc 1 1130 0
 971 0030 1279     		ldrb	r2, [r2, #4]	@ zero_extendqisi2
 972 0032 12F0800F 		tst	r2, #128
 973 0036 05D0     		beq	.L80
1131:Generated_Source\PSoC5/USBFS_std.c ****         {
1132:Generated_Source\PSoC5/USBFS_std.c ****             /* IN Endpoint */
1133:Generated_Source\PSoC5/USBFS_std.c ****             USBFS_SIE_EP_BASE.sieEp[ep].epCr0 = (USBFS_MODE_STALL_DATA_EP | 
 974              		.loc 1 1133 0
 975 0038 1B01     		lsls	r3, r3, #4
 976              	.LVL90:
 977 003a 094A     		ldr	r2, .L84+8
 978 003c 1A44     		add	r2, r2, r3
 979 003e 8D23     		movs	r3, #141
 980 0040 9370     		strb	r3, [r2, #2]
 981 0042 04E0     		b	.L81
 982              	.LVL91:
 983              	.L80:
1134:Generated_Source\PSoC5/USBFS_std.c ****                                                             USBFS_MODE_ACK_IN);
1135:Generated_Source\PSoC5/USBFS_std.c ****         }
1136:Generated_Source\PSoC5/USBFS_std.c ****         else
1137:Generated_Source\PSoC5/USBFS_std.c ****         {
1138:Generated_Source\PSoC5/USBFS_std.c ****             /* OUT Endpoint */
1139:Generated_Source\PSoC5/USBFS_std.c ****             USBFS_SIE_EP_BASE.sieEp[ep].epCr0 = (USBFS_MODE_STALL_DATA_EP | 
 984              		.loc 1 1139 0
 985 0044 1B01     		lsls	r3, r3, #4
 986              	.LVL92:
 987 0046 064A     		ldr	r2, .L84+8
 988 0048 1A44     		add	r2, r2, r3
ARM GAS  C:\Users\Dan\AppData\Local\Temp\ccwiSTnc.s 			page 40


 989 004a 8923     		movs	r3, #137
 990 004c 9370     		strb	r3, [r2, #2]
 991              	.L81:
1140:Generated_Source\PSoC5/USBFS_std.c ****                                                             USBFS_MODE_ACK_OUT);
1141:Generated_Source\PSoC5/USBFS_std.c ****         }
1142:Generated_Source\PSoC5/USBFS_std.c ****         requestHandled = USBFS_InitNoDataControlTransfer();
 992              		.loc 1 1142 0
 993 004e FFF7FEFF 		bl	USBFS_InitNoDataControlTransfer
 994              	.LVL93:
 995 0052 08BD     		pop	{r3, pc}
 996              	.LVL94:
 997              	.L82:
1115:Generated_Source\PSoC5/USBFS_std.c ****     uint8 ep;
 998              		.loc 1 1115 0
 999 0054 0020     		movs	r0, #0
 1000              	.LVL95:
1143:Generated_Source\PSoC5/USBFS_std.c ****     }
1144:Generated_Source\PSoC5/USBFS_std.c **** 
1145:Generated_Source\PSoC5/USBFS_std.c ****     return (requestHandled);
1146:Generated_Source\PSoC5/USBFS_std.c **** }
 1001              		.loc 1 1146 0
 1002 0056 08BD     		pop	{r3, pc}
 1003              	.LVL96:
 1004              	.L85:
 1005              		.align	2
 1006              	.L84:
 1007 0058 00600040 		.word	1073766400
 1008 005c 00000000 		.word	USBFS_EP
 1009 0060 FC5F0040 		.word	1073766396
 1010              		.cfi_endproc
 1011              	.LFE9:
 1012              		.size	USBFS_SetEndpointHalt, .-USBFS_SetEndpointHalt
 1013              		.section	.text.USBFS_ClearEndpointHalt,"ax",%progbits
 1014              		.align	2
 1015              		.global	USBFS_ClearEndpointHalt
 1016              		.thumb
 1017              		.thumb_func
 1018              		.type	USBFS_ClearEndpointHalt, %function
 1019              	USBFS_ClearEndpointHalt:
 1020              	.LFB10:
1147:Generated_Source\PSoC5/USBFS_std.c **** 
1148:Generated_Source\PSoC5/USBFS_std.c **** 
1149:Generated_Source\PSoC5/USBFS_std.c **** /*******************************************************************************
1150:Generated_Source\PSoC5/USBFS_std.c **** * Function Name: USBFS_ClearEndpointHalt
1151:Generated_Source\PSoC5/USBFS_std.c **** ****************************************************************************//**
1152:Generated_Source\PSoC5/USBFS_std.c **** *
1153:Generated_Source\PSoC5/USBFS_std.c **** *  This routine handles clear endpoint halt.
1154:Generated_Source\PSoC5/USBFS_std.c **** *
1155:Generated_Source\PSoC5/USBFS_std.c **** * \return
1156:Generated_Source\PSoC5/USBFS_std.c **** *  requestHandled.
1157:Generated_Source\PSoC5/USBFS_std.c **** *
1158:Generated_Source\PSoC5/USBFS_std.c **** * \reentrant
1159:Generated_Source\PSoC5/USBFS_std.c **** *  No.
1160:Generated_Source\PSoC5/USBFS_std.c **** *
1161:Generated_Source\PSoC5/USBFS_std.c **** *******************************************************************************/
1162:Generated_Source\PSoC5/USBFS_std.c **** uint8 USBFS_ClearEndpointHalt(void) 
1163:Generated_Source\PSoC5/USBFS_std.c **** {
ARM GAS  C:\Users\Dan\AppData\Local\Temp\ccwiSTnc.s 			page 41


 1021              		.loc 1 1163 0
 1022              		.cfi_startproc
 1023              		@ args = 0, pretend = 0, frame = 0
 1024              		@ frame_needed = 0, uses_anonymous_args = 0
 1025              	.LVL97:
1164:Generated_Source\PSoC5/USBFS_std.c ****     uint8 requestHandled = USBFS_FALSE;
1165:Generated_Source\PSoC5/USBFS_std.c ****     uint8 ep;
1166:Generated_Source\PSoC5/USBFS_std.c **** 
1167:Generated_Source\PSoC5/USBFS_std.c ****     /* Clear endpoint halt */
1168:Generated_Source\PSoC5/USBFS_std.c ****     ep = USBFS_wIndexLoReg & USBFS_DIR_UNUSED;
 1026              		.loc 1 1168 0
 1027 0000 274B     		ldr	r3, .L95
 1028 0002 1B79     		ldrb	r3, [r3, #4]	@ zero_extendqisi2
 1029 0004 03F07F03 		and	r3, r3, #127
 1030              	.LVL98:
1169:Generated_Source\PSoC5/USBFS_std.c **** 
1170:Generated_Source\PSoC5/USBFS_std.c ****     if ((ep > USBFS_EP0) && (ep < USBFS_MAX_EP))
 1031              		.loc 1 1170 0
 1032 0008 5A1E     		subs	r2, r3, #1
 1033 000a D2B2     		uxtb	r2, r2
 1034 000c 072A     		cmp	r2, #7
 1035 000e 44D8     		bhi	.L92
1163:Generated_Source\PSoC5/USBFS_std.c ****     uint8 requestHandled = USBFS_FALSE;
 1036              		.loc 1 1163 0
 1037 0010 10B5     		push	{r4, lr}
 1038              		.cfi_def_cfa_offset 8
 1039              		.cfi_offset 4, -8
 1040              		.cfi_offset 14, -4
1171:Generated_Source\PSoC5/USBFS_std.c ****     {
1172:Generated_Source\PSoC5/USBFS_std.c ****         /* Clear the endpoint Halt */
1173:Generated_Source\PSoC5/USBFS_std.c ****         USBFS_EP[ep].hwEpState &= (uint8) ~USBFS_ENDPOINT_STATUS_HALT;
 1041              		.loc 1 1173 0
 1042 0012 5900     		lsls	r1, r3, #1
 1043 0014 1944     		add	r1, r1, r3
 1044 0016 8A00     		lsls	r2, r1, #2
 1045 0018 2249     		ldr	r1, .L95+4
 1046 001a 0A44     		add	r2, r2, r1
 1047 001c 9178     		ldrb	r1, [r2, #2]	@ zero_extendqisi2
 1048 001e 01F0FE01 		and	r1, r1, #254
 1049 0022 9170     		strb	r1, [r2, #2]
1174:Generated_Source\PSoC5/USBFS_std.c **** 
1175:Generated_Source\PSoC5/USBFS_std.c ****         /* Clear the data toggle */
1176:Generated_Source\PSoC5/USBFS_std.c ****         USBFS_EP[ep].epToggle = 0u;
 1050              		.loc 1 1176 0
 1051 0024 0021     		movs	r1, #0
 1052 0026 D170     		strb	r1, [r2, #3]
1177:Generated_Source\PSoC5/USBFS_std.c ****         
1178:Generated_Source\PSoC5/USBFS_std.c ****         /* Clear toggle bit for already armed packet */
1179:Generated_Source\PSoC5/USBFS_std.c ****         USBFS_SIE_EP_BASE.sieEp[ep].epCnt0 &= (uint8) ~(uint8)USBFS_EPX_CNT_DATA_TOGGLE;
 1053              		.loc 1 1179 0
 1054 0028 1F4C     		ldr	r4, .L95+8
 1055 002a 1801     		lsls	r0, r3, #4
 1056 002c 215C     		ldrb	r1, [r4, r0]	@ zero_extendqisi2
 1057 002e 01F07F01 		and	r1, r1, #127
 1058 0032 2154     		strb	r1, [r4, r0]
1180:Generated_Source\PSoC5/USBFS_std.c ****         
1181:Generated_Source\PSoC5/USBFS_std.c ****         /* Return API State as it was defined before */
ARM GAS  C:\Users\Dan\AppData\Local\Temp\ccwiSTnc.s 			page 42


1182:Generated_Source\PSoC5/USBFS_std.c ****         USBFS_EP[ep].apiEpState &= (uint8) ~USBFS_NO_EVENT_ALLOWED;
 1059              		.loc 1 1182 0
 1060 0034 5178     		ldrb	r1, [r2, #1]	@ zero_extendqisi2
 1061 0036 01F0FD01 		and	r1, r1, #253
 1062 003a 5170     		strb	r1, [r2, #1]
1183:Generated_Source\PSoC5/USBFS_std.c **** 
1184:Generated_Source\PSoC5/USBFS_std.c ****         if ((USBFS_EP[ep].addr & USBFS_DIR_IN) != 0u)
 1063              		.loc 1 1184 0
 1064 003c 1279     		ldrb	r2, [r2, #4]	@ zero_extendqisi2
 1065 003e 12F0800F 		tst	r2, #128
 1066 0042 13D0     		beq	.L88
1185:Generated_Source\PSoC5/USBFS_std.c ****         {
1186:Generated_Source\PSoC5/USBFS_std.c ****             /* IN Endpoint */
1187:Generated_Source\PSoC5/USBFS_std.c ****             if(USBFS_EP[ep].apiEpState == USBFS_IN_BUFFER_EMPTY)
 1067              		.loc 1 1187 0
 1068 0044 03EB4301 		add	r1, r3, r3, lsl #1
 1069 0048 8A00     		lsls	r2, r1, #2
 1070 004a 1649     		ldr	r1, .L95+4
 1071 004c 0A44     		add	r2, r2, r1
 1072 004e 5278     		ldrb	r2, [r2, #1]	@ zero_extendqisi2
 1073 0050 D2B2     		uxtb	r2, r2
 1074 0052 012A     		cmp	r2, #1
 1075 0054 04D1     		bne	.L89
1188:Generated_Source\PSoC5/USBFS_std.c ****             {       
1189:Generated_Source\PSoC5/USBFS_std.c ****                 /* Wait for next packet from application */
1190:Generated_Source\PSoC5/USBFS_std.c ****                 USBFS_SIE_EP_BASE.sieEp[ep].epCr0 = USBFS_MODE_NAK_IN;
 1076              		.loc 1 1190 0
 1077 0056 2246     		mov	r2, r4
 1078 0058 0244     		add	r2, r2, r0
 1079 005a 0C23     		movs	r3, #12
 1080              	.LVL99:
 1081 005c 9370     		strb	r3, [r2, #2]
 1082 005e 19E0     		b	.L90
 1083              	.LVL100:
 1084              	.L89:
1191:Generated_Source\PSoC5/USBFS_std.c ****             }
1192:Generated_Source\PSoC5/USBFS_std.c ****             else    /* Continue armed transfer */
1193:Generated_Source\PSoC5/USBFS_std.c ****             {
1194:Generated_Source\PSoC5/USBFS_std.c ****                 USBFS_SIE_EP_BASE.sieEp[ep].epCr0 = USBFS_MODE_ACK_IN;
 1085              		.loc 1 1194 0
 1086 0060 1B01     		lsls	r3, r3, #4
 1087              	.LVL101:
 1088 0062 114A     		ldr	r2, .L95+8
 1089 0064 1A44     		add	r2, r2, r3
 1090 0066 0D23     		movs	r3, #13
 1091 0068 9370     		strb	r3, [r2, #2]
 1092 006a 13E0     		b	.L90
 1093              	.LVL102:
 1094              	.L88:
1195:Generated_Source\PSoC5/USBFS_std.c ****             }
1196:Generated_Source\PSoC5/USBFS_std.c ****         }
1197:Generated_Source\PSoC5/USBFS_std.c ****         else
1198:Generated_Source\PSoC5/USBFS_std.c ****         {
1199:Generated_Source\PSoC5/USBFS_std.c ****             /* OUT Endpoint */
1200:Generated_Source\PSoC5/USBFS_std.c ****             if (USBFS_EP[ep].apiEpState == USBFS_OUT_BUFFER_FULL)
 1095              		.loc 1 1200 0
 1096 006c 03EB4301 		add	r1, r3, r3, lsl #1
ARM GAS  C:\Users\Dan\AppData\Local\Temp\ccwiSTnc.s 			page 43


 1097 0070 8A00     		lsls	r2, r1, #2
 1098 0072 0C49     		ldr	r1, .L95+4
 1099 0074 0A44     		add	r2, r2, r1
 1100 0076 5278     		ldrb	r2, [r2, #1]	@ zero_extendqisi2
 1101 0078 D2B2     		uxtb	r2, r2
 1102 007a 012A     		cmp	r2, #1
 1103 007c 05D1     		bne	.L91
1201:Generated_Source\PSoC5/USBFS_std.c ****             {       
1202:Generated_Source\PSoC5/USBFS_std.c ****                 /* Allow application to read full buffer */
1203:Generated_Source\PSoC5/USBFS_std.c ****                 USBFS_SIE_EP_BASE.sieEp[ep].epCr0 = USBFS_MODE_NAK_OUT;
 1104              		.loc 1 1203 0
 1105 007e 1B01     		lsls	r3, r3, #4
 1106              	.LVL103:
 1107 0080 094A     		ldr	r2, .L95+8
 1108 0082 1A44     		add	r2, r2, r3
 1109 0084 0823     		movs	r3, #8
 1110 0086 9370     		strb	r3, [r2, #2]
 1111 0088 04E0     		b	.L90
 1112              	.LVL104:
 1113              	.L91:
1204:Generated_Source\PSoC5/USBFS_std.c ****             }
1205:Generated_Source\PSoC5/USBFS_std.c ****             else    /* Mark endpoint as empty, so it will be reloaded */
1206:Generated_Source\PSoC5/USBFS_std.c ****             {
1207:Generated_Source\PSoC5/USBFS_std.c ****                 USBFS_SIE_EP_BASE.sieEp[ep].epCr0 = USBFS_MODE_ACK_OUT;
 1114              		.loc 1 1207 0
 1115 008a 1B01     		lsls	r3, r3, #4
 1116              	.LVL105:
 1117 008c 064A     		ldr	r2, .L95+8
 1118 008e 1A44     		add	r2, r2, r3
 1119 0090 0923     		movs	r3, #9
 1120 0092 9370     		strb	r3, [r2, #2]
 1121              	.L90:
1208:Generated_Source\PSoC5/USBFS_std.c ****             }
1209:Generated_Source\PSoC5/USBFS_std.c ****         }
1210:Generated_Source\PSoC5/USBFS_std.c ****         
1211:Generated_Source\PSoC5/USBFS_std.c ****         requestHandled = USBFS_InitNoDataControlTransfer();
 1122              		.loc 1 1211 0
 1123 0094 FFF7FEFF 		bl	USBFS_InitNoDataControlTransfer
 1124              	.LVL106:
 1125 0098 10BD     		pop	{r4, pc}
 1126              	.LVL107:
 1127              	.L92:
 1128              		.cfi_def_cfa_offset 0
 1129              		.cfi_restore 4
 1130              		.cfi_restore 14
1164:Generated_Source\PSoC5/USBFS_std.c ****     uint8 ep;
 1131              		.loc 1 1164 0
 1132 009a 0020     		movs	r0, #0
 1133 009c 7047     		bx	lr
 1134              	.L96:
 1135 009e 00BF     		.align	2
 1136              	.L95:
 1137 00a0 00600040 		.word	1073766400
 1138 00a4 00000000 		.word	USBFS_EP
 1139 00a8 FC5F0040 		.word	1073766396
 1140              		.cfi_endproc
 1141              	.LFE10:
ARM GAS  C:\Users\Dan\AppData\Local\Temp\ccwiSTnc.s 			page 44


 1142              		.size	USBFS_ClearEndpointHalt, .-USBFS_ClearEndpointHalt
 1143              		.section	.text.USBFS_ValidateAlternateSetting,"ax",%progbits
 1144              		.align	2
 1145              		.global	USBFS_ValidateAlternateSetting
 1146              		.thumb
 1147              		.thumb_func
 1148              		.type	USBFS_ValidateAlternateSetting, %function
 1149              	USBFS_ValidateAlternateSetting:
 1150              	.LFB11:
1212:Generated_Source\PSoC5/USBFS_std.c ****     }
1213:Generated_Source\PSoC5/USBFS_std.c **** 
1214:Generated_Source\PSoC5/USBFS_std.c ****     return(requestHandled);
1215:Generated_Source\PSoC5/USBFS_std.c **** }
1216:Generated_Source\PSoC5/USBFS_std.c **** 
1217:Generated_Source\PSoC5/USBFS_std.c **** 
1218:Generated_Source\PSoC5/USBFS_std.c **** /*******************************************************************************
1219:Generated_Source\PSoC5/USBFS_std.c **** * Function Name: USBFS_ValidateAlternateSetting
1220:Generated_Source\PSoC5/USBFS_std.c **** ****************************************************************************//**
1221:Generated_Source\PSoC5/USBFS_std.c **** *
1222:Generated_Source\PSoC5/USBFS_std.c **** *  Validates (and records) a SET INTERFACE request.
1223:Generated_Source\PSoC5/USBFS_std.c **** *
1224:Generated_Source\PSoC5/USBFS_std.c **** * \return
1225:Generated_Source\PSoC5/USBFS_std.c **** *  requestHandled.
1226:Generated_Source\PSoC5/USBFS_std.c **** *
1227:Generated_Source\PSoC5/USBFS_std.c **** * \reentrant
1228:Generated_Source\PSoC5/USBFS_std.c **** *  No.
1229:Generated_Source\PSoC5/USBFS_std.c **** *
1230:Generated_Source\PSoC5/USBFS_std.c **** *******************************************************************************/
1231:Generated_Source\PSoC5/USBFS_std.c **** uint8 USBFS_ValidateAlternateSetting(void) 
1232:Generated_Source\PSoC5/USBFS_std.c **** {
 1151              		.loc 1 1232 0
 1152              		.cfi_startproc
 1153              		@ args = 0, pretend = 0, frame = 0
 1154              		@ frame_needed = 0, uses_anonymous_args = 0
 1155 0000 10B5     		push	{r4, lr}
 1156              		.cfi_def_cfa_offset 8
 1157              		.cfi_offset 4, -8
 1158              		.cfi_offset 14, -4
 1159              	.LVL108:
1233:Generated_Source\PSoC5/USBFS_std.c ****     uint8 requestHandled = USBFS_FALSE;
1234:Generated_Source\PSoC5/USBFS_std.c ****     
1235:Generated_Source\PSoC5/USBFS_std.c ****     uint8 interfaceNum;
1236:Generated_Source\PSoC5/USBFS_std.c ****     uint8 curInterfacesNum;
1237:Generated_Source\PSoC5/USBFS_std.c ****     const T_USBFS_LUT CYCODE *pTmp;
1238:Generated_Source\PSoC5/USBFS_std.c ****     
1239:Generated_Source\PSoC5/USBFS_std.c ****     /* Get interface number from the request. */
1240:Generated_Source\PSoC5/USBFS_std.c ****     interfaceNum = (uint8) USBFS_wIndexLoReg;
 1160              		.loc 1 1240 0
 1161 0002 0E4B     		ldr	r3, .L102
 1162 0004 1C79     		ldrb	r4, [r3, #4]	@ zero_extendqisi2
 1163 0006 E4B2     		uxtb	r4, r4
 1164              	.LVL109:
1241:Generated_Source\PSoC5/USBFS_std.c ****     
1242:Generated_Source\PSoC5/USBFS_std.c ****     /* Get number of interfaces for current configuration. */
1243:Generated_Source\PSoC5/USBFS_std.c ****     pTmp = USBFS_GetConfigTablePtr(USBFS_configuration - 1u);
 1165              		.loc 1 1243 0
 1166 0008 0D4B     		ldr	r3, .L102+4
ARM GAS  C:\Users\Dan\AppData\Local\Temp\ccwiSTnc.s 			page 45


 1167 000a 1878     		ldrb	r0, [r3]	@ zero_extendqisi2
 1168 000c 0138     		subs	r0, r0, #1
 1169 000e C0B2     		uxtb	r0, r0
 1170 0010 FFF7FEFF 		bl	USBFS_GetConfigTablePtr
 1171              	.LVL110:
1244:Generated_Source\PSoC5/USBFS_std.c ****     curInterfacesNum  = ((const uint8 *) pTmp->p_list)[USBFS_CONFIG_DESCR_NUM_INTERFACES];
 1172              		.loc 1 1244 0
 1173 0014 4368     		ldr	r3, [r0, #4]
 1174 0016 1B79     		ldrb	r3, [r3, #4]	@ zero_extendqisi2
 1175              	.LVL111:
1245:Generated_Source\PSoC5/USBFS_std.c **** 
1246:Generated_Source\PSoC5/USBFS_std.c ****     /* Validate that interface number is within range. */
1247:Generated_Source\PSoC5/USBFS_std.c ****     if ((interfaceNum <= curInterfacesNum) || (interfaceNum <= USBFS_MAX_INTERFACES_NUMBER))
 1176              		.loc 1 1247 0
 1177 0018 9C42     		cmp	r4, r3
 1178 001a 01D9     		bls	.L98
 1179              		.loc 1 1247 0 is_stmt 0 discriminator 1
 1180 001c 012C     		cmp	r4, #1
 1181 001e 0AD8     		bhi	.L100
 1182              	.L98:
1248:Generated_Source\PSoC5/USBFS_std.c ****     {
1249:Generated_Source\PSoC5/USBFS_std.c ****         /* Save current and new alternate settings (come with request) to make 
1250:Generated_Source\PSoC5/USBFS_std.c ****         * desicion about following endpoint re-configuration.
1251:Generated_Source\PSoC5/USBFS_std.c ****         */
1252:Generated_Source\PSoC5/USBFS_std.c ****         USBFS_interfaceSettingLast[interfaceNum] = USBFS_interfaceSetting[interfaceNum];
 1183              		.loc 1 1252 0 is_stmt 1
 1184 0020 084A     		ldr	r2, .L102+8
 1185 0022 135D     		ldrb	r3, [r2, r4]	@ zero_extendqisi2
 1186              	.LVL112:
 1187 0024 DBB2     		uxtb	r3, r3
 1188 0026 0849     		ldr	r1, .L102+12
 1189 0028 0B55     		strb	r3, [r1, r4]
1253:Generated_Source\PSoC5/USBFS_std.c ****         USBFS_interfaceSetting[interfaceNum]     = (uint8) USBFS_wValueLoReg;
 1190              		.loc 1 1253 0
 1191 002a 044B     		ldr	r3, .L102
 1192 002c 9B78     		ldrb	r3, [r3, #2]	@ zero_extendqisi2
 1193 002e DBB2     		uxtb	r3, r3
 1194 0030 1355     		strb	r3, [r2, r4]
 1195              	.LVL113:
1254:Generated_Source\PSoC5/USBFS_std.c ****         
1255:Generated_Source\PSoC5/USBFS_std.c ****         requestHandled = USBFS_TRUE;
 1196              		.loc 1 1255 0
 1197 0032 0120     		movs	r0, #1
 1198              	.LVL114:
 1199 0034 10BD     		pop	{r4, pc}
 1200              	.LVL115:
 1201              	.L100:
1233:Generated_Source\PSoC5/USBFS_std.c ****     
 1202              		.loc 1 1233 0
 1203 0036 0020     		movs	r0, #0
 1204              	.LVL116:
1256:Generated_Source\PSoC5/USBFS_std.c ****     }
1257:Generated_Source\PSoC5/USBFS_std.c **** 
1258:Generated_Source\PSoC5/USBFS_std.c ****     return (requestHandled);
1259:Generated_Source\PSoC5/USBFS_std.c **** }
 1205              		.loc 1 1259 0
 1206 0038 10BD     		pop	{r4, pc}
ARM GAS  C:\Users\Dan\AppData\Local\Temp\ccwiSTnc.s 			page 46


 1207              	.LVL117:
 1208              	.L103:
 1209 003a 00BF     		.align	2
 1210              	.L102:
 1211 003c 00600040 		.word	1073766400
 1212 0040 00000000 		.word	USBFS_configuration
 1213 0044 00000000 		.word	USBFS_interfaceSetting
 1214 0048 00000000 		.word	USBFS_interfaceSettingLast
 1215              		.cfi_endproc
 1216              	.LFE11:
 1217              		.size	USBFS_ValidateAlternateSetting, .-USBFS_ValidateAlternateSetting
 1218              		.section	.text.USBFS_HandleStandardRqst,"ax",%progbits
 1219              		.align	2
 1220              		.global	USBFS_HandleStandardRqst
 1221              		.thumb
 1222              		.thumb_func
 1223              		.type	USBFS_HandleStandardRqst, %function
 1224              	USBFS_HandleStandardRqst:
 1225              	.LFB0:
  85:Generated_Source\PSoC5/USBFS_std.c ****     uint8 requestHandled = USBFS_FALSE;
 1226              		.loc 1 85 0
 1227              		.cfi_startproc
 1228              		@ args = 0, pretend = 0, frame = 0
 1229              		@ frame_needed = 0, uses_anonymous_args = 0
 1230 0000 10B5     		push	{r4, lr}
 1231              		.cfi_def_cfa_offset 8
 1232              		.cfi_offset 4, -8
 1233              		.cfi_offset 14, -4
 1234              	.LVL118:
  89:Generated_Source\PSoC5/USBFS_std.c **** 
 1235              		.loc 1 89 0
 1236 0002 9A4B     		ldr	r3, .L160
 1237 0004 1B78     		ldrb	r3, [r3]	@ zero_extendqisi2
 1238 0006 DBB2     		uxtb	r3, r3
 1239              	.LVL119:
 102:Generated_Source\PSoC5/USBFS_std.c **** 
 1240              		.loc 1 102 0
 1241 0008 0021     		movs	r1, #0
 1242 000a 994A     		ldr	r2, .L160+4
 1243 000c 1180     		strh	r1, [r2]	@ movhi
 104:Generated_Source\PSoC5/USBFS_std.c ****     {
 1244              		.loc 1 104 0
 1245 000e 13F0800F 		tst	r3, #128
 1246 0012 00F0A980 		beq	.L105
 107:Generated_Source\PSoC5/USBFS_std.c ****         {
 1247              		.loc 1 107 0
 1248 0016 954A     		ldr	r2, .L160
 1249 0018 5278     		ldrb	r2, [r2, #1]	@ zero_extendqisi2
 1250 001a D2B2     		uxtb	r2, r2
 1251 001c 0A2A     		cmp	r2, #10
 1252 001e 00F27081 		bhi	.L138
 1253 0022 DFE812F0 		tbh	[pc, r2, lsl #1]
 1254              	.L108:
 1255 0026 6500     		.2byte	(.L107-.L108)/2
 1256 0028 6E01     		.2byte	(.L138-.L108)/2
 1257 002a 6E01     		.2byte	(.L138-.L108)/2
 1258 002c 6E01     		.2byte	(.L138-.L108)/2
ARM GAS  C:\Users\Dan\AppData\Local\Temp\ccwiSTnc.s 			page 47


 1259 002e 6E01     		.2byte	(.L138-.L108)/2
 1260 0030 6E01     		.2byte	(.L138-.L108)/2
 1261 0032 0B00     		.2byte	(.L109-.L108)/2
 1262 0034 6E01     		.2byte	(.L138-.L108)/2
 1263 0036 8E00     		.2byte	(.L110-.L108)/2
 1264 0038 6E01     		.2byte	(.L138-.L108)/2
 1265 003a 9600     		.2byte	(.L111-.L108)/2
 1266              		.p2align 1
 1267              	.L109:
 110:Generated_Source\PSoC5/USBFS_std.c ****                 {
 1268              		.loc 1 110 0
 1269 003c 8B4B     		ldr	r3, .L160
 1270              	.LVL120:
 1271 003e DB78     		ldrb	r3, [r3, #3]	@ zero_extendqisi2
 1272 0040 DBB2     		uxtb	r3, r3
 1273 0042 012B     		cmp	r3, #1
 1274 0044 09D1     		bne	.L112
 112:Generated_Source\PSoC5/USBFS_std.c ****                     USBFS_currentTD.pData = (volatile uint8 *)pTmp->p_list;
 1275              		.loc 1 112 0
 1276 0046 FFF7FEFF 		bl	USBFS_GetDeviceTablePtr
 1277              	.LVL121:
 113:Generated_Source\PSoC5/USBFS_std.c ****                     USBFS_currentTD.count = USBFS_DEVICE_DESCR_LENGTH;
 1278              		.loc 1 113 0
 1279 004a 4268     		ldr	r2, [r0, #4]
 1280 004c 884B     		ldr	r3, .L160+4
 1281 004e 5A60     		str	r2, [r3, #4]
 114:Generated_Source\PSoC5/USBFS_std.c ****                     
 1282              		.loc 1 114 0
 1283 0050 1222     		movs	r2, #18
 1284 0052 1A80     		strh	r2, [r3]	@ movhi
 116:Generated_Source\PSoC5/USBFS_std.c ****                 }
 1285              		.loc 1 116 0
 1286 0054 FFF7FEFF 		bl	USBFS_InitControlRead
 1287              	.LVL122:
 1288 0058 10BD     		pop	{r4, pc}
 1289              	.LVL123:
 1290              	.L112:
 118:Generated_Source\PSoC5/USBFS_std.c ****                 {
 1291              		.loc 1 118 0
 1292 005a 844B     		ldr	r3, .L160
 1293 005c DB78     		ldrb	r3, [r3, #3]	@ zero_extendqisi2
 1294 005e DBB2     		uxtb	r3, r3
 1295 0060 022B     		cmp	r3, #2
 1296 0062 13D1     		bne	.L113
 120:Generated_Source\PSoC5/USBFS_std.c ****                     
 1297              		.loc 1 120 0
 1298 0064 814B     		ldr	r3, .L160
 1299 0066 9878     		ldrb	r0, [r3, #2]	@ zero_extendqisi2
 1300 0068 FFF7FEFF 		bl	USBFS_GetConfigTablePtr
 1301              	.LVL124:
 123:Generated_Source\PSoC5/USBFS_std.c ****                     {
 1302              		.loc 1 123 0
 1303 006c 0028     		cmp	r0, #0
 1304 006e 00F04A81 		beq	.L139
 125:Generated_Source\PSoC5/USBFS_std.c ****                         USBFS_currentTD.count = (uint16)((uint16)(USBFS_currentTD.pData)[USBFS_CONF
 1305              		.loc 1 125 0
 1306 0072 4268     		ldr	r2, [r0, #4]
ARM GAS  C:\Users\Dan\AppData\Local\Temp\ccwiSTnc.s 			page 48


 1307 0074 7E4B     		ldr	r3, .L160+4
 1308 0076 5A60     		str	r2, [r3, #4]
 126:Generated_Source\PSoC5/USBFS_std.c ****                                                                             (USBFS_currentTD.pData)
 1309              		.loc 1 126 0
 1310 0078 5A68     		ldr	r2, [r3, #4]
 1311 007a D178     		ldrb	r1, [r2, #3]	@ zero_extendqisi2
 127:Generated_Source\PSoC5/USBFS_std.c ****                         requestHandled  = USBFS_InitControlRead();
 1312              		.loc 1 127 0
 1313 007c 5A68     		ldr	r2, [r3, #4]
 1314 007e 9278     		ldrb	r2, [r2, #2]	@ zero_extendqisi2
 126:Generated_Source\PSoC5/USBFS_std.c ****                                                                             (USBFS_currentTD.pData)
 1315              		.loc 1 126 0
 1316 0080 42EA0122 		orr	r2, r2, r1, lsl #8
 1317 0084 1A80     		strh	r2, [r3]	@ movhi
 128:Generated_Source\PSoC5/USBFS_std.c ****                     }
 1318              		.loc 1 128 0
 1319 0086 FFF7FEFF 		bl	USBFS_InitControlRead
 1320              	.LVL125:
 1321 008a 10BD     		pop	{r4, pc}
 1322              	.LVL126:
 1323              	.L113:
 149:Generated_Source\PSoC5/USBFS_std.c ****                 {
 1324              		.loc 1 149 0
 1325 008c 774B     		ldr	r3, .L160
 1326 008e DB78     		ldrb	r3, [r3, #3]	@ zero_extendqisi2
 1327 0090 DBB2     		uxtb	r3, r3
 1328 0092 032B     		cmp	r3, #3
 1329 0094 05D0     		beq	.L140
 1330 0096 28E0     		b	.L155
 1331              	.LVL127:
 1332              	.L117:
 159:Generated_Source\PSoC5/USBFS_std.c ****                         /* Move to next string descriptor */
 1333              		.loc 1 159 0
 1334 0098 0A78     		ldrb	r2, [r1]	@ zero_extendqisi2
 1335              	.LVL128:
 161:Generated_Source\PSoC5/USBFS_std.c ****                         nStr++;
 1336              		.loc 1 161 0
 1337 009a 1144     		add	r1, r1, r2
 1338              	.LVL129:
 162:Generated_Source\PSoC5/USBFS_std.c ****                     }
 1339              		.loc 1 162 0
 1340 009c 0133     		adds	r3, r3, #1
 1341              	.LVL130:
 1342 009e DBB2     		uxtb	r3, r3
 1343              	.LVL131:
 1344 00a0 01E0     		b	.L114
 1345              	.LVL132:
 1346              	.L140:
 1347 00a2 0023     		movs	r3, #0
 1348 00a4 7349     		ldr	r1, .L160+8
 1349              	.LVL133:
 1350              	.L114:
 156:Generated_Source\PSoC5/USBFS_std.c ****                     {
 1351              		.loc 1 156 0
 1352 00a6 714A     		ldr	r2, .L160
 1353 00a8 9278     		ldrb	r2, [r2, #2]	@ zero_extendqisi2
 1354 00aa D2B2     		uxtb	r2, r2
ARM GAS  C:\Users\Dan\AppData\Local\Temp\ccwiSTnc.s 			page 49


 1355 00ac 9342     		cmp	r3, r2
 1356 00ae 03D2     		bcs	.L116
 156:Generated_Source\PSoC5/USBFS_std.c ****                     {
 1357              		.loc 1 156 0 is_stmt 0 discriminator 1
 1358 00b0 0A78     		ldrb	r2, [r1]	@ zero_extendqisi2
 1359 00b2 12F0FF0F 		tst	r2, #255
 1360 00b6 EFD1     		bne	.L117
 1361              	.L116:
 176:Generated_Source\PSoC5/USBFS_std.c ****                         (USBFS_wValueLoReg == USBFS_DEVICE0_DESCR[USBFS_DEVICE_DESCR_SN_SHIFT]))
 1362              		.loc 1 176 0 is_stmt 1
 1363 00b8 6C4B     		ldr	r3, .L160
 1364              	.LVL134:
 1365 00ba 9B78     		ldrb	r3, [r3, #2]	@ zero_extendqisi2
 1366 00bc 13F0FF0F 		tst	r3, #255
 1367 00c0 07D0     		beq	.L118
 177:Generated_Source\PSoC5/USBFS_std.c ****                     {
 1368              		.loc 1 177 0 discriminator 1
 1369 00c2 6A4B     		ldr	r3, .L160
 1370 00c4 9B78     		ldrb	r3, [r3, #2]	@ zero_extendqisi2
 1371 00c6 DBB2     		uxtb	r3, r3
 1372 00c8 6B4A     		ldr	r2, .L160+12
 1373 00ca 127C     		ldrb	r2, [r2, #16]	@ zero_extendqisi2
 176:Generated_Source\PSoC5/USBFS_std.c ****                         (USBFS_wValueLoReg == USBFS_DEVICE0_DESCR[USBFS_DEVICE_DESCR_SN_SHIFT]))
 1374              		.loc 1 176 0 discriminator 1
 1375 00cc 9342     		cmp	r3, r2
 1376 00ce 00D1     		bne	.L118
 194:Generated_Source\PSoC5/USBFS_std.c ****                     #endif  /* (USBFS_ENABLE_IDSN_STRING) */
 1377              		.loc 1 194 0
 1378 00d0 6A49     		ldr	r1, .L160+16
 1379              	.LVL135:
 1380              	.L118:
 199:Generated_Source\PSoC5/USBFS_std.c ****                     {
 1381              		.loc 1 199 0
 1382 00d2 0B78     		ldrb	r3, [r1]	@ zero_extendqisi2
 1383 00d4 13F0FF0F 		tst	r3, #255
 1384 00d8 00F01781 		beq	.L142
 201:Generated_Source\PSoC5/USBFS_std.c ****                         USBFS_currentTD.pData = pStr;
 1385              		.loc 1 201 0
 1386 00dc 0B78     		ldrb	r3, [r1]	@ zero_extendqisi2
 1387 00de 644A     		ldr	r2, .L160+4
 1388 00e0 1380     		strh	r3, [r2]	@ movhi
 202:Generated_Source\PSoC5/USBFS_std.c ****                         requestHandled  = USBFS_InitControlRead();
 1389              		.loc 1 202 0
 1390 00e2 5160     		str	r1, [r2, #4]
 203:Generated_Source\PSoC5/USBFS_std.c ****                     }
 1391              		.loc 1 203 0
 1392 00e4 FFF7FEFF 		bl	USBFS_InitControlRead
 1393              	.LVL136:
 1394 00e8 10BD     		pop	{r4, pc}
 1395              	.LVL137:
 1396              	.L155:
 209:Generated_Source\PSoC5/USBFS_std.c ****                 }
 1397              		.loc 1 209 0
 1398 00ea FFF7FEFF 		bl	USBFS_DispatchClassRqst
 1399              	.LVL138:
 1400 00ee 10BD     		pop	{r4, pc}
 1401              	.LVL139:
ARM GAS  C:\Users\Dan\AppData\Local\Temp\ccwiSTnc.s 			page 50


 1402              	.L107:
 214:Generated_Source\PSoC5/USBFS_std.c ****                 {
 1403              		.loc 1 214 0
 1404 00f0 13F00303 		ands	r3, r3, #3
 1405              	.LVL140:
 1406 00f4 17D0     		beq	.L119
 1407 00f6 022B     		cmp	r3, #2
 1408 00f8 40F00981 		bne	.L156
 217:Generated_Source\PSoC5/USBFS_std.c ****                         USBFS_tBuffer[0u]     = USBFS_EP[USBFS_wIndexLoReg & USBFS_DIR_UNUSED].hwEp
 1409              		.loc 1 217 0
 1410 00fc 5C49     		ldr	r1, .L160+4
 1411 00fe 0B80     		strh	r3, [r1]	@ movhi
 218:Generated_Source\PSoC5/USBFS_std.c ****                         USBFS_tBuffer[1u]     = 0u;
 1412              		.loc 1 218 0
 1413 0100 5A4B     		ldr	r3, .L160
 1414 0102 1B79     		ldrb	r3, [r3, #4]	@ zero_extendqisi2
 1415 0104 03F07F03 		and	r3, r3, #127
 1416 0108 03EB4303 		add	r3, r3, r3, lsl #1
 1417 010c 9A00     		lsls	r2, r3, #2
 1418 010e 5C4B     		ldr	r3, .L160+20
 1419 0110 1A44     		add	r2, r2, r3
 1420 0112 9278     		ldrb	r2, [r2, #2]	@ zero_extendqisi2
 1421 0114 D2B2     		uxtb	r2, r2
 1422 0116 5B4B     		ldr	r3, .L160+24
 1423 0118 1A70     		strb	r2, [r3]
 219:Generated_Source\PSoC5/USBFS_std.c ****                         USBFS_currentTD.pData = &USBFS_tBuffer[0u];
 1424              		.loc 1 219 0
 1425 011a 0022     		movs	r2, #0
 1426 011c 5A70     		strb	r2, [r3, #1]
 220:Generated_Source\PSoC5/USBFS_std.c ****                         
 1427              		.loc 1 220 0
 1428 011e 4B60     		str	r3, [r1, #4]
 222:Generated_Source\PSoC5/USBFS_std.c ****                         break;
 1429              		.loc 1 222 0
 1430 0120 FFF7FEFF 		bl	USBFS_InitControlRead
 1431              	.LVL141:
 223:Generated_Source\PSoC5/USBFS_std.c ****                     case USBFS_RQST_RCPT_DEV:
 1432              		.loc 1 223 0
 1433 0124 10BD     		pop	{r4, pc}
 1434              	.LVL142:
 1435              	.L119:
 225:Generated_Source\PSoC5/USBFS_std.c ****                         USBFS_tBuffer[0u]     = USBFS_deviceStatus;
 1436              		.loc 1 225 0
 1437 0126 5249     		ldr	r1, .L160+4
 1438 0128 0223     		movs	r3, #2
 1439 012a 0B80     		strh	r3, [r1]	@ movhi
 226:Generated_Source\PSoC5/USBFS_std.c ****                         USBFS_tBuffer[1u]     = 0u;
 1440              		.loc 1 226 0
 1441 012c 564B     		ldr	r3, .L160+28
 1442 012e 1A78     		ldrb	r2, [r3]	@ zero_extendqisi2
 1443 0130 D2B2     		uxtb	r2, r2
 1444 0132 544B     		ldr	r3, .L160+24
 1445 0134 1A70     		strb	r2, [r3]
 227:Generated_Source\PSoC5/USBFS_std.c ****                         USBFS_currentTD.pData = &USBFS_tBuffer[0u];
 1446              		.loc 1 227 0
 1447 0136 0022     		movs	r2, #0
 1448 0138 5A70     		strb	r2, [r3, #1]
ARM GAS  C:\Users\Dan\AppData\Local\Temp\ccwiSTnc.s 			page 51


 228:Generated_Source\PSoC5/USBFS_std.c ****                         
 1449              		.loc 1 228 0
 1450 013a 4B60     		str	r3, [r1, #4]
 230:Generated_Source\PSoC5/USBFS_std.c ****                         break;
 1451              		.loc 1 230 0
 1452 013c FFF7FEFF 		bl	USBFS_InitControlRead
 1453              	.LVL143:
 231:Generated_Source\PSoC5/USBFS_std.c ****                     default:    /* requestHandled is initialized as FALSE by default */
 1454              		.loc 1 231 0
 1455 0140 10BD     		pop	{r4, pc}
 1456              	.LVL144:
 1457              	.L110:
 238:Generated_Source\PSoC5/USBFS_std.c ****                 USBFS_currentTD.pData = (volatile uint8 *) &USBFS_configuration;
 1458              		.loc 1 238 0
 1459 0142 4B4B     		ldr	r3, .L160+4
 1460              	.LVL145:
 1461 0144 0122     		movs	r2, #1
 1462 0146 1A80     		strh	r2, [r3]	@ movhi
 239:Generated_Source\PSoC5/USBFS_std.c ****                 requestHandled  = USBFS_InitControlRead();
 1463              		.loc 1 239 0
 1464 0148 504A     		ldr	r2, .L160+32
 1465 014a 5A60     		str	r2, [r3, #4]
 240:Generated_Source\PSoC5/USBFS_std.c ****                 break;
 1466              		.loc 1 240 0
 1467 014c FFF7FEFF 		bl	USBFS_InitControlRead
 1468              	.LVL146:
 241:Generated_Source\PSoC5/USBFS_std.c ****                 
 1469              		.loc 1 241 0
 1470 0150 10BD     		pop	{r4, pc}
 1471              	.LVL147:
 1472              	.L111:
 244:Generated_Source\PSoC5/USBFS_std.c ****                 USBFS_currentTD.pData = (volatile uint8 *) &USBFS_interfaceSetting[USBFS_wIndexLoRe
 1473              		.loc 1 244 0
 1474 0152 474A     		ldr	r2, .L160+4
 1475 0154 0123     		movs	r3, #1
 1476              	.LVL148:
 1477 0156 1380     		strh	r3, [r2]	@ movhi
 245:Generated_Source\PSoC5/USBFS_std.c ****                 requestHandled  = USBFS_InitControlRead();
 1478              		.loc 1 245 0
 1479 0158 444B     		ldr	r3, .L160
 1480 015a 1B79     		ldrb	r3, [r3, #4]	@ zero_extendqisi2
 1481 015c 4C49     		ldr	r1, .L160+36
 1482 015e 0B44     		add	r3, r3, r1
 1483 0160 5360     		str	r3, [r2, #4]
 246:Generated_Source\PSoC5/USBFS_std.c ****                 break;
 1484              		.loc 1 246 0
 1485 0162 FFF7FEFF 		bl	USBFS_InitControlRead
 1486              	.LVL149:
 247:Generated_Source\PSoC5/USBFS_std.c ****                 
 1487              		.loc 1 247 0
 1488 0166 10BD     		pop	{r4, pc}
 1489              	.LVL150:
 1490              	.L105:
 256:Generated_Source\PSoC5/USBFS_std.c ****         {
 1491              		.loc 1 256 0
 1492 0168 404A     		ldr	r2, .L160
 1493 016a 5278     		ldrb	r2, [r2, #1]	@ zero_extendqisi2
ARM GAS  C:\Users\Dan\AppData\Local\Temp\ccwiSTnc.s 			page 52


 1494 016c 013A     		subs	r2, r2, #1
 1495 016e 0A2A     		cmp	r2, #10
 1496 0170 00F2CF80 		bhi	.L144
 1497 0174 DFE812F0 		tbh	[pc, r2, lsl #1]
 1498              	.L122:
 1499 0178 4C00     		.2byte	(.L121-.L122)/2
 1500 017a CD00     		.2byte	(.L144-.L122)/2
 1501 017c 9800     		.2byte	(.L123-.L122)/2
 1502 017e CD00     		.2byte	(.L144-.L122)/2
 1503 0180 0B00     		.2byte	(.L124-.L122)/2
 1504 0182 CD00     		.2byte	(.L144-.L122)/2
 1505 0184 CD00     		.2byte	(.L144-.L122)/2
 1506 0186 CD00     		.2byte	(.L144-.L122)/2
 1507 0188 1300     		.2byte	(.L125-.L122)/2
 1508 018a CD00     		.2byte	(.L144-.L122)/2
 1509 018c 3000     		.2byte	(.L126-.L122)/2
 1510              		.p2align 1
 1511              	.L124:
 260:Generated_Source\PSoC5/USBFS_std.c ****                 requestHandled = USBFS_InitNoDataControlTransfer();
 1512              		.loc 1 260 0
 1513 018e 374B     		ldr	r3, .L160
 1514              	.LVL151:
 1515 0190 9B78     		ldrb	r3, [r3, #2]	@ zero_extendqisi2
 1516 0192 DBB2     		uxtb	r3, r3
 1517 0194 3F4A     		ldr	r2, .L160+40
 1518 0196 1370     		strb	r3, [r2]
 261:Generated_Source\PSoC5/USBFS_std.c ****                 break;
 1519              		.loc 1 261 0
 1520 0198 FFF7FEFF 		bl	USBFS_InitNoDataControlTransfer
 1521              	.LVL152:
 262:Generated_Source\PSoC5/USBFS_std.c ****                 
 1522              		.loc 1 262 0
 1523 019c 10BD     		pop	{r4, pc}
 1524              	.LVL153:
 1525              	.L125:
 265:Generated_Source\PSoC5/USBFS_std.c ****                 
 1526              		.loc 1 265 0
 1527 019e 334B     		ldr	r3, .L160
 1528              	.LVL154:
 1529 01a0 9B78     		ldrb	r3, [r3, #2]	@ zero_extendqisi2
 1530              	.LVL155:
 268:Generated_Source\PSoC5/USBFS_std.c ****                 {
 1531              		.loc 1 268 0
 1532 01a2 03F0FF04 		and	r4, r3, #255
 1533 01a6 1BB1     		cbz	r3, .L127
 270:Generated_Source\PSoC5/USBFS_std.c ****                 }
 1534              		.loc 1 270 0
 1535 01a8 601E     		subs	r0, r4, #1
 1536 01aa C0B2     		uxtb	r0, r0
 1537 01ac FFF7FEFF 		bl	USBFS_GetConfigTablePtr
 1538              	.LVL156:
 1539              	.L127:
 274:Generated_Source\PSoC5/USBFS_std.c ****                 {
 1540              		.loc 1 274 0
 1541 01b0 04B1     		cbz	r4, .L128
 274:Generated_Source\PSoC5/USBFS_std.c ****                 {
 1542              		.loc 1 274 0 is_stmt 0 discriminator 1
ARM GAS  C:\Users\Dan\AppData\Local\Temp\ccwiSTnc.s 			page 53


 1543 01b2 10B9     		cbnz	r0, .L129
 1544              	.L128:
 274:Generated_Source\PSoC5/USBFS_std.c ****                 {
 1545              		.loc 1 274 0 discriminator 3
 1546 01b4 002C     		cmp	r4, #0
 1547 01b6 40F0AE80 		bne	.L145
 1548              	.L129:
 277:Generated_Source\PSoC5/USBFS_std.c ****                     {
 1549              		.loc 1 277 0 is_stmt 1
 1550 01ba 344B     		ldr	r3, .L160+32
 1551 01bc 1B78     		ldrb	r3, [r3]	@ zero_extendqisi2
 1552 01be DBB2     		uxtb	r3, r3
 1553 01c0 9C42     		cmp	r4, r3
 1554 01c2 06D0     		beq	.L130
 279:Generated_Source\PSoC5/USBFS_std.c ****                         USBFS_configurationChanged = USBFS_TRUE;
 1555              		.loc 1 279 0
 1556 01c4 314B     		ldr	r3, .L160+32
 1557 01c6 1C70     		strb	r4, [r3]
 280:Generated_Source\PSoC5/USBFS_std.c ****                         USBFS_Config(USBFS_TRUE);
 1558              		.loc 1 280 0
 1559 01c8 0120     		movs	r0, #1
 1560              	.LVL157:
 1561 01ca 334B     		ldr	r3, .L160+44
 1562 01cc 1870     		strb	r0, [r3]
 281:Generated_Source\PSoC5/USBFS_std.c ****                     }
 1563              		.loc 1 281 0
 1564 01ce FFF7FEFF 		bl	USBFS_Config
 1565              	.LVL158:
 1566              	.L130:
 283:Generated_Source\PSoC5/USBFS_std.c ****                 }
 1567              		.loc 1 283 0
 1568 01d2 FFF7FEFF 		bl	USBFS_InitNoDataControlTransfer
 1569              	.LVL159:
 1570 01d6 10BD     		pop	{r4, pc}
 1571              	.LVL160:
 1572              	.L126:
 288:Generated_Source\PSoC5/USBFS_std.c ****                 {
 1573              		.loc 1 288 0
 1574 01d8 FFF7FEFF 		bl	USBFS_ValidateAlternateSetting
 1575              	.LVL161:
 1576 01dc 0028     		cmp	r0, #0
 1577 01de 00F09C80 		beq	.L146
 291:Generated_Source\PSoC5/USBFS_std.c ****                     USBFS_interfaceNumber = (uint8) USBFS_wIndexLoReg;
 1578              		.loc 1 291 0
 1579 01e2 224A     		ldr	r2, .L160
 1580 01e4 1379     		ldrb	r3, [r2, #4]	@ zero_extendqisi2
 1581 01e6 DBB2     		uxtb	r3, r3
 1582              	.LVL162:
 292:Generated_Source\PSoC5/USBFS_std.c ****                      
 1583              		.loc 1 292 0
 1584 01e8 1279     		ldrb	r2, [r2, #4]	@ zero_extendqisi2
 1585 01ea D2B2     		uxtb	r2, r2
 1586 01ec 2B49     		ldr	r1, .L160+48
 1587 01ee 0A70     		strb	r2, [r1]
 295:Generated_Source\PSoC5/USBFS_std.c ****                     {
 1588              		.loc 1 295 0
 1589 01f0 2B4A     		ldr	r2, .L160+52
ARM GAS  C:\Users\Dan\AppData\Local\Temp\ccwiSTnc.s 			page 54


 1590 01f2 D25C     		ldrb	r2, [r2, r3]	@ zero_extendqisi2
 1591 01f4 D2B2     		uxtb	r2, r2
 1592 01f6 2649     		ldr	r1, .L160+36
 1593 01f8 CB5C     		ldrb	r3, [r1, r3]	@ zero_extendqisi2
 1594              	.LVL163:
 1595 01fa DBB2     		uxtb	r3, r3
 1596 01fc 9A42     		cmp	r2, r3
 1597 01fe 04D0     		beq	.L131
 297:Generated_Source\PSoC5/USBFS_std.c ****                     
 1598              		.loc 1 297 0
 1599 0200 0122     		movs	r2, #1
 1600 0202 254B     		ldr	r3, .L160+44
 1601 0204 1A70     		strb	r2, [r3]
 303:Generated_Source\PSoC5/USBFS_std.c ****                     #endif /* (USBFS_EP_MANAGEMENT_MANUAL && USBFS_EP_ALLOC_DYNAMIC) */
 1602              		.loc 1 303 0
 1603 0206 FFF7FEFF 		bl	USBFS_ConfigAltChanged
 1604              	.LVL164:
 1605              	.L131:
 307:Generated_Source\PSoC5/USBFS_std.c ****                 }
 1606              		.loc 1 307 0
 1607 020a FFF7FEFF 		bl	USBFS_InitNoDataControlTransfer
 1608              	.LVL165:
 1609 020e 10BD     		pop	{r4, pc}
 1610              	.LVL166:
 1611              	.L121:
 312:Generated_Source\PSoC5/USBFS_std.c ****                 {
 1612              		.loc 1 312 0
 1613 0210 03F00303 		and	r3, r3, #3
 1614              	.LVL167:
 1615 0214 012B     		cmp	r3, #1
 1616 0216 17D0     		beq	.L132
 1617 0218 4BB1     		cbz	r3, .L133
 1618 021a 022B     		cmp	r3, #2
 1619 021c 7FD1     		bne	.L157
 315:Generated_Source\PSoC5/USBFS_std.c ****                         {
 1620              		.loc 1 315 0
 1621 021e 134B     		ldr	r3, .L160
 1622 0220 9B78     		ldrb	r3, [r3, #2]	@ zero_extendqisi2
 1623 0222 13F0FF0F 		tst	r3, #255
 1624 0226 7CD1     		bne	.L148
 317:Generated_Source\PSoC5/USBFS_std.c ****                         }
 1625              		.loc 1 317 0
 1626 0228 FFF7FEFF 		bl	USBFS_ClearEndpointHalt
 1627              	.LVL168:
 1628 022c 10BD     		pop	{r4, pc}
 1629              	.LVL169:
 1630              	.L133:
 322:Generated_Source\PSoC5/USBFS_std.c ****                         {
 1631              		.loc 1 322 0
 1632 022e 0F4B     		ldr	r3, .L160
 1633 0230 9B78     		ldrb	r3, [r3, #2]	@ zero_extendqisi2
 1634 0232 DBB2     		uxtb	r3, r3
 1635 0234 012B     		cmp	r3, #1
 1636 0236 76D1     		bne	.L149
 324:Generated_Source\PSoC5/USBFS_std.c ****                             requestHandled = USBFS_InitNoDataControlTransfer();
 1637              		.loc 1 324 0
 1638 0238 134A     		ldr	r2, .L160+28
ARM GAS  C:\Users\Dan\AppData\Local\Temp\ccwiSTnc.s 			page 55


 1639 023a 1378     		ldrb	r3, [r2]	@ zero_extendqisi2
 1640 023c 03F0FD03 		and	r3, r3, #253
 1641 0240 1370     		strb	r3, [r2]
 325:Generated_Source\PSoC5/USBFS_std.c ****                         }
 1642              		.loc 1 325 0
 1643 0242 FFF7FEFF 		bl	USBFS_InitNoDataControlTransfer
 1644              	.LVL170:
 1645 0246 10BD     		pop	{r4, pc}
 1646              	.LVL171:
 1647              	.L132:
 330:Generated_Source\PSoC5/USBFS_std.c ****                         {
 1648              		.loc 1 330 0
 1649 0248 084B     		ldr	r3, .L160
 1650 024a 1B79     		ldrb	r3, [r3, #4]	@ zero_extendqisi2
 1651 024c 13F0FF0F 		tst	r3, #255
 1652 0250 6BD1     		bne	.L150
 332:Generated_Source\PSoC5/USBFS_std.c ****                             requestHandled = USBFS_InitNoDataControlTransfer();
 1653              		.loc 1 332 0
 1654 0252 064B     		ldr	r3, .L160
 1655 0254 9878     		ldrb	r0, [r3, #2]	@ zero_extendqisi2
 1656 0256 1B79     		ldrb	r3, [r3, #4]	@ zero_extendqisi2
 1657 0258 DBB2     		uxtb	r3, r3
 1658 025a 1249     		ldr	r1, .L160+56
 1659 025c CA5C     		ldrb	r2, [r1, r3]	@ zero_extendqisi2
 1660 025e 22EA0002 		bic	r2, r2, r0
 1661 0262 CA54     		strb	r2, [r1, r3]
 333:Generated_Source\PSoC5/USBFS_std.c ****                         }
 1662              		.loc 1 333 0
 1663 0264 FFF7FEFF 		bl	USBFS_InitNoDataControlTransfer
 1664              	.LVL172:
 1665 0268 10BD     		pop	{r4, pc}
 1666              	.L161:
 1667 026a 00BF     		.align	2
 1668              	.L160:
 1669 026c 00600040 		.word	1073766400
 1670 0270 00000000 		.word	USBFS_currentTD
 1671 0274 00000000 		.word	USBFS_STRING_DESCRIPTORS
 1672 0278 00000000 		.word	USBFS_DEVICE0_DESCR
 1673 027c 00000000 		.word	USBFS_SN_STRING_DESCRIPTOR
 1674 0280 00000000 		.word	USBFS_EP
 1675 0284 00000000 		.word	.LANCHOR0
 1676 0288 00000000 		.word	USBFS_deviceStatus
 1677 028c 00000000 		.word	USBFS_configuration
 1678 0290 00000000 		.word	USBFS_interfaceSetting
 1679 0294 00000000 		.word	USBFS_deviceAddress
 1680 0298 00000000 		.word	USBFS_configurationChanged
 1681 029c 00000000 		.word	USBFS_interfaceNumber
 1682 02a0 00000000 		.word	USBFS_interfaceSettingLast
 1683 02a4 00000000 		.word	USBFS_interfaceStatus
 1684              	.LVL173:
 1685              	.L123:
 342:Generated_Source\PSoC5/USBFS_std.c ****                 {
 1686              		.loc 1 342 0
 1687 02a8 03F00303 		and	r3, r3, #3
 1688              	.LVL174:
 1689 02ac 012B     		cmp	r3, #1
 1690 02ae 17D0     		beq	.L135
ARM GAS  C:\Users\Dan\AppData\Local\Temp\ccwiSTnc.s 			page 56


 1691 02b0 4BB1     		cbz	r3, .L136
 1692 02b2 022B     		cmp	r3, #2
 1693 02b4 3BD1     		bne	.L158
 345:Generated_Source\PSoC5/USBFS_std.c ****                         {
 1694              		.loc 1 345 0
 1695 02b6 224B     		ldr	r3, .L162
 1696 02b8 9B78     		ldrb	r3, [r3, #2]	@ zero_extendqisi2
 1697 02ba 13F0FF0F 		tst	r3, #255
 1698 02be 38D1     		bne	.L152
 347:Generated_Source\PSoC5/USBFS_std.c ****                         }
 1699              		.loc 1 347 0
 1700 02c0 FFF7FEFF 		bl	USBFS_SetEndpointHalt
 1701              	.LVL175:
 1702 02c4 10BD     		pop	{r4, pc}
 1703              	.LVL176:
 1704              	.L136:
 353:Generated_Source\PSoC5/USBFS_std.c ****                         {
 1705              		.loc 1 353 0
 1706 02c6 1E4B     		ldr	r3, .L162
 1707 02c8 9B78     		ldrb	r3, [r3, #2]	@ zero_extendqisi2
 1708 02ca DBB2     		uxtb	r3, r3
 1709 02cc 012B     		cmp	r3, #1
 1710 02ce 32D1     		bne	.L153
 355:Generated_Source\PSoC5/USBFS_std.c ****                             requestHandled = USBFS_InitNoDataControlTransfer();
 1711              		.loc 1 355 0
 1712 02d0 1C4A     		ldr	r2, .L162+4
 1713 02d2 1378     		ldrb	r3, [r2]	@ zero_extendqisi2
 1714 02d4 43F00203 		orr	r3, r3, #2
 1715 02d8 1370     		strb	r3, [r2]
 356:Generated_Source\PSoC5/USBFS_std.c ****                         }
 1716              		.loc 1 356 0
 1717 02da FFF7FEFF 		bl	USBFS_InitNoDataControlTransfer
 1718              	.LVL177:
 1719 02de 10BD     		pop	{r4, pc}
 1720              	.LVL178:
 1721              	.L135:
 362:Generated_Source\PSoC5/USBFS_std.c ****                         {
 1722              		.loc 1 362 0
 1723 02e0 174B     		ldr	r3, .L162
 1724 02e2 1B79     		ldrb	r3, [r3, #4]	@ zero_extendqisi2
 1725 02e4 13F0FF0F 		tst	r3, #255
 1726 02e8 27D1     		bne	.L154
 364:Generated_Source\PSoC5/USBFS_std.c ****                             requestHandled = USBFS_InitNoDataControlTransfer();
 1727              		.loc 1 364 0
 1728 02ea 154B     		ldr	r3, .L162
 1729 02ec 9878     		ldrb	r0, [r3, #2]	@ zero_extendqisi2
 1730 02ee 1B79     		ldrb	r3, [r3, #4]	@ zero_extendqisi2
 1731 02f0 DBB2     		uxtb	r3, r3
 1732 02f2 1549     		ldr	r1, .L162+8
 1733 02f4 CA5C     		ldrb	r2, [r1, r3]	@ zero_extendqisi2
 1734 02f6 22EA0002 		bic	r2, r2, r0
 1735 02fa CA54     		strb	r2, [r1, r3]
 365:Generated_Source\PSoC5/USBFS_std.c ****                         }
 1736              		.loc 1 365 0
 1737 02fc FFF7FEFF 		bl	USBFS_InitNoDataControlTransfer
 1738              	.LVL179:
 1739 0300 10BD     		pop	{r4, pc}
ARM GAS  C:\Users\Dan\AppData\Local\Temp\ccwiSTnc.s 			page 57


 1740              	.LVL180:
 1741              	.L138:
  86:Generated_Source\PSoC5/USBFS_std.c ****     uint8 interfaceNumber;
 1742              		.loc 1 86 0
 1743 0302 0020     		movs	r0, #0
 1744 0304 10BD     		pop	{r4, pc}
 1745              	.LVL181:
 1746              	.L139:
 1747 0306 0020     		movs	r0, #0
 1748              	.LVL182:
 1749 0308 10BD     		pop	{r4, pc}
 1750              	.LVL183:
 1751              	.L142:
 1752 030a 0020     		movs	r0, #0
 1753 030c 10BD     		pop	{r4, pc}
 1754              	.LVL184:
 1755              	.L156:
 1756 030e 0020     		movs	r0, #0
 1757 0310 10BD     		pop	{r4, pc}
 1758              	.LVL185:
 1759              	.L144:
 1760 0312 0020     		movs	r0, #0
 1761 0314 10BD     		pop	{r4, pc}
 1762              	.LVL186:
 1763              	.L145:
 1764 0316 0020     		movs	r0, #0
 1765              	.LVL187:
 1766 0318 10BD     		pop	{r4, pc}
 1767              	.L146:
 1768 031a 0020     		movs	r0, #0
 1769 031c 10BD     		pop	{r4, pc}
 1770              	.L157:
 1771 031e 0020     		movs	r0, #0
 1772 0320 10BD     		pop	{r4, pc}
 1773              	.L148:
 1774 0322 0020     		movs	r0, #0
 1775 0324 10BD     		pop	{r4, pc}
 1776              	.L149:
 1777 0326 0020     		movs	r0, #0
 1778 0328 10BD     		pop	{r4, pc}
 1779              	.L150:
 1780 032a 0020     		movs	r0, #0
 1781 032c 10BD     		pop	{r4, pc}
 1782              	.L158:
 1783 032e 0020     		movs	r0, #0
 1784 0330 10BD     		pop	{r4, pc}
 1785              	.L152:
 1786 0332 0020     		movs	r0, #0
 1787 0334 10BD     		pop	{r4, pc}
 1788              	.L153:
 1789 0336 0020     		movs	r0, #0
 1790 0338 10BD     		pop	{r4, pc}
 1791              	.L154:
 1792 033a 0020     		movs	r0, #0
 1793              	.LVL188:
 380:Generated_Source\PSoC5/USBFS_std.c **** 
 1794              		.loc 1 380 0
ARM GAS  C:\Users\Dan\AppData\Local\Temp\ccwiSTnc.s 			page 58


 1795 033c 10BD     		pop	{r4, pc}
 1796              	.L163:
 1797 033e 00BF     		.align	2
 1798              	.L162:
 1799 0340 00600040 		.word	1073766400
 1800 0344 00000000 		.word	USBFS_deviceStatus
 1801 0348 00000000 		.word	USBFS_interfaceStatus
 1802              		.cfi_endproc
 1803              	.LFE0:
 1804              		.size	USBFS_HandleStandardRqst, .-USBFS_HandleStandardRqst
 1805              		.bss
 1806              		.align	2
 1807              		.set	.LANCHOR0,. + 0
 1808              		.type	USBFS_tBuffer.5203, %object
 1809              		.size	USBFS_tBuffer.5203, 2
 1810              	USBFS_tBuffer.5203:
 1811 0000 0000     		.space	2
 1812              		.text
 1813              	.Letext0:
 1814              		.file 2 "Generated_Source\\PSoC5\\cytypes.h"
 1815              		.file 3 "Generated_Source\\PSoC5\\USBFS.h"
 1816              		.file 4 "Generated_Source\\PSoC5\\USBFS_pvt.h"
 1817              		.section	.debug_info,"",%progbits
 1818              	.Ldebug_info0:
 1819 0000 290A0000 		.4byte	0xa29
 1820 0004 0400     		.2byte	0x4
 1821 0006 00000000 		.4byte	.Ldebug_abbrev0
 1822 000a 04       		.byte	0x4
 1823 000b 01       		.uleb128 0x1
 1824 000c A7040000 		.4byte	.LASF110
 1825 0010 0C       		.byte	0xc
 1826 0011 3B020000 		.4byte	.LASF111
 1827 0015 77050000 		.4byte	.LASF112
 1828 0019 00000000 		.4byte	.Ldebug_ranges0+0
 1829 001d 00000000 		.4byte	0
 1830 0021 00000000 		.4byte	.Ldebug_line0
 1831 0025 02       		.uleb128 0x2
 1832 0026 01       		.byte	0x1
 1833 0027 06       		.byte	0x6
 1834 0028 D5000000 		.4byte	.LASF0
 1835 002c 02       		.uleb128 0x2
 1836 002d 01       		.byte	0x1
 1837 002e 08       		.byte	0x8
 1838 002f 3E040000 		.4byte	.LASF1
 1839 0033 02       		.uleb128 0x2
 1840 0034 02       		.byte	0x2
 1841 0035 05       		.byte	0x5
 1842 0036 75040000 		.4byte	.LASF2
 1843 003a 02       		.uleb128 0x2
 1844 003b 02       		.byte	0x2
 1845 003c 07       		.byte	0x7
 1846 003d 5E020000 		.4byte	.LASF3
 1847 0041 02       		.uleb128 0x2
 1848 0042 04       		.byte	0x4
 1849 0043 05       		.byte	0x5
 1850 0044 72010000 		.4byte	.LASF4
 1851 0048 02       		.uleb128 0x2
ARM GAS  C:\Users\Dan\AppData\Local\Temp\ccwiSTnc.s 			page 59


 1852 0049 04       		.byte	0x4
 1853 004a 07       		.byte	0x7
 1854 004b 09020000 		.4byte	.LASF5
 1855 004f 02       		.uleb128 0x2
 1856 0050 08       		.byte	0x8
 1857 0051 05       		.byte	0x5
 1858 0052 C7000000 		.4byte	.LASF6
 1859 0056 02       		.uleb128 0x2
 1860 0057 08       		.byte	0x8
 1861 0058 07       		.byte	0x7
 1862 0059 5C000000 		.4byte	.LASF7
 1863 005d 03       		.uleb128 0x3
 1864 005e 04       		.byte	0x4
 1865 005f 05       		.byte	0x5
 1866 0060 696E7400 		.ascii	"int\000"
 1867 0064 02       		.uleb128 0x2
 1868 0065 04       		.byte	0x4
 1869 0066 07       		.byte	0x7
 1870 0067 FC010000 		.4byte	.LASF8
 1871 006b 04       		.uleb128 0x4
 1872 006c 7B010000 		.4byte	.LASF9
 1873 0070 02       		.byte	0x2
 1874 0071 E401     		.2byte	0x1e4
 1875 0073 2C000000 		.4byte	0x2c
 1876 0077 04       		.uleb128 0x4
 1877 0078 13000000 		.4byte	.LASF10
 1878 007c 02       		.byte	0x2
 1879 007d E501     		.2byte	0x1e5
 1880 007f 3A000000 		.4byte	0x3a
 1881 0083 02       		.uleb128 0x2
 1882 0084 04       		.byte	0x4
 1883 0085 04       		.byte	0x4
 1884 0086 F2030000 		.4byte	.LASF11
 1885 008a 02       		.uleb128 0x2
 1886 008b 08       		.byte	0x8
 1887 008c 04       		.byte	0x4
 1888 008d 8F010000 		.4byte	.LASF12
 1889 0091 02       		.uleb128 0x2
 1890 0092 01       		.byte	0x1
 1891 0093 08       		.byte	0x8
 1892 0094 D3050000 		.4byte	.LASF13
 1893 0098 04       		.uleb128 0x4
 1894 0099 39040000 		.4byte	.LASF14
 1895 009d 02       		.byte	0x2
 1896 009e 8E02     		.2byte	0x28e
 1897 00a0 A4000000 		.4byte	0xa4
 1898 00a4 05       		.uleb128 0x5
 1899 00a5 6B000000 		.4byte	0x6b
 1900 00a9 02       		.uleb128 0x2
 1901 00aa 08       		.byte	0x8
 1902 00ab 04       		.byte	0x4
 1903 00ac 34030000 		.4byte	.LASF15
 1904 00b0 02       		.uleb128 0x2
 1905 00b1 04       		.byte	0x4
 1906 00b2 07       		.byte	0x7
 1907 00b3 2B030000 		.4byte	.LASF16
 1908 00b7 06       		.uleb128 0x6
ARM GAS  C:\Users\Dan\AppData\Local\Temp\ccwiSTnc.s 			page 60


 1909 00b8 0C       		.byte	0xc
 1910 00b9 03       		.byte	0x3
 1911 00ba 93       		.byte	0x93
 1912 00bb 2C010000 		.4byte	0x12c
 1913 00bf 07       		.uleb128 0x7
 1914 00c0 56030000 		.4byte	.LASF17
 1915 00c4 03       		.byte	0x3
 1916 00c5 95       		.byte	0x95
 1917 00c6 6B000000 		.4byte	0x6b
 1918 00ca 00       		.byte	0
 1919 00cb 07       		.uleb128 0x7
 1920 00cc 11040000 		.4byte	.LASF18
 1921 00d0 03       		.byte	0x3
 1922 00d1 96       		.byte	0x96
 1923 00d2 6B000000 		.4byte	0x6b
 1924 00d6 01       		.byte	0x1
 1925 00d7 07       		.uleb128 0x7
 1926 00d8 15030000 		.4byte	.LASF19
 1927 00dc 03       		.byte	0x3
 1928 00dd 97       		.byte	0x97
 1929 00de 6B000000 		.4byte	0x6b
 1930 00e2 02       		.byte	0x2
 1931 00e3 07       		.uleb128 0x7
 1932 00e4 81010000 		.4byte	.LASF20
 1933 00e8 03       		.byte	0x3
 1934 00e9 98       		.byte	0x98
 1935 00ea 6B000000 		.4byte	0x6b
 1936 00ee 03       		.byte	0x3
 1937 00ef 07       		.uleb128 0x7
 1938 00f0 73000000 		.4byte	.LASF21
 1939 00f4 03       		.byte	0x3
 1940 00f5 99       		.byte	0x99
 1941 00f6 6B000000 		.4byte	0x6b
 1942 00fa 04       		.byte	0x4
 1943 00fb 07       		.uleb128 0x7
 1944 00fc D7010000 		.4byte	.LASF22
 1945 0100 03       		.byte	0x3
 1946 0101 9A       		.byte	0x9a
 1947 0102 6B000000 		.4byte	0x6b
 1948 0106 05       		.byte	0x5
 1949 0107 07       		.uleb128 0x7
 1950 0108 07060000 		.4byte	.LASF23
 1951 010c 03       		.byte	0x3
 1952 010d 9B       		.byte	0x9b
 1953 010e 77000000 		.4byte	0x77
 1954 0112 06       		.byte	0x6
 1955 0113 07       		.uleb128 0x7
 1956 0114 D8050000 		.4byte	.LASF24
 1957 0118 03       		.byte	0x3
 1958 0119 9C       		.byte	0x9c
 1959 011a 77000000 		.4byte	0x77
 1960 011e 08       		.byte	0x8
 1961 011f 07       		.uleb128 0x7
 1962 0120 A2020000 		.4byte	.LASF25
 1963 0124 03       		.byte	0x3
 1964 0125 9D       		.byte	0x9d
 1965 0126 6B000000 		.4byte	0x6b
ARM GAS  C:\Users\Dan\AppData\Local\Temp\ccwiSTnc.s 			page 61


 1966 012a 0A       		.byte	0xa
 1967 012b 00       		.byte	0
 1968 012c 08       		.uleb128 0x8
 1969 012d 35050000 		.4byte	.LASF26
 1970 0131 03       		.byte	0x3
 1971 0132 9E       		.byte	0x9e
 1972 0133 B7000000 		.4byte	0xb7
 1973 0137 06       		.uleb128 0x6
 1974 0138 08       		.byte	0x8
 1975 0139 03       		.byte	0x3
 1976 013a A0       		.byte	0xa0
 1977 013b 88010000 		.4byte	0x188
 1978 013f 07       		.uleb128 0x7
 1979 0140 A2020000 		.4byte	.LASF25
 1980 0144 03       		.byte	0x3
 1981 0145 A2       		.byte	0xa2
 1982 0146 6B000000 		.4byte	0x6b
 1983 014a 00       		.byte	0
 1984 014b 07       		.uleb128 0x7
 1985 014c C8050000 		.4byte	.LASF27
 1986 0150 03       		.byte	0x3
 1987 0151 A3       		.byte	0xa3
 1988 0152 6B000000 		.4byte	0x6b
 1989 0156 01       		.byte	0x1
 1990 0157 07       		.uleb128 0x7
 1991 0158 73000000 		.4byte	.LASF21
 1992 015c 03       		.byte	0x3
 1993 015d A4       		.byte	0xa4
 1994 015e 6B000000 		.4byte	0x6b
 1995 0162 02       		.byte	0x2
 1996 0163 07       		.uleb128 0x7
 1997 0164 BD050000 		.4byte	.LASF28
 1998 0168 03       		.byte	0x3
 1999 0169 A5       		.byte	0xa5
 2000 016a 6B000000 		.4byte	0x6b
 2001 016e 03       		.byte	0x3
 2002 016f 07       		.uleb128 0x7
 2003 0170 D8050000 		.4byte	.LASF24
 2004 0174 03       		.byte	0x3
 2005 0175 A6       		.byte	0xa6
 2006 0176 77000000 		.4byte	0x77
 2007 017a 04       		.byte	0x4
 2008 017b 07       		.uleb128 0x7
 2009 017c 95060000 		.4byte	.LASF29
 2010 0180 03       		.byte	0x3
 2011 0181 A7       		.byte	0xa7
 2012 0182 6B000000 		.4byte	0x6b
 2013 0186 06       		.byte	0x6
 2014 0187 00       		.byte	0
 2015 0188 08       		.uleb128 0x8
 2016 0189 9B010000 		.4byte	.LASF30
 2017 018d 03       		.byte	0x3
 2018 018e A8       		.byte	0xa8
 2019 018f 37010000 		.4byte	0x137
 2020 0193 06       		.uleb128 0x6
 2021 0194 04       		.byte	0x4
 2022 0195 03       		.byte	0x3
ARM GAS  C:\Users\Dan\AppData\Local\Temp\ccwiSTnc.s 			page 62


 2023 0196 AA       		.byte	0xaa
 2024 0197 B4010000 		.4byte	0x1b4
 2025 019b 07       		.uleb128 0x7
 2026 019c 59060000 		.4byte	.LASF31
 2027 01a0 03       		.byte	0x3
 2028 01a1 AC       		.byte	0xac
 2029 01a2 6B000000 		.4byte	0x6b
 2030 01a6 00       		.byte	0
 2031 01a7 07       		.uleb128 0x7
 2032 01a8 4D060000 		.4byte	.LASF32
 2033 01ac 03       		.byte	0x3
 2034 01ad AD       		.byte	0xad
 2035 01ae 77000000 		.4byte	0x77
 2036 01b2 02       		.byte	0x2
 2037 01b3 00       		.byte	0
 2038 01b4 08       		.uleb128 0x8
 2039 01b5 B1030000 		.4byte	.LASF33
 2040 01b9 03       		.byte	0x3
 2041 01ba AE       		.byte	0xae
 2042 01bb 93010000 		.4byte	0x193
 2043 01bf 06       		.uleb128 0x6
 2044 01c0 0C       		.byte	0xc
 2045 01c1 03       		.byte	0x3
 2046 01c2 B0       		.byte	0xb0
 2047 01c3 EC010000 		.4byte	0x1ec
 2048 01c7 07       		.uleb128 0x7
 2049 01c8 0D000000 		.4byte	.LASF34
 2050 01cc 03       		.byte	0x3
 2051 01cd B2       		.byte	0xb2
 2052 01ce 77000000 		.4byte	0x77
 2053 01d2 00       		.byte	0
 2054 01d3 07       		.uleb128 0x7
 2055 01d4 CB010000 		.4byte	.LASF35
 2056 01d8 03       		.byte	0x3
 2057 01d9 B3       		.byte	0xb3
 2058 01da EC010000 		.4byte	0x1ec
 2059 01de 04       		.byte	0x4
 2060 01df 07       		.uleb128 0x7
 2061 01e0 00000000 		.4byte	.LASF36
 2062 01e4 03       		.byte	0x3
 2063 01e5 B4       		.byte	0xb4
 2064 01e6 F2010000 		.4byte	0x1f2
 2065 01ea 08       		.byte	0x8
 2066 01eb 00       		.byte	0
 2067 01ec 09       		.uleb128 0x9
 2068 01ed 04       		.byte	0x4
 2069 01ee A4000000 		.4byte	0xa4
 2070 01f2 09       		.uleb128 0x9
 2071 01f3 04       		.byte	0x4
 2072 01f4 B4010000 		.4byte	0x1b4
 2073 01f8 08       		.uleb128 0x8
 2074 01f9 7F040000 		.4byte	.LASF37
 2075 01fd 03       		.byte	0x3
 2076 01fe B5       		.byte	0xb5
 2077 01ff BF010000 		.4byte	0x1bf
 2078 0203 06       		.uleb128 0x6
 2079 0204 08       		.byte	0x8
ARM GAS  C:\Users\Dan\AppData\Local\Temp\ccwiSTnc.s 			page 63


 2080 0205 03       		.byte	0x3
 2081 0206 B7       		.byte	0xb7
 2082 0207 22020000 		.4byte	0x222
 2083 020b 0A       		.uleb128 0xa
 2084 020c 6300     		.ascii	"c\000"
 2085 020e 03       		.byte	0x3
 2086 020f B9       		.byte	0xb9
 2087 0210 6B000000 		.4byte	0x6b
 2088 0214 00       		.byte	0
 2089 0215 07       		.uleb128 0x7
 2090 0216 45030000 		.4byte	.LASF38
 2091 021a 03       		.byte	0x3
 2092 021b BA       		.byte	0xba
 2093 021c 22020000 		.4byte	0x222
 2094 0220 04       		.byte	0x4
 2095 0221 00       		.byte	0
 2096 0222 09       		.uleb128 0x9
 2097 0223 04       		.byte	0x4
 2098 0224 28020000 		.4byte	0x228
 2099 0228 0B       		.uleb128 0xb
 2100 0229 08       		.uleb128 0x8
 2101 022a F5060000 		.4byte	.LASF39
 2102 022e 03       		.byte	0x3
 2103 022f BB       		.byte	0xbb
 2104 0230 03020000 		.4byte	0x203
 2105 0234 06       		.uleb128 0x6
 2106 0235 08       		.byte	0x8
 2107 0236 03       		.byte	0x3
 2108 0237 CB       		.byte	0xcb
 2109 0238 49020000 		.4byte	0x249
 2110 023c 07       		.uleb128 0x7
 2111 023d 8E060000 		.4byte	.LASF40
 2112 0241 03       		.byte	0x3
 2113 0242 CD       		.byte	0xcd
 2114 0243 49020000 		.4byte	0x249
 2115 0247 00       		.byte	0
 2116 0248 00       		.byte	0
 2117 0249 0C       		.uleb128 0xc
 2118 024a 6B000000 		.4byte	0x6b
 2119 024e 59020000 		.4byte	0x259
 2120 0252 0D       		.uleb128 0xd
 2121 0253 B0000000 		.4byte	0xb0
 2122 0257 07       		.byte	0x7
 2123 0258 00       		.byte	0
 2124 0259 08       		.uleb128 0x8
 2125 025a 78000000 		.4byte	.LASF41
 2126 025e 03       		.byte	0x3
 2127 025f CE       		.byte	0xce
 2128 0260 34020000 		.4byte	0x234
 2129 0264 06       		.uleb128 0x6
 2130 0265 10       		.byte	0x10
 2131 0266 03       		.byte	0x3
 2132 0267 DA       		.byte	0xda
 2133 0268 9D020000 		.4byte	0x29d
 2134 026c 07       		.uleb128 0x7
 2135 026d 8C030000 		.4byte	.LASF42
 2136 0271 03       		.byte	0x3
ARM GAS  C:\Users\Dan\AppData\Local\Temp\ccwiSTnc.s 			page 64


 2137 0272 DC       		.byte	0xdc
 2138 0273 6B000000 		.4byte	0x6b
 2139 0277 00       		.byte	0
 2140 0278 07       		.uleb128 0x7
 2141 0279 93030000 		.4byte	.LASF43
 2142 027d 03       		.byte	0x3
 2143 027e DD       		.byte	0xdd
 2144 027f 6B000000 		.4byte	0x6b
 2145 0283 01       		.byte	0x1
 2146 0284 07       		.uleb128 0x7
 2147 0285 CB030000 		.4byte	.LASF44
 2148 0289 03       		.byte	0x3
 2149 028a DE       		.byte	0xde
 2150 028b 6B000000 		.4byte	0x6b
 2151 028f 02       		.byte	0x2
 2152 0290 0A       		.uleb128 0xa
 2153 0291 67617000 		.ascii	"gap\000"
 2154 0295 03       		.byte	0x3
 2155 0296 DF       		.byte	0xdf
 2156 0297 9D020000 		.4byte	0x29d
 2157 029b 03       		.byte	0x3
 2158 029c 00       		.byte	0
 2159 029d 0C       		.uleb128 0xc
 2160 029e 6B000000 		.4byte	0x6b
 2161 02a2 AD020000 		.4byte	0x2ad
 2162 02a6 0D       		.uleb128 0xd
 2163 02a7 B0000000 		.4byte	0xb0
 2164 02ab 0C       		.byte	0xc
 2165 02ac 00       		.byte	0
 2166 02ad 08       		.uleb128 0x8
 2167 02ae 78020000 		.4byte	.LASF45
 2168 02b2 03       		.byte	0x3
 2169 02b3 E0       		.byte	0xe0
 2170 02b4 64020000 		.4byte	0x264
 2171 02b8 06       		.uleb128 0x6
 2172 02b9 10       		.byte	0x10
 2173 02ba 03       		.byte	0x3
 2174 02bb EC       		.byte	0xec
 2175 02bc 39030000 		.4byte	0x339
 2176 02c0 07       		.uleb128 0x7
 2177 02c1 8E000000 		.4byte	.LASF46
 2178 02c5 03       		.byte	0x3
 2179 02c6 EE       		.byte	0xee
 2180 02c7 6B000000 		.4byte	0x6b
 2181 02cb 00       		.byte	0
 2182 02cc 07       		.uleb128 0x7
 2183 02cd B9060000 		.4byte	.LASF47
 2184 02d1 03       		.byte	0x3
 2185 02d2 EF       		.byte	0xef
 2186 02d3 6B000000 		.4byte	0x6b
 2187 02d7 01       		.byte	0x1
 2188 02d8 07       		.uleb128 0x7
 2189 02d9 96010000 		.4byte	.LASF48
 2190 02dd 03       		.byte	0x3
 2191 02de F0       		.byte	0xf0
 2192 02df 6B000000 		.4byte	0x6b
 2193 02e3 02       		.byte	0x2
ARM GAS  C:\Users\Dan\AppData\Local\Temp\ccwiSTnc.s 			page 65


 2194 02e4 07       		.uleb128 0x7
 2195 02e5 F3010000 		.4byte	.LASF49
 2196 02e9 03       		.byte	0x3
 2197 02ea F1       		.byte	0xf1
 2198 02eb 6B000000 		.4byte	0x6b
 2199 02ef 03       		.byte	0x3
 2200 02f0 07       		.uleb128 0x7
 2201 02f1 8A010000 		.4byte	.LASF50
 2202 02f5 03       		.byte	0x3
 2203 02f6 F2       		.byte	0xf2
 2204 02f7 6B000000 		.4byte	0x6b
 2205 02fb 04       		.byte	0x4
 2206 02fc 07       		.uleb128 0x7
 2207 02fd 9B060000 		.4byte	.LASF51
 2208 0301 03       		.byte	0x3
 2209 0302 F3       		.byte	0xf3
 2210 0303 6B000000 		.4byte	0x6b
 2211 0307 05       		.byte	0x5
 2212 0308 07       		.uleb128 0x7
 2213 0309 A2040000 		.4byte	.LASF52
 2214 030d 03       		.byte	0x3
 2215 030e F4       		.byte	0xf4
 2216 030f 6B000000 		.4byte	0x6b
 2217 0313 06       		.byte	0x6
 2218 0314 07       		.uleb128 0x7
 2219 0315 84030000 		.4byte	.LASF53
 2220 0319 03       		.byte	0x3
 2221 031a F5       		.byte	0xf5
 2222 031b 6B000000 		.4byte	0x6b
 2223 031f 07       		.byte	0x7
 2224 0320 07       		.uleb128 0x7
 2225 0321 78060000 		.4byte	.LASF54
 2226 0325 03       		.byte	0x3
 2227 0326 F6       		.byte	0xf6
 2228 0327 6B000000 		.4byte	0x6b
 2229 032b 08       		.byte	0x8
 2230 032c 0A       		.uleb128 0xa
 2231 032d 67617000 		.ascii	"gap\000"
 2232 0331 03       		.byte	0x3
 2233 0332 F7       		.byte	0xf7
 2234 0333 39030000 		.4byte	0x339
 2235 0337 09       		.byte	0x9
 2236 0338 00       		.byte	0
 2237 0339 0C       		.uleb128 0xc
 2238 033a 6B000000 		.4byte	0x6b
 2239 033e 49030000 		.4byte	0x349
 2240 0342 0D       		.uleb128 0xd
 2241 0343 B0000000 		.4byte	0xb0
 2242 0347 06       		.byte	0x6
 2243 0348 00       		.byte	0
 2244 0349 08       		.uleb128 0x8
 2245 034a 4E010000 		.4byte	.LASF55
 2246 034e 03       		.byte	0x3
 2247 034f F8       		.byte	0xf8
 2248 0350 B8020000 		.4byte	0x2b8
 2249 0354 0E       		.uleb128 0xe
 2250 0355 90       		.byte	0x90
ARM GAS  C:\Users\Dan\AppData\Local\Temp\ccwiSTnc.s 			page 66


 2251 0356 03       		.byte	0x3
 2252 0357 1401     		.2byte	0x114
 2253 0359 6B030000 		.4byte	0x36b
 2254 035d 0F       		.uleb128 0xf
 2255 035e D1010000 		.4byte	.LASF56
 2256 0362 03       		.byte	0x3
 2257 0363 1601     		.2byte	0x116
 2258 0365 6B030000 		.4byte	0x36b
 2259 0369 00       		.byte	0
 2260 036a 00       		.byte	0
 2261 036b 0C       		.uleb128 0xc
 2262 036c AD020000 		.4byte	0x2ad
 2263 0370 7B030000 		.4byte	0x37b
 2264 0374 0D       		.uleb128 0xd
 2265 0375 B0000000 		.4byte	0xb0
 2266 0379 08       		.byte	0x8
 2267 037a 00       		.byte	0
 2268 037b 04       		.uleb128 0x4
 2269 037c 94000000 		.4byte	.LASF57
 2270 0380 03       		.byte	0x3
 2271 0381 1701     		.2byte	0x117
 2272 0383 54030000 		.4byte	0x354
 2273 0387 0E       		.uleb128 0xe
 2274 0388 90       		.byte	0x90
 2275 0389 03       		.byte	0x3
 2276 038a 1A01     		.2byte	0x11a
 2277 038c 9E030000 		.4byte	0x39e
 2278 0390 0F       		.uleb128 0xf
 2279 0391 9C020000 		.4byte	.LASF58
 2280 0395 03       		.byte	0x3
 2281 0396 1C01     		.2byte	0x11c
 2282 0398 9E030000 		.4byte	0x39e
 2283 039c 00       		.byte	0
 2284 039d 00       		.byte	0
 2285 039e 0C       		.uleb128 0xc
 2286 039f 49030000 		.4byte	0x349
 2287 03a3 AE030000 		.4byte	0x3ae
 2288 03a7 0D       		.uleb128 0xd
 2289 03a8 B0000000 		.4byte	0xb0
 2290 03ac 08       		.byte	0x8
 2291 03ad 00       		.byte	0
 2292 03ae 04       		.uleb128 0x4
 2293 03af A9000000 		.4byte	.LASF59
 2294 03b3 03       		.byte	0x3
 2295 03b4 1D01     		.2byte	0x11d
 2296 03b6 87030000 		.4byte	0x387
 2297 03ba 10       		.uleb128 0x10
 2298 03bb 62010000 		.4byte	.LASF60
 2299 03bf 01       		.byte	0x1
 2300 03c0 B501     		.2byte	0x1b5
 2301 03c2 00000000 		.4byte	.LFB1
 2302 03c6 A4000000 		.4byte	.LFE1-.LFB1
 2303 03ca 01       		.uleb128 0x1
 2304 03cb 9C       		.byte	0x9c
 2305 03cc E0030000 		.4byte	0x3e0
 2306 03d0 11       		.uleb128 0x11
 2307 03d1 657000   		.ascii	"ep\000"
ARM GAS  C:\Users\Dan\AppData\Local\Temp\ccwiSTnc.s 			page 67


 2308 03d4 01       		.byte	0x1
 2309 03d5 B701     		.2byte	0x1b7
 2310 03d7 6B000000 		.4byte	0x6b
 2311 03db 00000000 		.4byte	.LLST0
 2312 03df 00       		.byte	0
 2313 03e0 10       		.uleb128 0x10
 2314 03e1 4C040000 		.4byte	.LASF61
 2315 03e5 01       		.byte	0x1
 2316 03e6 1402     		.2byte	0x214
 2317 03e8 00000000 		.4byte	.LFB2
 2318 03ec 44000000 		.4byte	.LFE2-.LFB2
 2319 03f0 01       		.uleb128 0x1
 2320 03f1 9C       		.byte	0x9c
 2321 03f2 05040000 		.4byte	0x405
 2322 03f6 11       		.uleb128 0x11
 2323 03f7 6900     		.ascii	"i\000"
 2324 03f9 01       		.byte	0x1
 2325 03fa 1602     		.2byte	0x216
 2326 03fc 6B000000 		.4byte	0x6b
 2327 0400 2A000000 		.4byte	.LLST1
 2328 0404 00       		.byte	0
 2329 0405 12       		.uleb128 0x12
 2330 0406 8A040000 		.4byte	.LASF67
 2331 040a 01       		.byte	0x1
 2332 040b AE03     		.2byte	0x3ae
 2333 040d 40040000 		.4byte	0x440
 2334 0411 00000000 		.4byte	.LFB5
 2335 0415 28000000 		.4byte	.LFE5-.LFB5
 2336 0419 01       		.uleb128 0x1
 2337 041a 9C       		.byte	0x9c
 2338 041b 40040000 		.4byte	0x440
 2339 041f 13       		.uleb128 0x13
 2340 0420 52000000 		.4byte	.LASF72
 2341 0424 01       		.byte	0x1
 2342 0425 AE03     		.2byte	0x3ae
 2343 0427 6B000000 		.4byte	0x6b
 2344 042b 54000000 		.4byte	.LLST2
 2345 042f 14       		.uleb128 0x14
 2346 0430 40030000 		.4byte	.LASF62
 2347 0434 01       		.byte	0x1
 2348 0435 B203     		.2byte	0x3b2
 2349 0437 40040000 		.4byte	0x440
 2350 043b 8E000000 		.4byte	.LLST3
 2351 043f 00       		.byte	0
 2352 0440 09       		.uleb128 0x9
 2353 0441 04       		.byte	0x4
 2354 0442 46040000 		.4byte	0x446
 2355 0446 15       		.uleb128 0x15
 2356 0447 29020000 		.4byte	0x229
 2357 044b 10       		.uleb128 0x10
 2358 044c 9A030000 		.4byte	.LASF63
 2359 0450 01       		.byte	0x1
 2360 0451 2503     		.2byte	0x325
 2361 0453 00000000 		.4byte	.LFB4
 2362 0457 1C010000 		.4byte	.LFE4-.LFB4
 2363 045b 01       		.uleb128 0x1
 2364 045c 9C       		.byte	0x9c
ARM GAS  C:\Users\Dan\AppData\Local\Temp\ccwiSTnc.s 			page 68


 2365 045d D8040000 		.4byte	0x4d8
 2366 0461 11       		.uleb128 0x11
 2367 0462 657000   		.ascii	"ep\000"
 2368 0465 01       		.byte	0x1
 2369 0466 2703     		.2byte	0x327
 2370 0468 6B000000 		.4byte	0x6b
 2371 046c C6000000 		.4byte	.LLST4
 2372 0470 14       		.uleb128 0x14
 2373 0471 0F030000 		.4byte	.LASF64
 2374 0475 01       		.byte	0x1
 2375 0476 2803     		.2byte	0x328
 2376 0478 6B000000 		.4byte	0x6b
 2377 047c D9000000 		.4byte	.LLST5
 2378 0480 14       		.uleb128 0x14
 2379 0481 DE010000 		.4byte	.LASF65
 2380 0485 01       		.byte	0x1
 2381 0486 2903     		.2byte	0x329
 2382 0488 6B000000 		.4byte	0x6b
 2383 048c EC000000 		.4byte	.LLST6
 2384 0490 11       		.uleb128 0x11
 2385 0491 6900     		.ascii	"i\000"
 2386 0493 01       		.byte	0x1
 2387 0494 2A03     		.2byte	0x32a
 2388 0496 6B000000 		.4byte	0x6b
 2389 049a 0A010000 		.4byte	.LLST7
 2390 049e 14       		.uleb128 0x14
 2391 049f D1030000 		.4byte	.LASF66
 2392 04a3 01       		.byte	0x1
 2393 04a4 2B03     		.2byte	0x32b
 2394 04a6 6B000000 		.4byte	0x6b
 2395 04aa 34010000 		.4byte	.LLST8
 2396 04ae 14       		.uleb128 0x14
 2397 04af 40030000 		.4byte	.LASF62
 2398 04b3 01       		.byte	0x1
 2399 04b4 2D03     		.2byte	0x32d
 2400 04b6 40040000 		.4byte	0x440
 2401 04ba 47010000 		.4byte	.LLST9
 2402 04be 11       		.uleb128 0x11
 2403 04bf 70455000 		.ascii	"pEP\000"
 2404 04c3 01       		.byte	0x1
 2405 04c4 2E03     		.2byte	0x32e
 2406 04c6 D8040000 		.4byte	0x4d8
 2407 04ca 5C010000 		.4byte	.LLST10
 2408 04ce 16       		.uleb128 0x16
 2409 04cf 18000000 		.4byte	.LVL15
 2410 04d3 05040000 		.4byte	0x405
 2411 04d7 00       		.byte	0
 2412 04d8 09       		.uleb128 0x9
 2413 04d9 04       		.byte	0x4
 2414 04da DE040000 		.4byte	0x4de
 2415 04de 15       		.uleb128 0x15
 2416 04df 88010000 		.4byte	0x188
 2417 04e3 17       		.uleb128 0x17
 2418 04e4 12060000 		.4byte	.LASF113
 2419 04e8 01       		.byte	0x1
 2420 04e9 F303     		.2byte	0x3f3
 2421 04eb 40040000 		.4byte	0x440
ARM GAS  C:\Users\Dan\AppData\Local\Temp\ccwiSTnc.s 			page 69


 2422 04ef 00000000 		.4byte	.LFB6
 2423 04f3 18000000 		.4byte	.LFE6-.LFB6
 2424 04f7 01       		.uleb128 0x1
 2425 04f8 9C       		.byte	0x9c
 2426 04f9 12       		.uleb128 0x12
 2427 04fa 1B020000 		.4byte	.LASF68
 2428 04fe 01       		.byte	0x1
 2429 04ff 0604     		.2byte	0x406
 2430 0501 4D050000 		.4byte	0x54d
 2431 0505 00000000 		.4byte	.LFB7
 2432 0509 28000000 		.4byte	.LFE7-.LFB7
 2433 050d 01       		.uleb128 0x1
 2434 050e 9C       		.byte	0x9c
 2435 050f 4D050000 		.4byte	0x54d
 2436 0513 14       		.uleb128 0x14
 2437 0514 40030000 		.4byte	.LASF62
 2438 0518 01       		.byte	0x1
 2439 0519 0904     		.2byte	0x409
 2440 051b 40040000 		.4byte	0x440
 2441 051f 6F010000 		.4byte	.LLST11
 2442 0523 14       		.uleb128 0x14
 2443 0524 8C020000 		.4byte	.LASF69
 2444 0528 01       		.byte	0x1
 2445 0529 0A04     		.2byte	0x40a
 2446 052b 4D050000 		.4byte	0x54d
 2447 052f 98010000 		.4byte	.LLST12
 2448 0533 14       		.uleb128 0x14
 2449 0534 F2050000 		.4byte	.LASF70
 2450 0538 01       		.byte	0x1
 2451 0539 0B04     		.2byte	0x40b
 2452 053b 6B000000 		.4byte	0x6b
 2453 053f B6010000 		.4byte	.LLST13
 2454 0543 16       		.uleb128 0x16
 2455 0544 0E000000 		.4byte	.LVL31
 2456 0548 05040000 		.4byte	0x405
 2457 054c 00       		.byte	0
 2458 054d 09       		.uleb128 0x9
 2459 054e 04       		.byte	0x4
 2460 054f 53050000 		.4byte	0x553
 2461 0553 15       		.uleb128 0x15
 2462 0554 6B000000 		.4byte	0x6b
 2463 0558 10       		.uleb128 0x10
 2464 0559 41010000 		.4byte	.LASF71
 2465 055d 01       		.byte	0x1
 2466 055e 3A02     		.2byte	0x23a
 2467 0560 00000000 		.4byte	.LFB3
 2468 0564 C4010000 		.4byte	.LFE3-.LFB3
 2469 0568 01       		.uleb128 0x1
 2470 0569 9C       		.byte	0x9c
 2471 056a 17060000 		.4byte	0x617
 2472 056e 13       		.uleb128 0x13
 2473 056f EF000000 		.4byte	.LASF73
 2474 0573 01       		.byte	0x1
 2475 0574 3A02     		.2byte	0x23a
 2476 0576 6B000000 		.4byte	0x6b
 2477 057a D6010000 		.4byte	.LLST14
 2478 057e 11       		.uleb128 0x11
ARM GAS  C:\Users\Dan\AppData\Local\Temp\ccwiSTnc.s 			page 70


 2479 057f 657000   		.ascii	"ep\000"
 2480 0582 01       		.byte	0x1
 2481 0583 3C02     		.2byte	0x23c
 2482 0585 6B000000 		.4byte	0x6b
 2483 0589 F7010000 		.4byte	.LLST15
 2484 058d 14       		.uleb128 0x14
 2485 058e 0F030000 		.4byte	.LASF64
 2486 0592 01       		.byte	0x1
 2487 0593 3D02     		.2byte	0x23d
 2488 0595 6B000000 		.4byte	0x6b
 2489 0599 59020000 		.4byte	.LLST16
 2490 059d 11       		.uleb128 0x11
 2491 059e 6900     		.ascii	"i\000"
 2492 05a0 01       		.byte	0x1
 2493 05a1 3E02     		.2byte	0x23e
 2494 05a3 6B000000 		.4byte	0x6b
 2495 05a7 83020000 		.4byte	.LLST17
 2496 05ab 14       		.uleb128 0x14
 2497 05ac DE010000 		.4byte	.LASF65
 2498 05b0 01       		.byte	0x1
 2499 05b1 3F02     		.2byte	0x23f
 2500 05b3 6B000000 		.4byte	0x6b
 2501 05b7 F0020000 		.4byte	.LLST18
 2502 05bb 14       		.uleb128 0x14
 2503 05bc 71020000 		.4byte	.LASF74
 2504 05c0 01       		.byte	0x1
 2505 05c1 4002     		.2byte	0x240
 2506 05c3 4D050000 		.4byte	0x54d
 2507 05c7 30030000 		.4byte	.LLST19
 2508 05cb 14       		.uleb128 0x14
 2509 05cc 4C030000 		.4byte	.LASF75
 2510 05d0 01       		.byte	0x1
 2511 05d1 4302     		.2byte	0x243
 2512 05d3 77000000 		.4byte	0x77
 2513 05d7 4F030000 		.4byte	.LLST20
 2514 05db 14       		.uleb128 0x14
 2515 05dc 40030000 		.4byte	.LASF62
 2516 05e0 01       		.byte	0x1
 2517 05e1 4602     		.2byte	0x246
 2518 05e3 40040000 		.4byte	0x440
 2519 05e7 85030000 		.4byte	.LLST21
 2520 05eb 11       		.uleb128 0x11
 2521 05ec 70455000 		.ascii	"pEP\000"
 2522 05f0 01       		.byte	0x1
 2523 05f1 4702     		.2byte	0x247
 2524 05f3 D8040000 		.4byte	0x4d8
 2525 05f7 A5030000 		.4byte	.LLST22
 2526 05fb 16       		.uleb128 0x16
 2527 05fc 60000000 		.4byte	.LVL50
 2528 0600 05040000 		.4byte	0x405
 2529 0604 16       		.uleb128 0x16
 2530 0605 7C010000 		.4byte	.LVL75
 2531 0609 F9040000 		.4byte	0x4f9
 2532 060d 16       		.uleb128 0x16
 2533 060e A6010000 		.4byte	.LVL82
 2534 0612 BA030000 		.4byte	0x3ba
 2535 0616 00       		.byte	0
ARM GAS  C:\Users\Dan\AppData\Local\Temp\ccwiSTnc.s 			page 71


 2536 0617 10       		.uleb128 0x10
 2537 0618 1A000000 		.4byte	.LASF76
 2538 061c 01       		.byte	0x1
 2539 061d 3004     		.2byte	0x430
 2540 061f 00000000 		.4byte	.LFB8
 2541 0623 4C000000 		.4byte	.LFE8-.LFB8
 2542 0627 01       		.uleb128 0x1
 2543 0628 9C       		.byte	0x9c
 2544 0629 3E060000 		.4byte	0x63e
 2545 062d 13       		.uleb128 0x13
 2546 062e BE000000 		.4byte	.LASF77
 2547 0632 01       		.byte	0x1
 2548 0633 3004     		.2byte	0x430
 2549 0635 6B000000 		.4byte	0x6b
 2550 0639 DB030000 		.4byte	.LLST23
 2551 063d 00       		.byte	0
 2552 063e 12       		.uleb128 0x12
 2553 063f B5010000 		.4byte	.LASF78
 2554 0643 01       		.byte	0x1
 2555 0644 5904     		.2byte	0x459
 2556 0646 6B000000 		.4byte	0x6b
 2557 064a 00000000 		.4byte	.LFB9
 2558 064e 64000000 		.4byte	.LFE9-.LFB9
 2559 0652 01       		.uleb128 0x1
 2560 0653 9C       		.byte	0x9c
 2561 0654 81060000 		.4byte	0x681
 2562 0658 14       		.uleb128 0x14
 2563 0659 E3050000 		.4byte	.LASF79
 2564 065d 01       		.byte	0x1
 2565 065e 5B04     		.2byte	0x45b
 2566 0660 6B000000 		.4byte	0x6b
 2567 0664 04040000 		.4byte	.LLST24
 2568 0668 11       		.uleb128 0x11
 2569 0669 657000   		.ascii	"ep\000"
 2570 066c 01       		.byte	0x1
 2571 066d 5C04     		.2byte	0x45c
 2572 066f 6B000000 		.4byte	0x6b
 2573 0673 3A040000 		.4byte	.LLST25
 2574 0677 16       		.uleb128 0x16
 2575 0678 52000000 		.4byte	.LVL93
 2576 067c 0A0A0000 		.4byte	0xa0a
 2577 0680 00       		.byte	0
 2578 0681 12       		.uleb128 0x12
 2579 0682 13010000 		.4byte	.LASF80
 2580 0686 01       		.byte	0x1
 2581 0687 8A04     		.2byte	0x48a
 2582 0689 6B000000 		.4byte	0x6b
 2583 068d 00000000 		.4byte	.LFB10
 2584 0691 AC000000 		.4byte	.LFE10-.LFB10
 2585 0695 01       		.uleb128 0x1
 2586 0696 9C       		.byte	0x9c
 2587 0697 C4060000 		.4byte	0x6c4
 2588 069b 14       		.uleb128 0x14
 2589 069c E3050000 		.4byte	.LASF79
 2590 06a0 01       		.byte	0x1
 2591 06a1 8C04     		.2byte	0x48c
 2592 06a3 6B000000 		.4byte	0x6b
ARM GAS  C:\Users\Dan\AppData\Local\Temp\ccwiSTnc.s 			page 72


 2593 06a7 63040000 		.4byte	.LLST26
 2594 06ab 11       		.uleb128 0x11
 2595 06ac 657000   		.ascii	"ep\000"
 2596 06af 01       		.byte	0x1
 2597 06b0 8D04     		.2byte	0x48d
 2598 06b2 6B000000 		.4byte	0x6b
 2599 06b6 8E040000 		.4byte	.LLST27
 2600 06ba 16       		.uleb128 0x16
 2601 06bb 98000000 		.4byte	.LVL106
 2602 06bf 0A0A0000 		.4byte	0xa0a
 2603 06c3 00       		.byte	0
 2604 06c4 12       		.uleb128 0x12
 2605 06c5 C0020000 		.4byte	.LASF81
 2606 06c9 01       		.byte	0x1
 2607 06ca CF04     		.2byte	0x4cf
 2608 06cc 6B000000 		.4byte	0x6b
 2609 06d0 00000000 		.4byte	.LFB11
 2610 06d4 4C000000 		.4byte	.LFE11-.LFB11
 2611 06d8 01       		.uleb128 0x1
 2612 06d9 9C       		.byte	0x9c
 2613 06da 28070000 		.4byte	0x728
 2614 06de 14       		.uleb128 0x14
 2615 06df E3050000 		.4byte	.LASF79
 2616 06e3 01       		.byte	0x1
 2617 06e4 D104     		.2byte	0x4d1
 2618 06e6 6B000000 		.4byte	0x6b
 2619 06ea CD040000 		.4byte	.LLST28
 2620 06ee 14       		.uleb128 0x14
 2621 06ef D1030000 		.4byte	.LASF66
 2622 06f3 01       		.byte	0x1
 2623 06f4 D304     		.2byte	0x4d3
 2624 06f6 6B000000 		.4byte	0x6b
 2625 06fa 04050000 		.4byte	.LLST29
 2626 06fe 14       		.uleb128 0x14
 2627 06ff 7D060000 		.4byte	.LASF82
 2628 0703 01       		.byte	0x1
 2629 0704 D404     		.2byte	0x4d4
 2630 0706 6B000000 		.4byte	0x6b
 2631 070a 17050000 		.4byte	.LLST30
 2632 070e 14       		.uleb128 0x14
 2633 070f 40030000 		.4byte	.LASF62
 2634 0713 01       		.byte	0x1
 2635 0714 D504     		.2byte	0x4d5
 2636 0716 40040000 		.4byte	0x440
 2637 071a 44050000 		.4byte	.LLST31
 2638 071e 16       		.uleb128 0x16
 2639 071f 14000000 		.4byte	.LVL110
 2640 0723 05040000 		.4byte	0x405
 2641 0727 00       		.byte	0
 2642 0728 18       		.uleb128 0x18
 2643 0729 DC060000 		.4byte	.LASF83
 2644 072d 01       		.byte	0x1
 2645 072e 54       		.byte	0x54
 2646 072f 6B000000 		.4byte	0x6b
 2647 0733 00000000 		.4byte	.LFB0
 2648 0737 4C030000 		.4byte	.LFE0-.LFB0
 2649 073b 01       		.uleb128 0x1
ARM GAS  C:\Users\Dan\AppData\Local\Temp\ccwiSTnc.s 			page 73


 2650 073c 9C       		.byte	0x9c
 2651 073d AF080000 		.4byte	0x8af
 2652 0741 19       		.uleb128 0x19
 2653 0742 E3050000 		.4byte	.LASF79
 2654 0746 01       		.byte	0x1
 2655 0747 56       		.byte	0x56
 2656 0748 6B000000 		.4byte	0x6b
 2657 074c 62050000 		.4byte	.LLST32
 2658 0750 19       		.uleb128 0x19
 2659 0751 2A060000 		.4byte	.LASF84
 2660 0755 01       		.byte	0x1
 2661 0756 57       		.byte	0x57
 2662 0757 6B000000 		.4byte	0x6b
 2663 075b 08070000 		.4byte	.LLST33
 2664 075f 19       		.uleb128 0x19
 2665 0760 1C040000 		.4byte	.LASF85
 2666 0764 01       		.byte	0x1
 2667 0765 58       		.byte	0x58
 2668 0766 6B000000 		.4byte	0x6b
 2669 076a 1B070000 		.4byte	.LLST34
 2670 076e 19       		.uleb128 0x19
 2671 076f E5010000 		.4byte	.LASF86
 2672 0773 01       		.byte	0x1
 2673 0774 59       		.byte	0x59
 2674 0775 6B000000 		.4byte	0x6b
 2675 0779 2E070000 		.4byte	.LLST35
 2676 077d 19       		.uleb128 0x19
 2677 077e 34040000 		.4byte	.LASF87
 2678 0782 01       		.byte	0x1
 2679 0783 5C       		.byte	0x5c
 2680 0784 EC010000 		.4byte	0x1ec
 2681 0788 AF070000 		.4byte	.LLST36
 2682 078c 19       		.uleb128 0x19
 2683 078d 54060000 		.4byte	.LASF88
 2684 0791 01       		.byte	0x1
 2685 0792 5E       		.byte	0x5e
 2686 0793 6B000000 		.4byte	0x6b
 2687 0797 08080000 		.4byte	.LLST37
 2688 079b 19       		.uleb128 0x19
 2689 079c 1F030000 		.4byte	.LASF89
 2690 07a0 01       		.byte	0x1
 2691 07a1 5F       		.byte	0x5f
 2692 07a2 6B000000 		.4byte	0x6b
 2693 07a6 31080000 		.4byte	.LLST38
 2694 07aa 1A       		.uleb128 0x1a
 2695 07ab E1000000 		.4byte	.LASF90
 2696 07af 01       		.byte	0x1
 2697 07b0 63       		.byte	0x63
 2698 07b1 BF080000 		.4byte	0x8bf
 2699 07b5 05       		.uleb128 0x5
 2700 07b6 03       		.byte	0x3
 2701 07b7 00000000 		.4byte	USBFS_tBuffer.5203
 2702 07bb 19       		.uleb128 0x19
 2703 07bc 40030000 		.4byte	.LASF62
 2704 07c0 01       		.byte	0x1
 2705 07c1 64       		.byte	0x64
 2706 07c2 40040000 		.4byte	0x440
ARM GAS  C:\Users\Dan\AppData\Local\Temp\ccwiSTnc.s 			page 74


 2707 07c6 44080000 		.4byte	.LLST39
 2708 07ca 16       		.uleb128 0x16
 2709 07cb 4A000000 		.4byte	.LVL121
 2710 07cf E3040000 		.4byte	0x4e3
 2711 07d3 16       		.uleb128 0x16
 2712 07d4 58000000 		.4byte	.LVL122
 2713 07d8 150A0000 		.4byte	0xa15
 2714 07dc 16       		.uleb128 0x16
 2715 07dd 6C000000 		.4byte	.LVL124
 2716 07e1 05040000 		.4byte	0x405
 2717 07e5 16       		.uleb128 0x16
 2718 07e6 8A000000 		.4byte	.LVL125
 2719 07ea 150A0000 		.4byte	0xa15
 2720 07ee 16       		.uleb128 0x16
 2721 07ef E8000000 		.4byte	.LVL136
 2722 07f3 150A0000 		.4byte	0xa15
 2723 07f7 16       		.uleb128 0x16
 2724 07f8 EE000000 		.4byte	.LVL138
 2725 07fc 200A0000 		.4byte	0xa20
 2726 0800 16       		.uleb128 0x16
 2727 0801 24010000 		.4byte	.LVL141
 2728 0805 150A0000 		.4byte	0xa15
 2729 0809 16       		.uleb128 0x16
 2730 080a 40010000 		.4byte	.LVL143
 2731 080e 150A0000 		.4byte	0xa15
 2732 0812 16       		.uleb128 0x16
 2733 0813 50010000 		.4byte	.LVL146
 2734 0817 150A0000 		.4byte	0xa15
 2735 081b 16       		.uleb128 0x16
 2736 081c 66010000 		.4byte	.LVL149
 2737 0820 150A0000 		.4byte	0xa15
 2738 0824 16       		.uleb128 0x16
 2739 0825 9C010000 		.4byte	.LVL152
 2740 0829 0A0A0000 		.4byte	0xa0a
 2741 082d 1B       		.uleb128 0x1b
 2742 082e B0010000 		.4byte	.LVL156
 2743 0832 05040000 		.4byte	0x405
 2744 0836 41080000 		.4byte	0x841
 2745 083a 1C       		.uleb128 0x1c
 2746 083b 01       		.uleb128 0x1
 2747 083c 50       		.byte	0x50
 2748 083d 02       		.uleb128 0x2
 2749 083e 74       		.byte	0x74
 2750 083f 7F       		.sleb128 -1
 2751 0840 00       		.byte	0
 2752 0841 1B       		.uleb128 0x1b
 2753 0842 D2010000 		.4byte	.LVL158
 2754 0846 58050000 		.4byte	0x558
 2755 084a 54080000 		.4byte	0x854
 2756 084e 1C       		.uleb128 0x1c
 2757 084f 01       		.uleb128 0x1
 2758 0850 50       		.byte	0x50
 2759 0851 01       		.uleb128 0x1
 2760 0852 31       		.byte	0x31
 2761 0853 00       		.byte	0
 2762 0854 16       		.uleb128 0x16
 2763 0855 D6010000 		.4byte	.LVL159
ARM GAS  C:\Users\Dan\AppData\Local\Temp\ccwiSTnc.s 			page 75


 2764 0859 0A0A0000 		.4byte	0xa0a
 2765 085d 16       		.uleb128 0x16
 2766 085e DC010000 		.4byte	.LVL161
 2767 0862 C4060000 		.4byte	0x6c4
 2768 0866 16       		.uleb128 0x16
 2769 0867 0A020000 		.4byte	.LVL164
 2770 086b 4B040000 		.4byte	0x44b
 2771 086f 16       		.uleb128 0x16
 2772 0870 0E020000 		.4byte	.LVL165
 2773 0874 0A0A0000 		.4byte	0xa0a
 2774 0878 16       		.uleb128 0x16
 2775 0879 2C020000 		.4byte	.LVL168
 2776 087d 81060000 		.4byte	0x681
 2777 0881 16       		.uleb128 0x16
 2778 0882 46020000 		.4byte	.LVL170
 2779 0886 0A0A0000 		.4byte	0xa0a
 2780 088a 16       		.uleb128 0x16
 2781 088b 68020000 		.4byte	.LVL172
 2782 088f 0A0A0000 		.4byte	0xa0a
 2783 0893 16       		.uleb128 0x16
 2784 0894 C4020000 		.4byte	.LVL175
 2785 0898 3E060000 		.4byte	0x63e
 2786 089c 16       		.uleb128 0x16
 2787 089d DE020000 		.4byte	.LVL177
 2788 08a1 0A0A0000 		.4byte	0xa0a
 2789 08a5 16       		.uleb128 0x16
 2790 08a6 00030000 		.4byte	.LVL179
 2791 08aa 0A0A0000 		.4byte	0xa0a
 2792 08ae 00       		.byte	0
 2793 08af 0C       		.uleb128 0xc
 2794 08b0 A4000000 		.4byte	0xa4
 2795 08b4 BF080000 		.4byte	0x8bf
 2796 08b8 0D       		.uleb128 0xd
 2797 08b9 B0000000 		.4byte	0xb0
 2798 08bd 01       		.byte	0x1
 2799 08be 00       		.byte	0
 2800 08bf 05       		.uleb128 0x5
 2801 08c0 AF080000 		.4byte	0x8af
 2802 08c4 1D       		.uleb128 0x1d
 2803 08c5 6A050000 		.4byte	.LASF91
 2804 08c9 03       		.byte	0x3
 2805 08ca D802     		.2byte	0x2d8
 2806 08cc A4000000 		.4byte	0xa4
 2807 08d0 1D       		.uleb128 0x1d
 2808 08d1 AC020000 		.4byte	.LASF92
 2809 08d5 03       		.byte	0x3
 2810 08d6 DA02     		.2byte	0x2da
 2811 08d8 A4000000 		.4byte	0xa4
 2812 08dc 1D       		.uleb128 0x1d
 2813 08dd DF020000 		.4byte	.LASF93
 2814 08e1 03       		.byte	0x3
 2815 08e2 DB02     		.2byte	0x2db
 2816 08e4 A4000000 		.4byte	0xa4
 2817 08e8 1D       		.uleb128 0x1d
 2818 08e9 3A060000 		.4byte	.LASF94
 2819 08ed 03       		.byte	0x3
 2820 08ee DC02     		.2byte	0x2dc
ARM GAS  C:\Users\Dan\AppData\Local\Temp\ccwiSTnc.s 			page 76


 2821 08f0 A4000000 		.4byte	0xa4
 2822 08f4 0C       		.uleb128 0xc
 2823 08f5 53050000 		.4byte	0x553
 2824 08f9 04090000 		.4byte	0x904
 2825 08fd 0D       		.uleb128 0xd
 2826 08fe B0000000 		.4byte	0xb0
 2827 0902 11       		.byte	0x11
 2828 0903 00       		.byte	0
 2829 0904 1E       		.uleb128 0x1e
 2830 0905 DE030000 		.4byte	.LASF95
 2831 0909 04       		.byte	0x4
 2832 090a 61       		.byte	0x61
 2833 090b 0F090000 		.4byte	0x90f
 2834 090f 15       		.uleb128 0x15
 2835 0910 F4080000 		.4byte	0x8f4
 2836 0914 0C       		.uleb128 0xc
 2837 0915 46040000 		.4byte	0x446
 2838 0919 24090000 		.4byte	0x924
 2839 091d 0D       		.uleb128 0xd
 2840 091e B0000000 		.4byte	0xb0
 2841 0922 00       		.byte	0
 2842 0923 00       		.byte	0
 2843 0924 1E       		.uleb128 0x1e
 2844 0925 5D030000 		.4byte	.LASF96
 2845 0929 04       		.byte	0x4
 2846 092a 68       		.byte	0x68
 2847 092b 2F090000 		.4byte	0x92f
 2848 092f 15       		.uleb128 0x15
 2849 0930 14090000 		.4byte	0x914
 2850 0934 0C       		.uleb128 0xc
 2851 0935 53050000 		.4byte	0x553
 2852 0939 44090000 		.4byte	0x944
 2853 093d 0D       		.uleb128 0xd
 2854 093e B0000000 		.4byte	0xb0
 2855 0942 09       		.byte	0x9
 2856 0943 00       		.byte	0
 2857 0944 1E       		.uleb128 0x1e
 2858 0945 69030000 		.4byte	.LASF97
 2859 0949 04       		.byte	0x4
 2860 094a 69       		.byte	0x69
 2861 094b 4F090000 		.4byte	0x94f
 2862 094f 15       		.uleb128 0x15
 2863 0950 34090000 		.4byte	0x934
 2864 0954 0C       		.uleb128 0xc
 2865 0955 53050000 		.4byte	0x553
 2866 0959 64090000 		.4byte	0x964
 2867 095d 0D       		.uleb128 0xd
 2868 095e B0000000 		.4byte	0xb0
 2869 0962 74       		.byte	0x74
 2870 0963 00       		.byte	0
 2871 0964 1E       		.uleb128 0x1e
 2872 0965 F8030000 		.4byte	.LASF98
 2873 0969 04       		.byte	0x4
 2874 096a 6A       		.byte	0x6a
 2875 096b 6F090000 		.4byte	0x96f
 2876 096f 15       		.uleb128 0x15
 2877 0970 54090000 		.4byte	0x954
ARM GAS  C:\Users\Dan\AppData\Local\Temp\ccwiSTnc.s 			page 77


 2878 0974 1E       		.uleb128 0x1e
 2879 0975 2B010000 		.4byte	.LASF99
 2880 0979 04       		.byte	0x4
 2881 097a 7D       		.byte	0x7d
 2882 097b A4000000 		.4byte	0xa4
 2883 097f 0C       		.uleb128 0xc
 2884 0980 A4000000 		.4byte	0xa4
 2885 0984 8F090000 		.4byte	0x98f
 2886 0988 0D       		.uleb128 0xd
 2887 0989 B0000000 		.4byte	0xb0
 2888 098d 00       		.byte	0
 2889 098e 00       		.byte	0
 2890 098f 1E       		.uleb128 0x1e
 2891 0990 5E040000 		.4byte	.LASF100
 2892 0994 04       		.byte	0x4
 2893 0995 7E       		.byte	0x7e
 2894 0996 9A090000 		.4byte	0x99a
 2895 099a 05       		.uleb128 0x5
 2896 099b 7F090000 		.4byte	0x97f
 2897 099f 1E       		.uleb128 0x1e
 2898 09a0 C1060000 		.4byte	.LASF101
 2899 09a4 04       		.byte	0x4
 2900 09a5 7F       		.byte	0x7f
 2901 09a6 AA090000 		.4byte	0x9aa
 2902 09aa 05       		.uleb128 0x5
 2903 09ab 7F090000 		.4byte	0x97f
 2904 09af 1E       		.uleb128 0x1e
 2905 09b0 FF000000 		.4byte	.LASF102
 2906 09b4 04       		.byte	0x4
 2907 09b5 80       		.byte	0x80
 2908 09b6 A4000000 		.4byte	0xa4
 2909 09ba 1E       		.uleb128 0x1e
 2910 09bb A3060000 		.4byte	.LASF103
 2911 09bf 04       		.byte	0x4
 2912 09c0 81       		.byte	0x81
 2913 09c1 C5090000 		.4byte	0x9c5
 2914 09c5 05       		.uleb128 0x5
 2915 09c6 7F090000 		.4byte	0x97f
 2916 09ca 1E       		.uleb128 0x1e
 2917 09cb FA020000 		.4byte	.LASF104
 2918 09cf 04       		.byte	0x4
 2919 09d0 82       		.byte	0x82
 2920 09d1 4D050000 		.4byte	0x54d
 2921 09d5 0C       		.uleb128 0xc
 2922 09d6 E5090000 		.4byte	0x9e5
 2923 09da E5090000 		.4byte	0x9e5
 2924 09de 0D       		.uleb128 0xd
 2925 09df B0000000 		.4byte	0xb0
 2926 09e3 08       		.byte	0x8
 2927 09e4 00       		.byte	0
 2928 09e5 05       		.uleb128 0x5
 2929 09e6 2C010000 		.4byte	0x12c
 2930 09ea 1E       		.uleb128 0x1e
 2931 09eb 2B040000 		.4byte	.LASF105
 2932 09ef 04       		.byte	0x4
 2933 09f0 84       		.byte	0x84
 2934 09f1 F5090000 		.4byte	0x9f5
ARM GAS  C:\Users\Dan\AppData\Local\Temp\ccwiSTnc.s 			page 78


 2935 09f5 05       		.uleb128 0x5
 2936 09f6 D5090000 		.4byte	0x9d5
 2937 09fa 1E       		.uleb128 0x1e
 2938 09fb 2C000000 		.4byte	.LASF106
 2939 09ff 04       		.byte	0x4
 2940 0a00 85       		.byte	0x85
 2941 0a01 050A0000 		.4byte	0xa05
 2942 0a05 05       		.uleb128 0x5
 2943 0a06 F8010000 		.4byte	0x1f8
 2944 0a0a 1F       		.uleb128 0x1f
 2945 0a0b 4A050000 		.4byte	.LASF107
 2946 0a0f 4A050000 		.4byte	.LASF107
 2947 0a13 04       		.byte	0x4
 2948 0a14 BE       		.byte	0xbe
 2949 0a15 1F       		.uleb128 0x1f
 2950 0a16 3C000000 		.4byte	.LASF108
 2951 0a1a 3C000000 		.4byte	.LASF108
 2952 0a1e 04       		.byte	0x4
 2953 0a1f B4       		.byte	0xb4
 2954 0a20 20       		.uleb128 0x20
 2955 0a21 60060000 		.4byte	.LASF109
 2956 0a25 60060000 		.4byte	.LASF109
 2957 0a29 04       		.byte	0x4
 2958 0a2a 5A01     		.2byte	0x15a
 2959 0a2c 00       		.byte	0
 2960              		.section	.debug_abbrev,"",%progbits
 2961              	.Ldebug_abbrev0:
 2962 0000 01       		.uleb128 0x1
 2963 0001 11       		.uleb128 0x11
 2964 0002 01       		.byte	0x1
 2965 0003 25       		.uleb128 0x25
 2966 0004 0E       		.uleb128 0xe
 2967 0005 13       		.uleb128 0x13
 2968 0006 0B       		.uleb128 0xb
 2969 0007 03       		.uleb128 0x3
 2970 0008 0E       		.uleb128 0xe
 2971 0009 1B       		.uleb128 0x1b
 2972 000a 0E       		.uleb128 0xe
 2973 000b 55       		.uleb128 0x55
 2974 000c 17       		.uleb128 0x17
 2975 000d 11       		.uleb128 0x11
 2976 000e 01       		.uleb128 0x1
 2977 000f 10       		.uleb128 0x10
 2978 0010 17       		.uleb128 0x17
 2979 0011 00       		.byte	0
 2980 0012 00       		.byte	0
 2981 0013 02       		.uleb128 0x2
 2982 0014 24       		.uleb128 0x24
 2983 0015 00       		.byte	0
 2984 0016 0B       		.uleb128 0xb
 2985 0017 0B       		.uleb128 0xb
 2986 0018 3E       		.uleb128 0x3e
 2987 0019 0B       		.uleb128 0xb
 2988 001a 03       		.uleb128 0x3
 2989 001b 0E       		.uleb128 0xe
 2990 001c 00       		.byte	0
 2991 001d 00       		.byte	0
ARM GAS  C:\Users\Dan\AppData\Local\Temp\ccwiSTnc.s 			page 79


 2992 001e 03       		.uleb128 0x3
 2993 001f 24       		.uleb128 0x24
 2994 0020 00       		.byte	0
 2995 0021 0B       		.uleb128 0xb
 2996 0022 0B       		.uleb128 0xb
 2997 0023 3E       		.uleb128 0x3e
 2998 0024 0B       		.uleb128 0xb
 2999 0025 03       		.uleb128 0x3
 3000 0026 08       		.uleb128 0x8
 3001 0027 00       		.byte	0
 3002 0028 00       		.byte	0
 3003 0029 04       		.uleb128 0x4
 3004 002a 16       		.uleb128 0x16
 3005 002b 00       		.byte	0
 3006 002c 03       		.uleb128 0x3
 3007 002d 0E       		.uleb128 0xe
 3008 002e 3A       		.uleb128 0x3a
 3009 002f 0B       		.uleb128 0xb
 3010 0030 3B       		.uleb128 0x3b
 3011 0031 05       		.uleb128 0x5
 3012 0032 49       		.uleb128 0x49
 3013 0033 13       		.uleb128 0x13
 3014 0034 00       		.byte	0
 3015 0035 00       		.byte	0
 3016 0036 05       		.uleb128 0x5
 3017 0037 35       		.uleb128 0x35
 3018 0038 00       		.byte	0
 3019 0039 49       		.uleb128 0x49
 3020 003a 13       		.uleb128 0x13
 3021 003b 00       		.byte	0
 3022 003c 00       		.byte	0
 3023 003d 06       		.uleb128 0x6
 3024 003e 13       		.uleb128 0x13
 3025 003f 01       		.byte	0x1
 3026 0040 0B       		.uleb128 0xb
 3027 0041 0B       		.uleb128 0xb
 3028 0042 3A       		.uleb128 0x3a
 3029 0043 0B       		.uleb128 0xb
 3030 0044 3B       		.uleb128 0x3b
 3031 0045 0B       		.uleb128 0xb
 3032 0046 01       		.uleb128 0x1
 3033 0047 13       		.uleb128 0x13
 3034 0048 00       		.byte	0
 3035 0049 00       		.byte	0
 3036 004a 07       		.uleb128 0x7
 3037 004b 0D       		.uleb128 0xd
 3038 004c 00       		.byte	0
 3039 004d 03       		.uleb128 0x3
 3040 004e 0E       		.uleb128 0xe
 3041 004f 3A       		.uleb128 0x3a
 3042 0050 0B       		.uleb128 0xb
 3043 0051 3B       		.uleb128 0x3b
 3044 0052 0B       		.uleb128 0xb
 3045 0053 49       		.uleb128 0x49
 3046 0054 13       		.uleb128 0x13
 3047 0055 38       		.uleb128 0x38
 3048 0056 0B       		.uleb128 0xb
ARM GAS  C:\Users\Dan\AppData\Local\Temp\ccwiSTnc.s 			page 80


 3049 0057 00       		.byte	0
 3050 0058 00       		.byte	0
 3051 0059 08       		.uleb128 0x8
 3052 005a 16       		.uleb128 0x16
 3053 005b 00       		.byte	0
 3054 005c 03       		.uleb128 0x3
 3055 005d 0E       		.uleb128 0xe
 3056 005e 3A       		.uleb128 0x3a
 3057 005f 0B       		.uleb128 0xb
 3058 0060 3B       		.uleb128 0x3b
 3059 0061 0B       		.uleb128 0xb
 3060 0062 49       		.uleb128 0x49
 3061 0063 13       		.uleb128 0x13
 3062 0064 00       		.byte	0
 3063 0065 00       		.byte	0
 3064 0066 09       		.uleb128 0x9
 3065 0067 0F       		.uleb128 0xf
 3066 0068 00       		.byte	0
 3067 0069 0B       		.uleb128 0xb
 3068 006a 0B       		.uleb128 0xb
 3069 006b 49       		.uleb128 0x49
 3070 006c 13       		.uleb128 0x13
 3071 006d 00       		.byte	0
 3072 006e 00       		.byte	0
 3073 006f 0A       		.uleb128 0xa
 3074 0070 0D       		.uleb128 0xd
 3075 0071 00       		.byte	0
 3076 0072 03       		.uleb128 0x3
 3077 0073 08       		.uleb128 0x8
 3078 0074 3A       		.uleb128 0x3a
 3079 0075 0B       		.uleb128 0xb
 3080 0076 3B       		.uleb128 0x3b
 3081 0077 0B       		.uleb128 0xb
 3082 0078 49       		.uleb128 0x49
 3083 0079 13       		.uleb128 0x13
 3084 007a 38       		.uleb128 0x38
 3085 007b 0B       		.uleb128 0xb
 3086 007c 00       		.byte	0
 3087 007d 00       		.byte	0
 3088 007e 0B       		.uleb128 0xb
 3089 007f 26       		.uleb128 0x26
 3090 0080 00       		.byte	0
 3091 0081 00       		.byte	0
 3092 0082 00       		.byte	0
 3093 0083 0C       		.uleb128 0xc
 3094 0084 01       		.uleb128 0x1
 3095 0085 01       		.byte	0x1
 3096 0086 49       		.uleb128 0x49
 3097 0087 13       		.uleb128 0x13
 3098 0088 01       		.uleb128 0x1
 3099 0089 13       		.uleb128 0x13
 3100 008a 00       		.byte	0
 3101 008b 00       		.byte	0
 3102 008c 0D       		.uleb128 0xd
 3103 008d 21       		.uleb128 0x21
 3104 008e 00       		.byte	0
 3105 008f 49       		.uleb128 0x49
ARM GAS  C:\Users\Dan\AppData\Local\Temp\ccwiSTnc.s 			page 81


 3106 0090 13       		.uleb128 0x13
 3107 0091 2F       		.uleb128 0x2f
 3108 0092 0B       		.uleb128 0xb
 3109 0093 00       		.byte	0
 3110 0094 00       		.byte	0
 3111 0095 0E       		.uleb128 0xe
 3112 0096 13       		.uleb128 0x13
 3113 0097 01       		.byte	0x1
 3114 0098 0B       		.uleb128 0xb
 3115 0099 0B       		.uleb128 0xb
 3116 009a 3A       		.uleb128 0x3a
 3117 009b 0B       		.uleb128 0xb
 3118 009c 3B       		.uleb128 0x3b
 3119 009d 05       		.uleb128 0x5
 3120 009e 01       		.uleb128 0x1
 3121 009f 13       		.uleb128 0x13
 3122 00a0 00       		.byte	0
 3123 00a1 00       		.byte	0
 3124 00a2 0F       		.uleb128 0xf
 3125 00a3 0D       		.uleb128 0xd
 3126 00a4 00       		.byte	0
 3127 00a5 03       		.uleb128 0x3
 3128 00a6 0E       		.uleb128 0xe
 3129 00a7 3A       		.uleb128 0x3a
 3130 00a8 0B       		.uleb128 0xb
 3131 00a9 3B       		.uleb128 0x3b
 3132 00aa 05       		.uleb128 0x5
 3133 00ab 49       		.uleb128 0x49
 3134 00ac 13       		.uleb128 0x13
 3135 00ad 38       		.uleb128 0x38
 3136 00ae 0B       		.uleb128 0xb
 3137 00af 00       		.byte	0
 3138 00b0 00       		.byte	0
 3139 00b1 10       		.uleb128 0x10
 3140 00b2 2E       		.uleb128 0x2e
 3141 00b3 01       		.byte	0x1
 3142 00b4 3F       		.uleb128 0x3f
 3143 00b5 19       		.uleb128 0x19
 3144 00b6 03       		.uleb128 0x3
 3145 00b7 0E       		.uleb128 0xe
 3146 00b8 3A       		.uleb128 0x3a
 3147 00b9 0B       		.uleb128 0xb
 3148 00ba 3B       		.uleb128 0x3b
 3149 00bb 05       		.uleb128 0x5
 3150 00bc 27       		.uleb128 0x27
 3151 00bd 19       		.uleb128 0x19
 3152 00be 11       		.uleb128 0x11
 3153 00bf 01       		.uleb128 0x1
 3154 00c0 12       		.uleb128 0x12
 3155 00c1 06       		.uleb128 0x6
 3156 00c2 40       		.uleb128 0x40
 3157 00c3 18       		.uleb128 0x18
 3158 00c4 9742     		.uleb128 0x2117
 3159 00c6 19       		.uleb128 0x19
 3160 00c7 01       		.uleb128 0x1
 3161 00c8 13       		.uleb128 0x13
 3162 00c9 00       		.byte	0
ARM GAS  C:\Users\Dan\AppData\Local\Temp\ccwiSTnc.s 			page 82


 3163 00ca 00       		.byte	0
 3164 00cb 11       		.uleb128 0x11
 3165 00cc 34       		.uleb128 0x34
 3166 00cd 00       		.byte	0
 3167 00ce 03       		.uleb128 0x3
 3168 00cf 08       		.uleb128 0x8
 3169 00d0 3A       		.uleb128 0x3a
 3170 00d1 0B       		.uleb128 0xb
 3171 00d2 3B       		.uleb128 0x3b
 3172 00d3 05       		.uleb128 0x5
 3173 00d4 49       		.uleb128 0x49
 3174 00d5 13       		.uleb128 0x13
 3175 00d6 02       		.uleb128 0x2
 3176 00d7 17       		.uleb128 0x17
 3177 00d8 00       		.byte	0
 3178 00d9 00       		.byte	0
 3179 00da 12       		.uleb128 0x12
 3180 00db 2E       		.uleb128 0x2e
 3181 00dc 01       		.byte	0x1
 3182 00dd 3F       		.uleb128 0x3f
 3183 00de 19       		.uleb128 0x19
 3184 00df 03       		.uleb128 0x3
 3185 00e0 0E       		.uleb128 0xe
 3186 00e1 3A       		.uleb128 0x3a
 3187 00e2 0B       		.uleb128 0xb
 3188 00e3 3B       		.uleb128 0x3b
 3189 00e4 05       		.uleb128 0x5
 3190 00e5 27       		.uleb128 0x27
 3191 00e6 19       		.uleb128 0x19
 3192 00e7 49       		.uleb128 0x49
 3193 00e8 13       		.uleb128 0x13
 3194 00e9 11       		.uleb128 0x11
 3195 00ea 01       		.uleb128 0x1
 3196 00eb 12       		.uleb128 0x12
 3197 00ec 06       		.uleb128 0x6
 3198 00ed 40       		.uleb128 0x40
 3199 00ee 18       		.uleb128 0x18
 3200 00ef 9742     		.uleb128 0x2117
 3201 00f1 19       		.uleb128 0x19
 3202 00f2 01       		.uleb128 0x1
 3203 00f3 13       		.uleb128 0x13
 3204 00f4 00       		.byte	0
 3205 00f5 00       		.byte	0
 3206 00f6 13       		.uleb128 0x13
 3207 00f7 05       		.uleb128 0x5
 3208 00f8 00       		.byte	0
 3209 00f9 03       		.uleb128 0x3
 3210 00fa 0E       		.uleb128 0xe
 3211 00fb 3A       		.uleb128 0x3a
 3212 00fc 0B       		.uleb128 0xb
 3213 00fd 3B       		.uleb128 0x3b
 3214 00fe 05       		.uleb128 0x5
 3215 00ff 49       		.uleb128 0x49
 3216 0100 13       		.uleb128 0x13
 3217 0101 02       		.uleb128 0x2
 3218 0102 17       		.uleb128 0x17
 3219 0103 00       		.byte	0
ARM GAS  C:\Users\Dan\AppData\Local\Temp\ccwiSTnc.s 			page 83


 3220 0104 00       		.byte	0
 3221 0105 14       		.uleb128 0x14
 3222 0106 34       		.uleb128 0x34
 3223 0107 00       		.byte	0
 3224 0108 03       		.uleb128 0x3
 3225 0109 0E       		.uleb128 0xe
 3226 010a 3A       		.uleb128 0x3a
 3227 010b 0B       		.uleb128 0xb
 3228 010c 3B       		.uleb128 0x3b
 3229 010d 05       		.uleb128 0x5
 3230 010e 49       		.uleb128 0x49
 3231 010f 13       		.uleb128 0x13
 3232 0110 02       		.uleb128 0x2
 3233 0111 17       		.uleb128 0x17
 3234 0112 00       		.byte	0
 3235 0113 00       		.byte	0
 3236 0114 15       		.uleb128 0x15
 3237 0115 26       		.uleb128 0x26
 3238 0116 00       		.byte	0
 3239 0117 49       		.uleb128 0x49
 3240 0118 13       		.uleb128 0x13
 3241 0119 00       		.byte	0
 3242 011a 00       		.byte	0
 3243 011b 16       		.uleb128 0x16
 3244 011c 898201   		.uleb128 0x4109
 3245 011f 00       		.byte	0
 3246 0120 11       		.uleb128 0x11
 3247 0121 01       		.uleb128 0x1
 3248 0122 31       		.uleb128 0x31
 3249 0123 13       		.uleb128 0x13
 3250 0124 00       		.byte	0
 3251 0125 00       		.byte	0
 3252 0126 17       		.uleb128 0x17
 3253 0127 2E       		.uleb128 0x2e
 3254 0128 00       		.byte	0
 3255 0129 3F       		.uleb128 0x3f
 3256 012a 19       		.uleb128 0x19
 3257 012b 03       		.uleb128 0x3
 3258 012c 0E       		.uleb128 0xe
 3259 012d 3A       		.uleb128 0x3a
 3260 012e 0B       		.uleb128 0xb
 3261 012f 3B       		.uleb128 0x3b
 3262 0130 05       		.uleb128 0x5
 3263 0131 27       		.uleb128 0x27
 3264 0132 19       		.uleb128 0x19
 3265 0133 49       		.uleb128 0x49
 3266 0134 13       		.uleb128 0x13
 3267 0135 11       		.uleb128 0x11
 3268 0136 01       		.uleb128 0x1
 3269 0137 12       		.uleb128 0x12
 3270 0138 06       		.uleb128 0x6
 3271 0139 40       		.uleb128 0x40
 3272 013a 18       		.uleb128 0x18
 3273 013b 9742     		.uleb128 0x2117
 3274 013d 19       		.uleb128 0x19
 3275 013e 00       		.byte	0
 3276 013f 00       		.byte	0
ARM GAS  C:\Users\Dan\AppData\Local\Temp\ccwiSTnc.s 			page 84


 3277 0140 18       		.uleb128 0x18
 3278 0141 2E       		.uleb128 0x2e
 3279 0142 01       		.byte	0x1
 3280 0143 3F       		.uleb128 0x3f
 3281 0144 19       		.uleb128 0x19
 3282 0145 03       		.uleb128 0x3
 3283 0146 0E       		.uleb128 0xe
 3284 0147 3A       		.uleb128 0x3a
 3285 0148 0B       		.uleb128 0xb
 3286 0149 3B       		.uleb128 0x3b
 3287 014a 0B       		.uleb128 0xb
 3288 014b 27       		.uleb128 0x27
 3289 014c 19       		.uleb128 0x19
 3290 014d 49       		.uleb128 0x49
 3291 014e 13       		.uleb128 0x13
 3292 014f 11       		.uleb128 0x11
 3293 0150 01       		.uleb128 0x1
 3294 0151 12       		.uleb128 0x12
 3295 0152 06       		.uleb128 0x6
 3296 0153 40       		.uleb128 0x40
 3297 0154 18       		.uleb128 0x18
 3298 0155 9742     		.uleb128 0x2117
 3299 0157 19       		.uleb128 0x19
 3300 0158 01       		.uleb128 0x1
 3301 0159 13       		.uleb128 0x13
 3302 015a 00       		.byte	0
 3303 015b 00       		.byte	0
 3304 015c 19       		.uleb128 0x19
 3305 015d 34       		.uleb128 0x34
 3306 015e 00       		.byte	0
 3307 015f 03       		.uleb128 0x3
 3308 0160 0E       		.uleb128 0xe
 3309 0161 3A       		.uleb128 0x3a
 3310 0162 0B       		.uleb128 0xb
 3311 0163 3B       		.uleb128 0x3b
 3312 0164 0B       		.uleb128 0xb
 3313 0165 49       		.uleb128 0x49
 3314 0166 13       		.uleb128 0x13
 3315 0167 02       		.uleb128 0x2
 3316 0168 17       		.uleb128 0x17
 3317 0169 00       		.byte	0
 3318 016a 00       		.byte	0
 3319 016b 1A       		.uleb128 0x1a
 3320 016c 34       		.uleb128 0x34
 3321 016d 00       		.byte	0
 3322 016e 03       		.uleb128 0x3
 3323 016f 0E       		.uleb128 0xe
 3324 0170 3A       		.uleb128 0x3a
 3325 0171 0B       		.uleb128 0xb
 3326 0172 3B       		.uleb128 0x3b
 3327 0173 0B       		.uleb128 0xb
 3328 0174 49       		.uleb128 0x49
 3329 0175 13       		.uleb128 0x13
 3330 0176 02       		.uleb128 0x2
 3331 0177 18       		.uleb128 0x18
 3332 0178 00       		.byte	0
 3333 0179 00       		.byte	0
ARM GAS  C:\Users\Dan\AppData\Local\Temp\ccwiSTnc.s 			page 85


 3334 017a 1B       		.uleb128 0x1b
 3335 017b 898201   		.uleb128 0x4109
 3336 017e 01       		.byte	0x1
 3337 017f 11       		.uleb128 0x11
 3338 0180 01       		.uleb128 0x1
 3339 0181 31       		.uleb128 0x31
 3340 0182 13       		.uleb128 0x13
 3341 0183 01       		.uleb128 0x1
 3342 0184 13       		.uleb128 0x13
 3343 0185 00       		.byte	0
 3344 0186 00       		.byte	0
 3345 0187 1C       		.uleb128 0x1c
 3346 0188 8A8201   		.uleb128 0x410a
 3347 018b 00       		.byte	0
 3348 018c 02       		.uleb128 0x2
 3349 018d 18       		.uleb128 0x18
 3350 018e 9142     		.uleb128 0x2111
 3351 0190 18       		.uleb128 0x18
 3352 0191 00       		.byte	0
 3353 0192 00       		.byte	0
 3354 0193 1D       		.uleb128 0x1d
 3355 0194 34       		.uleb128 0x34
 3356 0195 00       		.byte	0
 3357 0196 03       		.uleb128 0x3
 3358 0197 0E       		.uleb128 0xe
 3359 0198 3A       		.uleb128 0x3a
 3360 0199 0B       		.uleb128 0xb
 3361 019a 3B       		.uleb128 0x3b
 3362 019b 05       		.uleb128 0x5
 3363 019c 49       		.uleb128 0x49
 3364 019d 13       		.uleb128 0x13
 3365 019e 3F       		.uleb128 0x3f
 3366 019f 19       		.uleb128 0x19
 3367 01a0 3C       		.uleb128 0x3c
 3368 01a1 19       		.uleb128 0x19
 3369 01a2 00       		.byte	0
 3370 01a3 00       		.byte	0
 3371 01a4 1E       		.uleb128 0x1e
 3372 01a5 34       		.uleb128 0x34
 3373 01a6 00       		.byte	0
 3374 01a7 03       		.uleb128 0x3
 3375 01a8 0E       		.uleb128 0xe
 3376 01a9 3A       		.uleb128 0x3a
 3377 01aa 0B       		.uleb128 0xb
 3378 01ab 3B       		.uleb128 0x3b
 3379 01ac 0B       		.uleb128 0xb
 3380 01ad 49       		.uleb128 0x49
 3381 01ae 13       		.uleb128 0x13
 3382 01af 3F       		.uleb128 0x3f
 3383 01b0 19       		.uleb128 0x19
 3384 01b1 3C       		.uleb128 0x3c
 3385 01b2 19       		.uleb128 0x19
 3386 01b3 00       		.byte	0
 3387 01b4 00       		.byte	0
 3388 01b5 1F       		.uleb128 0x1f
 3389 01b6 2E       		.uleb128 0x2e
 3390 01b7 00       		.byte	0
ARM GAS  C:\Users\Dan\AppData\Local\Temp\ccwiSTnc.s 			page 86


 3391 01b8 3F       		.uleb128 0x3f
 3392 01b9 19       		.uleb128 0x19
 3393 01ba 3C       		.uleb128 0x3c
 3394 01bb 19       		.uleb128 0x19
 3395 01bc 6E       		.uleb128 0x6e
 3396 01bd 0E       		.uleb128 0xe
 3397 01be 03       		.uleb128 0x3
 3398 01bf 0E       		.uleb128 0xe
 3399 01c0 3A       		.uleb128 0x3a
 3400 01c1 0B       		.uleb128 0xb
 3401 01c2 3B       		.uleb128 0x3b
 3402 01c3 0B       		.uleb128 0xb
 3403 01c4 00       		.byte	0
 3404 01c5 00       		.byte	0
 3405 01c6 20       		.uleb128 0x20
 3406 01c7 2E       		.uleb128 0x2e
 3407 01c8 00       		.byte	0
 3408 01c9 3F       		.uleb128 0x3f
 3409 01ca 19       		.uleb128 0x19
 3410 01cb 3C       		.uleb128 0x3c
 3411 01cc 19       		.uleb128 0x19
 3412 01cd 6E       		.uleb128 0x6e
 3413 01ce 0E       		.uleb128 0xe
 3414 01cf 03       		.uleb128 0x3
 3415 01d0 0E       		.uleb128 0xe
 3416 01d1 3A       		.uleb128 0x3a
 3417 01d2 0B       		.uleb128 0xb
 3418 01d3 3B       		.uleb128 0x3b
 3419 01d4 05       		.uleb128 0x5
 3420 01d5 00       		.byte	0
 3421 01d6 00       		.byte	0
 3422 01d7 00       		.byte	0
 3423              		.section	.debug_loc,"",%progbits
 3424              	.Ldebug_loc0:
 3425              	.LLST0:
 3426 0000 02000000 		.4byte	.LVL0
 3427 0004 06000000 		.4byte	.LVL1
 3428 0008 0200     		.2byte	0x2
 3429 000a 31       		.byte	0x31
 3430 000b 9F       		.byte	0x9f
 3431 000c 06000000 		.4byte	.LVL1
 3432 0010 82000000 		.4byte	.LVL2
 3433 0014 0100     		.2byte	0x1
 3434 0016 53       		.byte	0x53
 3435 0017 84000000 		.4byte	.LVL3
 3436 001b 8C000000 		.4byte	.LVL4
 3437 001f 0100     		.2byte	0x1
 3438 0021 53       		.byte	0x53
 3439 0022 00000000 		.4byte	0
 3440 0026 00000000 		.4byte	0
 3441              	.LLST1:
 3442 002a 00000000 		.4byte	.LVL5
 3443 002e 04000000 		.4byte	.LVL6
 3444 0032 0200     		.2byte	0x2
 3445 0034 31       		.byte	0x31
 3446 0035 9F       		.byte	0x9f
 3447 0036 04000000 		.4byte	.LVL6
ARM GAS  C:\Users\Dan\AppData\Local\Temp\ccwiSTnc.s 			page 87


 3448 003a 36000000 		.4byte	.LVL7
 3449 003e 0100     		.2byte	0x1
 3450 0040 53       		.byte	0x53
 3451 0041 38000000 		.4byte	.LVL8
 3452 0045 44000000 		.4byte	.LFE2
 3453 0049 0100     		.2byte	0x1
 3454 004b 53       		.byte	0x53
 3455 004c 00000000 		.4byte	0
 3456 0050 00000000 		.4byte	0
 3457              	.LLST2:
 3458 0054 00000000 		.4byte	.LVL9
 3459 0058 14000000 		.4byte	.LVL11
 3460 005c 0100     		.2byte	0x1
 3461 005e 50       		.byte	0x50
 3462 005f 14000000 		.4byte	.LVL11
 3463 0063 1C000000 		.4byte	.LVL13
 3464 0067 0400     		.2byte	0x4
 3465 0069 F3       		.byte	0xf3
 3466 006a 01       		.uleb128 0x1
 3467 006b 50       		.byte	0x50
 3468 006c 9F       		.byte	0x9f
 3469 006d 1C000000 		.4byte	.LVL13
 3470 0071 1E000000 		.4byte	.LVL14
 3471 0075 0100     		.2byte	0x1
 3472 0077 50       		.byte	0x50
 3473 0078 1E000000 		.4byte	.LVL14
 3474 007c 28000000 		.4byte	.LFE5
 3475 0080 0400     		.2byte	0x4
 3476 0082 F3       		.byte	0xf3
 3477 0083 01       		.uleb128 0x1
 3478 0084 50       		.byte	0x50
 3479 0085 9F       		.byte	0x9f
 3480 0086 00000000 		.4byte	0
 3481 008a 00000000 		.4byte	0
 3482              	.LLST3:
 3483 008e 0C000000 		.4byte	.LVL10
 3484 0092 1A000000 		.4byte	.LVL12
 3485 0096 0300     		.2byte	0x3
 3486 0098 73       		.byte	0x73
 3487 0099 10       		.sleb128 16
 3488 009a 9F       		.byte	0x9f
 3489 009b 1A000000 		.4byte	.LVL12
 3490 009f 1C000000 		.4byte	.LVL13
 3491 00a3 0100     		.2byte	0x1
 3492 00a5 50       		.byte	0x50
 3493 00a6 1C000000 		.4byte	.LVL13
 3494 00aa 1E000000 		.4byte	.LVL14
 3495 00ae 0300     		.2byte	0x3
 3496 00b0 73       		.byte	0x73
 3497 00b1 10       		.sleb128 16
 3498 00b2 9F       		.byte	0x9f
 3499 00b3 1E000000 		.4byte	.LVL14
 3500 00b7 28000000 		.4byte	.LFE5
 3501 00bb 0100     		.2byte	0x1
 3502 00bd 50       		.byte	0x50
 3503 00be 00000000 		.4byte	0
 3504 00c2 00000000 		.4byte	0
ARM GAS  C:\Users\Dan\AppData\Local\Temp\ccwiSTnc.s 			page 88


 3505              	.LLST4:
 3506 00c6 1A000000 		.4byte	.LVL16
 3507 00ca 00010000 		.4byte	.LVL30
 3508 00ce 0100     		.2byte	0x1
 3509 00d0 54       		.byte	0x54
 3510 00d1 00000000 		.4byte	0
 3511 00d5 00000000 		.4byte	0
 3512              	.LLST5:
 3513 00d9 3E000000 		.4byte	.LVL21
 3514 00dd C0000000 		.4byte	.LVL26
 3515 00e1 0100     		.2byte	0x1
 3516 00e3 51       		.byte	0x51
 3517 00e4 00000000 		.4byte	0
 3518 00e8 00000000 		.4byte	0
 3519              	.LLST6:
 3520 00ec 44000000 		.4byte	.LVL22
 3521 00f0 82000000 		.4byte	.LVL23
 3522 00f4 0100     		.2byte	0x1
 3523 00f6 56       		.byte	0x56
 3524 00f7 92000000 		.4byte	.LVL24
 3525 00fb 9E000000 		.4byte	.LVL25
 3526 00ff 0100     		.2byte	0x1
 3527 0101 56       		.byte	0x56
 3528 0102 00000000 		.4byte	0
 3529 0106 00000000 		.4byte	0
 3530              	.LLST7:
 3531 010a 22000000 		.4byte	.LVL19
 3532 010e 26000000 		.4byte	.LVL20
 3533 0112 0200     		.2byte	0x2
 3534 0114 30       		.byte	0x30
 3535 0115 9F       		.byte	0x9f
 3536 0116 26000000 		.4byte	.LVL20
 3537 011a FA000000 		.4byte	.LVL28
 3538 011e 0100     		.2byte	0x1
 3539 0120 53       		.byte	0x53
 3540 0121 FC000000 		.4byte	.LVL29
 3541 0125 00010000 		.4byte	.LVL30
 3542 0129 0100     		.2byte	0x1
 3543 012b 53       		.byte	0x53
 3544 012c 00000000 		.4byte	0
 3545 0130 00000000 		.4byte	0
 3546              	.LLST8:
 3547 0134 22000000 		.4byte	.LVL19
 3548 0138 00010000 		.4byte	.LVL30
 3549 013c 0100     		.2byte	0x1
 3550 013e 50       		.byte	0x50
 3551 013f 00000000 		.4byte	0
 3552 0143 00000000 		.4byte	0
 3553              	.LLST9:
 3554 0147 18000000 		.4byte	.LVL15
 3555 014b 20000000 		.4byte	.LVL18
 3556 014f 0300     		.2byte	0x3
 3557 0151 70       		.byte	0x70
 3558 0152 08       		.sleb128 8
 3559 0153 9F       		.byte	0x9f
 3560 0154 00000000 		.4byte	0
 3561 0158 00000000 		.4byte	0
ARM GAS  C:\Users\Dan\AppData\Local\Temp\ccwiSTnc.s 			page 89


 3562              	.LLST10:
 3563 015c 1C000000 		.4byte	.LVL17
 3564 0160 00010000 		.4byte	.LVL30
 3565 0164 0100     		.2byte	0x1
 3566 0166 52       		.byte	0x52
 3567 0167 00000000 		.4byte	0
 3568 016b 00000000 		.4byte	0
 3569              	.LLST11:
 3570 016f 0E000000 		.4byte	.LVL31
 3571 0173 1A000000 		.4byte	.LVL34
 3572 0177 0100     		.2byte	0x1
 3573 0179 50       		.byte	0x50
 3574 017a 1A000000 		.4byte	.LVL34
 3575 017e 1E000000 		.4byte	.LVL36
 3576 0182 0100     		.2byte	0x1
 3577 0184 53       		.byte	0x53
 3578 0185 1E000000 		.4byte	.LVL36
 3579 0189 20000000 		.4byte	.LVL37
 3580 018d 0100     		.2byte	0x1
 3581 018f 50       		.byte	0x50
 3582 0190 00000000 		.4byte	0
 3583 0194 00000000 		.4byte	0
 3584              	.LLST12:
 3585 0198 1C000000 		.4byte	.LVL35
 3586 019c 1E000000 		.4byte	.LVL36
 3587 01a0 0100     		.2byte	0x1
 3588 01a2 50       		.byte	0x50
 3589 01a3 20000000 		.4byte	.LVL37
 3590 01a7 28000000 		.4byte	.LFE7
 3591 01ab 0100     		.2byte	0x1
 3592 01ad 50       		.byte	0x50
 3593 01ae 00000000 		.4byte	0
 3594 01b2 00000000 		.4byte	0
 3595              	.LLST13:
 3596 01b6 14000000 		.4byte	.LVL32
 3597 01ba 16000000 		.4byte	.LVL33
 3598 01be 0100     		.2byte	0x1
 3599 01c0 52       		.byte	0x52
 3600 01c1 16000000 		.4byte	.LVL33
 3601 01c5 1E000000 		.4byte	.LVL36
 3602 01c9 0300     		.2byte	0x3
 3603 01cb 72       		.byte	0x72
 3604 01cc 7E       		.sleb128 -2
 3605 01cd 9F       		.byte	0x9f
 3606 01ce 00000000 		.4byte	0
 3607 01d2 00000000 		.4byte	0
 3608              	.LLST14:
 3609 01d6 00000000 		.4byte	.LVL38
 3610 01da 58000000 		.4byte	.LVL49
 3611 01de 0100     		.2byte	0x1
 3612 01e0 50       		.byte	0x50
 3613 01e1 58000000 		.4byte	.LVL49
 3614 01e5 C4010000 		.4byte	.LFE3
 3615 01e9 0400     		.2byte	0x4
 3616 01eb F3       		.byte	0xf3
 3617 01ec 01       		.uleb128 0x1
 3618 01ed 50       		.byte	0x50
ARM GAS  C:\Users\Dan\AppData\Local\Temp\ccwiSTnc.s 			page 90


 3619 01ee 9F       		.byte	0x9f
 3620 01ef 00000000 		.4byte	0
 3621 01f3 00000000 		.4byte	0
 3622              	.LLST15:
 3623 01f7 04000000 		.4byte	.LVL39
 3624 01fb 08000000 		.4byte	.LVL40
 3625 01ff 0200     		.2byte	0x2
 3626 0201 30       		.byte	0x30
 3627 0202 9F       		.byte	0x9f
 3628 0203 08000000 		.4byte	.LVL40
 3629 0207 28000000 		.4byte	.LVL41
 3630 020b 0100     		.2byte	0x1
 3631 020d 53       		.byte	0x53
 3632 020e 2A000000 		.4byte	.LVL42
 3633 0212 32000000 		.4byte	.LVL43
 3634 0216 0100     		.2byte	0x1
 3635 0218 53       		.byte	0x53
 3636 0219 42000000 		.4byte	.LVL46
 3637 021d 44000000 		.4byte	.LVL47
 3638 0221 0100     		.2byte	0x1
 3639 0223 53       		.byte	0x53
 3640 0224 82000000 		.4byte	.LVL54
 3641 0228 80010000 		.4byte	.LVL76
 3642 022c 0100     		.2byte	0x1
 3643 022e 55       		.byte	0x55
 3644 022f 80010000 		.4byte	.LVL76
 3645 0233 86010000 		.4byte	.LVL77
 3646 0237 0200     		.2byte	0x2
 3647 0239 31       		.byte	0x31
 3648 023a 9F       		.byte	0x9f
 3649 023b 86010000 		.4byte	.LVL77
 3650 023f 9C010000 		.4byte	.LVL80
 3651 0243 0100     		.2byte	0x1
 3652 0245 53       		.byte	0x53
 3653 0246 9E010000 		.4byte	.LVL81
 3654 024a A5010000 		.4byte	.LVL82-1
 3655 024e 0100     		.2byte	0x1
 3656 0250 53       		.byte	0x53
 3657 0251 00000000 		.4byte	0
 3658 0255 00000000 		.4byte	0
 3659              	.LLST16:
 3660 0259 88000000 		.4byte	.LVL56
 3661 025d 8C000000 		.4byte	.LVL57
 3662 0261 0200     		.2byte	0x2
 3663 0263 30       		.byte	0x30
 3664 0264 9F       		.byte	0x9f
 3665 0265 8C000000 		.4byte	.LVL57
 3666 0269 46010000 		.4byte	.LVL65
 3667 026d 0100     		.2byte	0x1
 3668 026f 53       		.byte	0x53
 3669 0270 48010000 		.4byte	.LVL66
 3670 0274 50010000 		.4byte	.LVL68
 3671 0278 0100     		.2byte	0x1
 3672 027a 53       		.byte	0x53
 3673 027b 00000000 		.4byte	0
 3674 027f 00000000 		.4byte	0
 3675              	.LLST17:
ARM GAS  C:\Users\Dan\AppData\Local\Temp\ccwiSTnc.s 			page 91


 3676 0283 32000000 		.4byte	.LVL43
 3677 0287 3E000000 		.4byte	.LVL44
 3678 028b 0100     		.2byte	0x1
 3679 028d 53       		.byte	0x53
 3680 028e 40000000 		.4byte	.LVL45
 3681 0292 42000000 		.4byte	.LVL46
 3682 0296 0100     		.2byte	0x1
 3683 0298 53       		.byte	0x53
 3684 0299 44000000 		.4byte	.LVL47
 3685 029d 48000000 		.4byte	.LVL48
 3686 02a1 0100     		.2byte	0x1
 3687 02a3 53       		.byte	0x53
 3688 02a4 82000000 		.4byte	.LVL54
 3689 02a8 86000000 		.4byte	.LVL55
 3690 02ac 0200     		.2byte	0x2
 3691 02ae 31       		.byte	0x31
 3692 02af 9F       		.byte	0x9f
 3693 02b0 86000000 		.4byte	.LVL55
 3694 02b4 4E010000 		.4byte	.LVL67
 3695 02b8 0100     		.2byte	0x1
 3696 02ba 54       		.byte	0x54
 3697 02bb 50010000 		.4byte	.LVL68
 3698 02bf 56010000 		.4byte	.LVL69
 3699 02c3 0100     		.2byte	0x1
 3700 02c5 54       		.byte	0x54
 3701 02c6 56010000 		.4byte	.LVL69
 3702 02ca 5A010000 		.4byte	.LVL70
 3703 02ce 0200     		.2byte	0x2
 3704 02d0 30       		.byte	0x30
 3705 02d1 9F       		.byte	0x9f
 3706 02d2 5A010000 		.4byte	.LVL70
 3707 02d6 72010000 		.4byte	.LVL73
 3708 02da 0100     		.2byte	0x1
 3709 02dc 52       		.byte	0x52
 3710 02dd 74010000 		.4byte	.LVL74
 3711 02e1 7B010000 		.4byte	.LVL75-1
 3712 02e5 0100     		.2byte	0x1
 3713 02e7 52       		.byte	0x52
 3714 02e8 00000000 		.4byte	0
 3715 02ec 00000000 		.4byte	0
 3716              	.LLST18:
 3717 02f0 EC000000 		.4byte	.LVL58
 3718 02f4 08010000 		.4byte	.LVL59
 3719 02f8 0100     		.2byte	0x1
 3720 02fa 52       		.byte	0x52
 3721 02fb 08010000 		.4byte	.LVL59
 3722 02ff 16010000 		.4byte	.LVL60
 3723 0303 0700     		.2byte	0x7
 3724 0305 71       		.byte	0x71
 3725 0306 03       		.sleb128 3
 3726 0307 94       		.byte	0x94
 3727 0308 01       		.byte	0x1
 3728 0309 33       		.byte	0x33
 3729 030a 1A       		.byte	0x1a
 3730 030b 9F       		.byte	0x9f
 3731 030c 1C010000 		.4byte	.LVL61
 3732 0310 30010000 		.4byte	.LVL62
ARM GAS  C:\Users\Dan\AppData\Local\Temp\ccwiSTnc.s 			page 92


 3733 0314 0100     		.2byte	0x1
 3734 0316 52       		.byte	0x52
 3735 0317 30010000 		.4byte	.LVL62
 3736 031b 3E010000 		.4byte	.LVL63
 3737 031f 0700     		.2byte	0x7
 3738 0321 71       		.byte	0x71
 3739 0322 03       		.sleb128 3
 3740 0323 94       		.byte	0x94
 3741 0324 01       		.byte	0x1
 3742 0325 33       		.byte	0x33
 3743 0326 1A       		.byte	0x1a
 3744 0327 9F       		.byte	0x9f
 3745 0328 00000000 		.4byte	0
 3746 032c 00000000 		.4byte	0
 3747              	.LLST19:
 3748 0330 62000000 		.4byte	.LVL51
 3749 0334 64000000 		.4byte	.LVL52
 3750 0338 0100     		.2byte	0x1
 3751 033a 53       		.byte	0x53
 3752 033b 64000000 		.4byte	.LVL52
 3753 033f 86000000 		.4byte	.LVL55
 3754 0343 0200     		.2byte	0x2
 3755 0345 70       		.byte	0x70
 3756 0346 04       		.sleb128 4
 3757 0347 00000000 		.4byte	0
 3758 034b 00000000 		.4byte	0
 3759              	.LLST20:
 3760 034f 04000000 		.4byte	.LVL39
 3761 0353 86010000 		.4byte	.LVL77
 3762 0357 0200     		.2byte	0x2
 3763 0359 30       		.byte	0x30
 3764 035a 9F       		.byte	0x9f
 3765 035b 86010000 		.4byte	.LVL77
 3766 035f 98010000 		.4byte	.LVL78
 3767 0363 0100     		.2byte	0x1
 3768 0365 51       		.byte	0x51
 3769 0366 98010000 		.4byte	.LVL78
 3770 036a 9A010000 		.4byte	.LVL79
 3771 036e 0200     		.2byte	0x2
 3772 0370 74       		.byte	0x74
 3773 0371 06       		.sleb128 6
 3774 0372 9A010000 		.4byte	.LVL79
 3775 0376 A5010000 		.4byte	.LVL82-1
 3776 037a 0100     		.2byte	0x1
 3777 037c 51       		.byte	0x51
 3778 037d 00000000 		.4byte	0
 3779 0381 00000000 		.4byte	0
 3780              	.LLST21:
 3781 0385 60000000 		.4byte	.LVL50
 3782 0389 80000000 		.4byte	.LVL53
 3783 038d 0100     		.2byte	0x1
 3784 038f 50       		.byte	0x50
 3785 0390 80000000 		.4byte	.LVL53
 3786 0394 56010000 		.4byte	.LVL69
 3787 0398 0300     		.2byte	0x3
 3788 039a 70       		.byte	0x70
 3789 039b 08       		.sleb128 8
ARM GAS  C:\Users\Dan\AppData\Local\Temp\ccwiSTnc.s 			page 93


 3790 039c 9F       		.byte	0x9f
 3791 039d 00000000 		.4byte	0
 3792 03a1 00000000 		.4byte	0
 3793              	.LLST22:
 3794 03a5 88000000 		.4byte	.LVL56
 3795 03a9 50010000 		.4byte	.LVL68
 3796 03ad 0100     		.2byte	0x1
 3797 03af 51       		.byte	0x51
 3798 03b0 56010000 		.4byte	.LVL69
 3799 03b4 64010000 		.4byte	.LVL71
 3800 03b8 0100     		.2byte	0x1
 3801 03ba 50       		.byte	0x50
 3802 03bb 64010000 		.4byte	.LVL71
 3803 03bf 70010000 		.4byte	.LVL72
 3804 03c3 0300     		.2byte	0x3
 3805 03c5 70       		.byte	0x70
 3806 03c6 78       		.sleb128 -8
 3807 03c7 9F       		.byte	0x9f
 3808 03c8 70010000 		.4byte	.LVL72
 3809 03cc 7B010000 		.4byte	.LVL75-1
 3810 03d0 0100     		.2byte	0x1
 3811 03d2 50       		.byte	0x50
 3812 03d3 00000000 		.4byte	0
 3813 03d7 00000000 		.4byte	0
 3814              	.LLST23:
 3815 03db 00000000 		.4byte	.LVL83
 3816 03df 04000000 		.4byte	.LVL84
 3817 03e3 0100     		.2byte	0x1
 3818 03e5 50       		.byte	0x50
 3819 03e6 04000000 		.4byte	.LVL84
 3820 03ea 30000000 		.4byte	.LVL85
 3821 03ee 0100     		.2byte	0x1
 3822 03f0 50       		.byte	0x50
 3823 03f1 38000000 		.4byte	.LVL86
 3824 03f5 3A000000 		.4byte	.LVL87
 3825 03f9 0100     		.2byte	0x1
 3826 03fb 50       		.byte	0x50
 3827 03fc 00000000 		.4byte	0
 3828 0400 00000000 		.4byte	0
 3829              	.LLST24:
 3830 0404 02000000 		.4byte	.LVL88
 3831 0408 52000000 		.4byte	.LVL93
 3832 040c 0200     		.2byte	0x2
 3833 040e 30       		.byte	0x30
 3834 040f 9F       		.byte	0x9f
 3835 0410 52000000 		.4byte	.LVL93
 3836 0414 54000000 		.4byte	.LVL94
 3837 0418 0100     		.2byte	0x1
 3838 041a 50       		.byte	0x50
 3839 041b 54000000 		.4byte	.LVL94
 3840 041f 56000000 		.4byte	.LVL95
 3841 0423 0200     		.2byte	0x2
 3842 0425 30       		.byte	0x30
 3843 0426 9F       		.byte	0x9f
 3844 0427 56000000 		.4byte	.LVL95
 3845 042b 64000000 		.4byte	.LFE9
 3846 042f 0100     		.2byte	0x1
ARM GAS  C:\Users\Dan\AppData\Local\Temp\ccwiSTnc.s 			page 94


 3847 0431 50       		.byte	0x50
 3848 0432 00000000 		.4byte	0
 3849 0436 00000000 		.4byte	0
 3850              	.LLST25:
 3851 043a 0A000000 		.4byte	.LVL89
 3852 043e 3A000000 		.4byte	.LVL90
 3853 0442 0100     		.2byte	0x1
 3854 0444 53       		.byte	0x53
 3855 0445 44000000 		.4byte	.LVL91
 3856 0449 46000000 		.4byte	.LVL92
 3857 044d 0100     		.2byte	0x1
 3858 044f 53       		.byte	0x53
 3859 0450 54000000 		.4byte	.LVL94
 3860 0454 58000000 		.4byte	.LVL96
 3861 0458 0100     		.2byte	0x1
 3862 045a 53       		.byte	0x53
 3863 045b 00000000 		.4byte	0
 3864 045f 00000000 		.4byte	0
 3865              	.LLST26:
 3866 0463 00000000 		.4byte	.LVL97
 3867 0467 98000000 		.4byte	.LVL106
 3868 046b 0200     		.2byte	0x2
 3869 046d 30       		.byte	0x30
 3870 046e 9F       		.byte	0x9f
 3871 046f 98000000 		.4byte	.LVL106
 3872 0473 9A000000 		.4byte	.LVL107
 3873 0477 0100     		.2byte	0x1
 3874 0479 50       		.byte	0x50
 3875 047a 9A000000 		.4byte	.LVL107
 3876 047e AC000000 		.4byte	.LFE10
 3877 0482 0200     		.2byte	0x2
 3878 0484 30       		.byte	0x30
 3879 0485 9F       		.byte	0x9f
 3880 0486 00000000 		.4byte	0
 3881 048a 00000000 		.4byte	0
 3882              	.LLST27:
 3883 048e 08000000 		.4byte	.LVL98
 3884 0492 5C000000 		.4byte	.LVL99
 3885 0496 0100     		.2byte	0x1
 3886 0498 53       		.byte	0x53
 3887 0499 60000000 		.4byte	.LVL100
 3888 049d 62000000 		.4byte	.LVL101
 3889 04a1 0100     		.2byte	0x1
 3890 04a3 53       		.byte	0x53
 3891 04a4 6C000000 		.4byte	.LVL102
 3892 04a8 80000000 		.4byte	.LVL103
 3893 04ac 0100     		.2byte	0x1
 3894 04ae 53       		.byte	0x53
 3895 04af 8A000000 		.4byte	.LVL104
 3896 04b3 8C000000 		.4byte	.LVL105
 3897 04b7 0100     		.2byte	0x1
 3898 04b9 53       		.byte	0x53
 3899 04ba 9A000000 		.4byte	.LVL107
 3900 04be AC000000 		.4byte	.LFE10
 3901 04c2 0100     		.2byte	0x1
 3902 04c4 53       		.byte	0x53
 3903 04c5 00000000 		.4byte	0
ARM GAS  C:\Users\Dan\AppData\Local\Temp\ccwiSTnc.s 			page 95


 3904 04c9 00000000 		.4byte	0
 3905              	.LLST28:
 3906 04cd 02000000 		.4byte	.LVL108
 3907 04d1 32000000 		.4byte	.LVL113
 3908 04d5 0200     		.2byte	0x2
 3909 04d7 30       		.byte	0x30
 3910 04d8 9F       		.byte	0x9f
 3911 04d9 32000000 		.4byte	.LVL113
 3912 04dd 36000000 		.4byte	.LVL115
 3913 04e1 0200     		.2byte	0x2
 3914 04e3 31       		.byte	0x31
 3915 04e4 9F       		.byte	0x9f
 3916 04e5 36000000 		.4byte	.LVL115
 3917 04e9 38000000 		.4byte	.LVL116
 3918 04ed 0200     		.2byte	0x2
 3919 04ef 30       		.byte	0x30
 3920 04f0 9F       		.byte	0x9f
 3921 04f1 38000000 		.4byte	.LVL116
 3922 04f5 4C000000 		.4byte	.LFE11
 3923 04f9 0100     		.2byte	0x1
 3924 04fb 50       		.byte	0x50
 3925 04fc 00000000 		.4byte	0
 3926 0500 00000000 		.4byte	0
 3927              	.LLST29:
 3928 0504 08000000 		.4byte	.LVL109
 3929 0508 3A000000 		.4byte	.LVL117
 3930 050c 0100     		.2byte	0x1
 3931 050e 54       		.byte	0x54
 3932 050f 00000000 		.4byte	0
 3933 0513 00000000 		.4byte	0
 3934              	.LLST30:
 3935 0517 18000000 		.4byte	.LVL111
 3936 051b 24000000 		.4byte	.LVL112
 3937 051f 0100     		.2byte	0x1
 3938 0521 53       		.byte	0x53
 3939 0522 24000000 		.4byte	.LVL112
 3940 0526 34000000 		.4byte	.LVL114
 3941 052a 0500     		.2byte	0x5
 3942 052c 70       		.byte	0x70
 3943 052d 04       		.sleb128 4
 3944 052e 06       		.byte	0x6
 3945 052f 23       		.byte	0x23
 3946 0530 04       		.uleb128 0x4
 3947 0531 36000000 		.4byte	.LVL115
 3948 0535 4C000000 		.4byte	.LFE11
 3949 0539 0100     		.2byte	0x1
 3950 053b 53       		.byte	0x53
 3951 053c 00000000 		.4byte	0
 3952 0540 00000000 		.4byte	0
 3953              	.LLST31:
 3954 0544 14000000 		.4byte	.LVL110
 3955 0548 34000000 		.4byte	.LVL114
 3956 054c 0100     		.2byte	0x1
 3957 054e 50       		.byte	0x50
 3958 054f 36000000 		.4byte	.LVL115
 3959 0553 38000000 		.4byte	.LVL116
 3960 0557 0100     		.2byte	0x1
ARM GAS  C:\Users\Dan\AppData\Local\Temp\ccwiSTnc.s 			page 96


 3961 0559 50       		.byte	0x50
 3962 055a 00000000 		.4byte	0
 3963 055e 00000000 		.4byte	0
 3964              	.LLST32:
 3965 0562 02000000 		.4byte	.LVL118
 3966 0566 58000000 		.4byte	.LVL122
 3967 056a 0200     		.2byte	0x2
 3968 056c 30       		.byte	0x30
 3969 056d 9F       		.byte	0x9f
 3970 056e 58000000 		.4byte	.LVL122
 3971 0572 5A000000 		.4byte	.LVL123
 3972 0576 0100     		.2byte	0x1
 3973 0578 50       		.byte	0x50
 3974 0579 5A000000 		.4byte	.LVL123
 3975 057d 8A000000 		.4byte	.LVL125
 3976 0581 0200     		.2byte	0x2
 3977 0583 30       		.byte	0x30
 3978 0584 9F       		.byte	0x9f
 3979 0585 8A000000 		.4byte	.LVL125
 3980 0589 8C000000 		.4byte	.LVL126
 3981 058d 0100     		.2byte	0x1
 3982 058f 50       		.byte	0x50
 3983 0590 8C000000 		.4byte	.LVL126
 3984 0594 E8000000 		.4byte	.LVL136
 3985 0598 0200     		.2byte	0x2
 3986 059a 30       		.byte	0x30
 3987 059b 9F       		.byte	0x9f
 3988 059c E8000000 		.4byte	.LVL136
 3989 05a0 EA000000 		.4byte	.LVL137
 3990 05a4 0100     		.2byte	0x1
 3991 05a6 50       		.byte	0x50
 3992 05a7 EA000000 		.4byte	.LVL137
 3993 05ab EE000000 		.4byte	.LVL138
 3994 05af 0200     		.2byte	0x2
 3995 05b1 30       		.byte	0x30
 3996 05b2 9F       		.byte	0x9f
 3997 05b3 EE000000 		.4byte	.LVL138
 3998 05b7 F0000000 		.4byte	.LVL139
 3999 05bb 0100     		.2byte	0x1
 4000 05bd 50       		.byte	0x50
 4001 05be F0000000 		.4byte	.LVL139
 4002 05c2 24010000 		.4byte	.LVL141
 4003 05c6 0200     		.2byte	0x2
 4004 05c8 30       		.byte	0x30
 4005 05c9 9F       		.byte	0x9f
 4006 05ca 24010000 		.4byte	.LVL141
 4007 05ce 26010000 		.4byte	.LVL142
 4008 05d2 0100     		.2byte	0x1
 4009 05d4 50       		.byte	0x50
 4010 05d5 26010000 		.4byte	.LVL142
 4011 05d9 40010000 		.4byte	.LVL143
 4012 05dd 0200     		.2byte	0x2
 4013 05df 30       		.byte	0x30
 4014 05e0 9F       		.byte	0x9f
 4015 05e1 40010000 		.4byte	.LVL143
 4016 05e5 42010000 		.4byte	.LVL144
 4017 05e9 0100     		.2byte	0x1
ARM GAS  C:\Users\Dan\AppData\Local\Temp\ccwiSTnc.s 			page 97


 4018 05eb 50       		.byte	0x50
 4019 05ec 42010000 		.4byte	.LVL144
 4020 05f0 50010000 		.4byte	.LVL146
 4021 05f4 0200     		.2byte	0x2
 4022 05f6 30       		.byte	0x30
 4023 05f7 9F       		.byte	0x9f
 4024 05f8 50010000 		.4byte	.LVL146
 4025 05fc 52010000 		.4byte	.LVL147
 4026 0600 0100     		.2byte	0x1
 4027 0602 50       		.byte	0x50
 4028 0603 52010000 		.4byte	.LVL147
 4029 0607 66010000 		.4byte	.LVL149
 4030 060b 0200     		.2byte	0x2
 4031 060d 30       		.byte	0x30
 4032 060e 9F       		.byte	0x9f
 4033 060f 66010000 		.4byte	.LVL149
 4034 0613 68010000 		.4byte	.LVL150
 4035 0617 0100     		.2byte	0x1
 4036 0619 50       		.byte	0x50
 4037 061a 68010000 		.4byte	.LVL150
 4038 061e 9C010000 		.4byte	.LVL152
 4039 0622 0200     		.2byte	0x2
 4040 0624 30       		.byte	0x30
 4041 0625 9F       		.byte	0x9f
 4042 0626 9C010000 		.4byte	.LVL152
 4043 062a 9E010000 		.4byte	.LVL153
 4044 062e 0100     		.2byte	0x1
 4045 0630 50       		.byte	0x50
 4046 0631 9E010000 		.4byte	.LVL153
 4047 0635 D6010000 		.4byte	.LVL159
 4048 0639 0200     		.2byte	0x2
 4049 063b 30       		.byte	0x30
 4050 063c 9F       		.byte	0x9f
 4051 063d D6010000 		.4byte	.LVL159
 4052 0641 D8010000 		.4byte	.LVL160
 4053 0645 0100     		.2byte	0x1
 4054 0647 50       		.byte	0x50
 4055 0648 D8010000 		.4byte	.LVL160
 4056 064c 0E020000 		.4byte	.LVL165
 4057 0650 0200     		.2byte	0x2
 4058 0652 30       		.byte	0x30
 4059 0653 9F       		.byte	0x9f
 4060 0654 0E020000 		.4byte	.LVL165
 4061 0658 10020000 		.4byte	.LVL166
 4062 065c 0100     		.2byte	0x1
 4063 065e 50       		.byte	0x50
 4064 065f 10020000 		.4byte	.LVL166
 4065 0663 2C020000 		.4byte	.LVL168
 4066 0667 0200     		.2byte	0x2
 4067 0669 30       		.byte	0x30
 4068 066a 9F       		.byte	0x9f
 4069 066b 2C020000 		.4byte	.LVL168
 4070 066f 2E020000 		.4byte	.LVL169
 4071 0673 0100     		.2byte	0x1
 4072 0675 50       		.byte	0x50
 4073 0676 2E020000 		.4byte	.LVL169
 4074 067a 46020000 		.4byte	.LVL170
ARM GAS  C:\Users\Dan\AppData\Local\Temp\ccwiSTnc.s 			page 98


 4075 067e 0200     		.2byte	0x2
 4076 0680 30       		.byte	0x30
 4077 0681 9F       		.byte	0x9f
 4078 0682 46020000 		.4byte	.LVL170
 4079 0686 48020000 		.4byte	.LVL171
 4080 068a 0100     		.2byte	0x1
 4081 068c 50       		.byte	0x50
 4082 068d 48020000 		.4byte	.LVL171
 4083 0691 68020000 		.4byte	.LVL172
 4084 0695 0200     		.2byte	0x2
 4085 0697 30       		.byte	0x30
 4086 0698 9F       		.byte	0x9f
 4087 0699 68020000 		.4byte	.LVL172
 4088 069d A8020000 		.4byte	.LVL173
 4089 06a1 0100     		.2byte	0x1
 4090 06a3 50       		.byte	0x50
 4091 06a4 A8020000 		.4byte	.LVL173
 4092 06a8 C4020000 		.4byte	.LVL175
 4093 06ac 0200     		.2byte	0x2
 4094 06ae 30       		.byte	0x30
 4095 06af 9F       		.byte	0x9f
 4096 06b0 C4020000 		.4byte	.LVL175
 4097 06b4 C6020000 		.4byte	.LVL176
 4098 06b8 0100     		.2byte	0x1
 4099 06ba 50       		.byte	0x50
 4100 06bb C6020000 		.4byte	.LVL176
 4101 06bf DE020000 		.4byte	.LVL177
 4102 06c3 0200     		.2byte	0x2
 4103 06c5 30       		.byte	0x30
 4104 06c6 9F       		.byte	0x9f
 4105 06c7 DE020000 		.4byte	.LVL177
 4106 06cb E0020000 		.4byte	.LVL178
 4107 06cf 0100     		.2byte	0x1
 4108 06d1 50       		.byte	0x50
 4109 06d2 E0020000 		.4byte	.LVL178
 4110 06d6 00030000 		.4byte	.LVL179
 4111 06da 0200     		.2byte	0x2
 4112 06dc 30       		.byte	0x30
 4113 06dd 9F       		.byte	0x9f
 4114 06de 00030000 		.4byte	.LVL179
 4115 06e2 02030000 		.4byte	.LVL180
 4116 06e6 0100     		.2byte	0x1
 4117 06e8 50       		.byte	0x50
 4118 06e9 02030000 		.4byte	.LVL180
 4119 06ed 3C030000 		.4byte	.LVL188
 4120 06f1 0200     		.2byte	0x2
 4121 06f3 30       		.byte	0x30
 4122 06f4 9F       		.byte	0x9f
 4123 06f5 3C030000 		.4byte	.LVL188
 4124 06f9 4C030000 		.4byte	.LFE0
 4125 06fd 0100     		.2byte	0x1
 4126 06ff 50       		.byte	0x50
 4127 0700 00000000 		.4byte	0
 4128 0704 00000000 		.4byte	0
 4129              	.LLST33:
 4130 0708 E8010000 		.4byte	.LVL162
 4131 070c FA010000 		.4byte	.LVL163
ARM GAS  C:\Users\Dan\AppData\Local\Temp\ccwiSTnc.s 			page 99


 4132 0710 0100     		.2byte	0x1
 4133 0712 53       		.byte	0x53
 4134 0713 00000000 		.4byte	0
 4135 0717 00000000 		.4byte	0
 4136              	.LLST34:
 4137 071b A2010000 		.4byte	.LVL155
 4138 071f AF010000 		.4byte	.LVL156-1
 4139 0723 0100     		.2byte	0x1
 4140 0725 53       		.byte	0x53
 4141 0726 00000000 		.4byte	0
 4142 072a 00000000 		.4byte	0
 4143              	.LLST35:
 4144 072e 08000000 		.4byte	.LVL119
 4145 0732 3E000000 		.4byte	.LVL120
 4146 0736 0100     		.2byte	0x1
 4147 0738 53       		.byte	0x53
 4148 0739 F0000000 		.4byte	.LVL139
 4149 073d F4000000 		.4byte	.LVL140
 4150 0741 0100     		.2byte	0x1
 4151 0743 53       		.byte	0x53
 4152 0744 42010000 		.4byte	.LVL144
 4153 0748 44010000 		.4byte	.LVL145
 4154 074c 0100     		.2byte	0x1
 4155 074e 53       		.byte	0x53
 4156 074f 52010000 		.4byte	.LVL147
 4157 0753 56010000 		.4byte	.LVL148
 4158 0757 0100     		.2byte	0x1
 4159 0759 53       		.byte	0x53
 4160 075a 68010000 		.4byte	.LVL150
 4161 075e 90010000 		.4byte	.LVL151
 4162 0762 0100     		.2byte	0x1
 4163 0764 53       		.byte	0x53
 4164 0765 9E010000 		.4byte	.LVL153
 4165 0769 A0010000 		.4byte	.LVL154
 4166 076d 0100     		.2byte	0x1
 4167 076f 53       		.byte	0x53
 4168 0770 D8010000 		.4byte	.LVL160
 4169 0774 DB010000 		.4byte	.LVL161-1
 4170 0778 0100     		.2byte	0x1
 4171 077a 53       		.byte	0x53
 4172 077b 10020000 		.4byte	.LVL166
 4173 077f 14020000 		.4byte	.LVL167
 4174 0783 0100     		.2byte	0x1
 4175 0785 53       		.byte	0x53
 4176 0786 A8020000 		.4byte	.LVL173
 4177 078a AC020000 		.4byte	.LVL174
 4178 078e 0100     		.2byte	0x1
 4179 0790 53       		.byte	0x53
 4180 0791 02030000 		.4byte	.LVL180
 4181 0795 06030000 		.4byte	.LVL181
 4182 0799 0100     		.2byte	0x1
 4183 079b 53       		.byte	0x53
 4184 079c 12030000 		.4byte	.LVL185
 4185 07a0 16030000 		.4byte	.LVL186
 4186 07a4 0100     		.2byte	0x1
 4187 07a6 53       		.byte	0x53
 4188 07a7 00000000 		.4byte	0
ARM GAS  C:\Users\Dan\AppData\Local\Temp\ccwiSTnc.s 			page 100


 4189 07ab 00000000 		.4byte	0
 4190              	.LLST36:
 4191 07af 08000000 		.4byte	.LVL119
 4192 07b3 98000000 		.4byte	.LVL127
 4193 07b7 0200     		.2byte	0x2
 4194 07b9 30       		.byte	0x30
 4195 07ba 9F       		.byte	0x9f
 4196 07bb 98000000 		.4byte	.LVL127
 4197 07bf A2000000 		.4byte	.LVL132
 4198 07c3 0100     		.2byte	0x1
 4199 07c5 51       		.byte	0x51
 4200 07c6 A2000000 		.4byte	.LVL132
 4201 07ca A6000000 		.4byte	.LVL133
 4202 07ce 0200     		.2byte	0x2
 4203 07d0 30       		.byte	0x30
 4204 07d1 9F       		.byte	0x9f
 4205 07d2 A6000000 		.4byte	.LVL133
 4206 07d6 E7000000 		.4byte	.LVL136-1
 4207 07da 0100     		.2byte	0x1
 4208 07dc 51       		.byte	0x51
 4209 07dd EA000000 		.4byte	.LVL137
 4210 07e1 0A030000 		.4byte	.LVL183
 4211 07e5 0200     		.2byte	0x2
 4212 07e7 30       		.byte	0x30
 4213 07e8 9F       		.byte	0x9f
 4214 07e9 0A030000 		.4byte	.LVL183
 4215 07ed 0E030000 		.4byte	.LVL184
 4216 07f1 0100     		.2byte	0x1
 4217 07f3 51       		.byte	0x51
 4218 07f4 0E030000 		.4byte	.LVL184
 4219 07f8 4C030000 		.4byte	.LFE0
 4220 07fc 0200     		.2byte	0x2
 4221 07fe 30       		.byte	0x30
 4222 07ff 9F       		.byte	0x9f
 4223 0800 00000000 		.4byte	0
 4224 0804 00000000 		.4byte	0
 4225              	.LLST37:
 4226 0808 98000000 		.4byte	.LVL127
 4227 080c 9E000000 		.4byte	.LVL130
 4228 0810 0100     		.2byte	0x1
 4229 0812 53       		.byte	0x53
 4230 0813 A0000000 		.4byte	.LVL131
 4231 0817 A2000000 		.4byte	.LVL132
 4232 081b 0100     		.2byte	0x1
 4233 081d 53       		.byte	0x53
 4234 081e A6000000 		.4byte	.LVL133
 4235 0822 BA000000 		.4byte	.LVL134
 4236 0826 0100     		.2byte	0x1
 4237 0828 53       		.byte	0x53
 4238 0829 00000000 		.4byte	0
 4239 082d 00000000 		.4byte	0
 4240              	.LLST38:
 4241 0831 9A000000 		.4byte	.LVL128
 4242 0835 A2000000 		.4byte	.LVL132
 4243 0839 0100     		.2byte	0x1
 4244 083b 52       		.byte	0x52
 4245 083c 00000000 		.4byte	0
ARM GAS  C:\Users\Dan\AppData\Local\Temp\ccwiSTnc.s 			page 101


 4246 0840 00000000 		.4byte	0
 4247              	.LLST39:
 4248 0844 4A000000 		.4byte	.LVL121
 4249 0848 57000000 		.4byte	.LVL122-1
 4250 084c 0100     		.2byte	0x1
 4251 084e 50       		.byte	0x50
 4252 084f 6C000000 		.4byte	.LVL124
 4253 0853 89000000 		.4byte	.LVL125-1
 4254 0857 0100     		.2byte	0x1
 4255 0859 50       		.byte	0x50
 4256 085a B0010000 		.4byte	.LVL156
 4257 085e CA010000 		.4byte	.LVL157
 4258 0862 0100     		.2byte	0x1
 4259 0864 50       		.byte	0x50
 4260 0865 06030000 		.4byte	.LVL181
 4261 0869 08030000 		.4byte	.LVL182
 4262 086d 0100     		.2byte	0x1
 4263 086f 50       		.byte	0x50
 4264 0870 16030000 		.4byte	.LVL186
 4265 0874 18030000 		.4byte	.LVL187
 4266 0878 0100     		.2byte	0x1
 4267 087a 50       		.byte	0x50
 4268 087b 00000000 		.4byte	0
 4269 087f 00000000 		.4byte	0
 4270              		.section	.debug_aranges,"",%progbits
 4271 0000 74000000 		.4byte	0x74
 4272 0004 0200     		.2byte	0x2
 4273 0006 00000000 		.4byte	.Ldebug_info0
 4274 000a 04       		.byte	0x4
 4275 000b 00       		.byte	0
 4276 000c 0000     		.2byte	0
 4277 000e 0000     		.2byte	0
 4278 0010 00000000 		.4byte	.LFB1
 4279 0014 A4000000 		.4byte	.LFE1-.LFB1
 4280 0018 00000000 		.4byte	.LFB2
 4281 001c 44000000 		.4byte	.LFE2-.LFB2
 4282 0020 00000000 		.4byte	.LFB5
 4283 0024 28000000 		.4byte	.LFE5-.LFB5
 4284 0028 00000000 		.4byte	.LFB4
 4285 002c 1C010000 		.4byte	.LFE4-.LFB4
 4286 0030 00000000 		.4byte	.LFB6
 4287 0034 18000000 		.4byte	.LFE6-.LFB6
 4288 0038 00000000 		.4byte	.LFB7
 4289 003c 28000000 		.4byte	.LFE7-.LFB7
 4290 0040 00000000 		.4byte	.LFB3
 4291 0044 C4010000 		.4byte	.LFE3-.LFB3
 4292 0048 00000000 		.4byte	.LFB8
 4293 004c 4C000000 		.4byte	.LFE8-.LFB8
 4294 0050 00000000 		.4byte	.LFB9
 4295 0054 64000000 		.4byte	.LFE9-.LFB9
 4296 0058 00000000 		.4byte	.LFB10
 4297 005c AC000000 		.4byte	.LFE10-.LFB10
 4298 0060 00000000 		.4byte	.LFB11
 4299 0064 4C000000 		.4byte	.LFE11-.LFB11
 4300 0068 00000000 		.4byte	.LFB0
 4301 006c 4C030000 		.4byte	.LFE0-.LFB0
 4302 0070 00000000 		.4byte	0
ARM GAS  C:\Users\Dan\AppData\Local\Temp\ccwiSTnc.s 			page 102


 4303 0074 00000000 		.4byte	0
 4304              		.section	.debug_ranges,"",%progbits
 4305              	.Ldebug_ranges0:
 4306 0000 00000000 		.4byte	.LFB1
 4307 0004 A4000000 		.4byte	.LFE1
 4308 0008 00000000 		.4byte	.LFB2
 4309 000c 44000000 		.4byte	.LFE2
 4310 0010 00000000 		.4byte	.LFB5
 4311 0014 28000000 		.4byte	.LFE5
 4312 0018 00000000 		.4byte	.LFB4
 4313 001c 1C010000 		.4byte	.LFE4
 4314 0020 00000000 		.4byte	.LFB6
 4315 0024 18000000 		.4byte	.LFE6
 4316 0028 00000000 		.4byte	.LFB7
 4317 002c 28000000 		.4byte	.LFE7
 4318 0030 00000000 		.4byte	.LFB3
 4319 0034 C4010000 		.4byte	.LFE3
 4320 0038 00000000 		.4byte	.LFB8
 4321 003c 4C000000 		.4byte	.LFE8
 4322 0040 00000000 		.4byte	.LFB9
 4323 0044 64000000 		.4byte	.LFE9
 4324 0048 00000000 		.4byte	.LFB10
 4325 004c AC000000 		.4byte	.LFE10
 4326 0050 00000000 		.4byte	.LFB11
 4327 0054 4C000000 		.4byte	.LFE11
 4328 0058 00000000 		.4byte	.LFB0
 4329 005c 4C030000 		.4byte	.LFE0
 4330 0060 00000000 		.4byte	0
 4331 0064 00000000 		.4byte	0
 4332              		.section	.debug_line,"",%progbits
 4333              	.Ldebug_line0:
 4334 0000 71030000 		.section	.debug_str,"MS",%progbits,1
 4334      02006000 
 4334      00000201 
 4334      FB0E0D00 
 4334      01010101 
 4335              	.LASF36:
 4336 0000 70537461 		.ascii	"pStatusBlock\000"
 4336      74757342 
 4336      6C6F636B 
 4336      00
 4337              	.LASF34:
 4338 000d 636F756E 		.ascii	"count\000"
 4338      7400
 4339              	.LASF10:
 4340 0013 75696E74 		.ascii	"uint16\000"
 4340      313600
 4341              	.LASF76:
 4342 001a 55534246 		.ascii	"USBFS_TerminateEP\000"
 4342      535F5465 
 4342      726D696E 
 4342      61746545 
 4342      5000
 4343              	.LASF106:
 4344 002c 55534246 		.ascii	"USBFS_currentTD\000"
 4344      535F6375 
 4344      7272656E 
ARM GAS  C:\Users\Dan\AppData\Local\Temp\ccwiSTnc.s 			page 103


 4344      74544400 
 4345              	.LASF108:
 4346 003c 55534246 		.ascii	"USBFS_InitControlRead\000"
 4346      535F496E 
 4346      6974436F 
 4346      6E74726F 
 4346      6C526561 
 4347              	.LASF72:
 4348 0052 636F6E66 		.ascii	"confIndex\000"
 4348      496E6465 
 4348      7800
 4349              	.LASF7:
 4350 005c 6C6F6E67 		.ascii	"long long unsigned int\000"
 4350      206C6F6E 
 4350      6720756E 
 4350      7369676E 
 4350      65642069 
 4351              	.LASF21:
 4352 0073 61646472 		.ascii	"addr\000"
 4352      00
 4353              	.LASF41:
 4354 0078 55534246 		.ascii	"USBFS_ep0_data_struct\000"
 4354      535F6570 
 4354      305F6461 
 4354      74615F73 
 4354      74727563 
 4355              	.LASF46:
 4356 008e 65704366 		.ascii	"epCfg\000"
 4356      6700
 4357              	.LASF57:
 4358 0094 55534246 		.ascii	"USBFS_sie_eps_struct\000"
 4358      535F7369 
 4358      655F6570 
 4358      735F7374 
 4358      72756374 
 4359              	.LASF59:
 4360 00a9 55534246 		.ascii	"USBFS_arb_eps_struct\000"
 4360      535F6172 
 4360      625F6570 
 4360      735F7374 
 4360      72756374 
 4361              	.LASF77:
 4362 00be 65704E75 		.ascii	"epNumber\000"
 4362      6D626572 
 4362      00
 4363              	.LASF6:
 4364 00c7 6C6F6E67 		.ascii	"long long int\000"
 4364      206C6F6E 
 4364      6720696E 
 4364      7400
 4365              	.LASF0:
 4366 00d5 7369676E 		.ascii	"signed char\000"
 4366      65642063 
 4366      68617200 
 4367              	.LASF90:
 4368 00e1 55534246 		.ascii	"USBFS_tBuffer\000"
 4368      535F7442 
ARM GAS  C:\Users\Dan\AppData\Local\Temp\ccwiSTnc.s 			page 104


 4368      75666665 
 4368      7200
 4369              	.LASF73:
 4370 00ef 636C6561 		.ascii	"clearAltSetting\000"
 4370      72416C74 
 4370      53657474 
 4370      696E6700 
 4371              	.LASF102:
 4372 00ff 55534246 		.ascii	"USBFS_deviceAddress\000"
 4372      535F6465 
 4372      76696365 
 4372      41646472 
 4372      65737300 
 4373              	.LASF80:
 4374 0113 55534246 		.ascii	"USBFS_ClearEndpointHalt\000"
 4374      535F436C 
 4374      65617245 
 4374      6E64706F 
 4374      696E7448 
 4375              	.LASF99:
 4376 012b 55534246 		.ascii	"USBFS_interfaceNumber\000"
 4376      535F696E 
 4376      74657266 
 4376      6163654E 
 4376      756D6265 
 4377              	.LASF71:
 4378 0141 55534246 		.ascii	"USBFS_Config\000"
 4378      535F436F 
 4378      6E666967 
 4378      00
 4379              	.LASF55:
 4380 014e 55534246 		.ascii	"USBFS_arb_ep_struct\000"
 4380      535F6172 
 4380      625F6570 
 4380      5F737472 
 4380      75637400 
 4381              	.LASF60:
 4382 0162 55534246 		.ascii	"USBFS_ConfigReg\000"
 4382      535F436F 
 4382      6E666967 
 4382      52656700 
 4383              	.LASF4:
 4384 0172 6C6F6E67 		.ascii	"long int\000"
 4384      20696E74 
 4384      00
 4385              	.LASF9:
 4386 017b 75696E74 		.ascii	"uint8\000"
 4386      3800
 4387              	.LASF20:
 4388 0181 6570546F 		.ascii	"epToggle\000"
 4388      67676C65 
 4388      00
 4389              	.LASF50:
 4390 018a 72775761 		.ascii	"rwWa\000"
 4390      00
 4391              	.LASF12:
 4392 018f 646F7562 		.ascii	"double\000"
ARM GAS  C:\Users\Dan\AppData\Local\Temp\ccwiSTnc.s 			page 105


 4392      6C6500
 4393              	.LASF48:
 4394 0196 65705372 		.ascii	"epSr\000"
 4394      00
 4395              	.LASF30:
 4396 019b 545F5553 		.ascii	"T_USBFS_EP_SETTINGS_BLOCK\000"
 4396      4246535F 
 4396      45505F53 
 4396      45545449 
 4396      4E47535F 
 4397              	.LASF78:
 4398 01b5 55534246 		.ascii	"USBFS_SetEndpointHalt\000"
 4398      535F5365 
 4398      74456E64 
 4398      706F696E 
 4398      7448616C 
 4399              	.LASF35:
 4400 01cb 70446174 		.ascii	"pData\000"
 4400      6100
 4401              	.LASF56:
 4402 01d1 73696545 		.ascii	"sieEp\000"
 4402      7000
 4403              	.LASF22:
 4404 01d7 65704D6F 		.ascii	"epMode\000"
 4404      646500
 4405              	.LASF65:
 4406 01de 65705479 		.ascii	"epType\000"
 4406      706500
 4407              	.LASF86:
 4408 01e5 626D5265 		.ascii	"bmRequestType\000"
 4408      71756573 
 4408      74547970 
 4408      6500
 4409              	.LASF49:
 4410 01f3 72657365 		.ascii	"reserved\000"
 4410      72766564 
 4410      00
 4411              	.LASF8:
 4412 01fc 756E7369 		.ascii	"unsigned int\000"
 4412      676E6564 
 4412      20696E74 
 4412      00
 4413              	.LASF5:
 4414 0209 6C6F6E67 		.ascii	"long unsigned int\000"
 4414      20756E73 
 4414      69676E65 
 4414      6420696E 
 4414      7400
 4415              	.LASF68:
 4416 021b 55534246 		.ascii	"USBFS_GetInterfaceClassTablePtr\000"
 4416      535F4765 
 4416      74496E74 
 4416      65726661 
 4416      6365436C 
 4417              	.LASF111:
 4418 023b 47656E65 		.ascii	"Generated_Source\\PSoC5\\USBFS_std.c\000"
 4418      72617465 
ARM GAS  C:\Users\Dan\AppData\Local\Temp\ccwiSTnc.s 			page 106


 4418      645F536F 
 4418      75726365 
 4418      5C50536F 
 4419              	.LASF3:
 4420 025e 73686F72 		.ascii	"short unsigned int\000"
 4420      7420756E 
 4420      7369676E 
 4420      65642069 
 4420      6E7400
 4421              	.LASF74:
 4422 0271 70446573 		.ascii	"pDescr\000"
 4422      637200
 4423              	.LASF45:
 4424 0278 55534246 		.ascii	"USBFS_sie_ep_struct\000"
 4424      535F7369 
 4424      655F6570 
 4424      5F737472 
 4424      75637400 
 4425              	.LASF69:
 4426 028c 70496E74 		.ascii	"pInterfaceClass\000"
 4426      65726661 
 4426      6365436C 
 4426      61737300 
 4427              	.LASF58:
 4428 029c 61726245 		.ascii	"arbEp\000"
 4428      7000
 4429              	.LASF25:
 4430 02a2 696E7465 		.ascii	"interface\000"
 4430      72666163 
 4430      6500
 4431              	.LASF92:
 4432 02ac 55534246 		.ascii	"USBFS_configuration\000"
 4432      535F636F 
 4432      6E666967 
 4432      75726174 
 4432      696F6E00 
 4433              	.LASF81:
 4434 02c0 55534246 		.ascii	"USBFS_ValidateAlternateSetting\000"
 4434      535F5661 
 4434      6C696461 
 4434      7465416C 
 4434      7465726E 
 4435              	.LASF93:
 4436 02df 55534246 		.ascii	"USBFS_configurationChanged\000"
 4436      535F636F 
 4436      6E666967 
 4436      75726174 
 4436      696F6E43 
 4437              	.LASF104:
 4438 02fa 55534246 		.ascii	"USBFS_interfaceClass\000"
 4438      535F696E 
 4438      74657266 
 4438      61636543 
 4438      6C617373 
 4439              	.LASF64:
 4440 030f 63757245 		.ascii	"curEp\000"
 4440      7000
ARM GAS  C:\Users\Dan\AppData\Local\Temp\ccwiSTnc.s 			page 107


 4441              	.LASF19:
 4442 0315 68774570 		.ascii	"hwEpState\000"
 4442      53746174 
 4442      6500
 4443              	.LASF89:
 4444 031f 64657363 		.ascii	"descrLength\000"
 4444      724C656E 
 4444      67746800 
 4445              	.LASF16:
 4446 032b 73697A65 		.ascii	"sizetype\000"
 4446      74797065 
 4446      00
 4447              	.LASF15:
 4448 0334 6C6F6E67 		.ascii	"long double\000"
 4448      20646F75 
 4448      626C6500 
 4449              	.LASF62:
 4450 0340 70546D70 		.ascii	"pTmp\000"
 4450      00
 4451              	.LASF38:
 4452 0345 705F6C69 		.ascii	"p_list\000"
 4452      737400
 4453              	.LASF75:
 4454 034c 62756666 		.ascii	"buffCount\000"
 4454      436F756E 
 4454      7400
 4455              	.LASF17:
 4456 0356 61747472 		.ascii	"attrib\000"
 4456      696200
 4457              	.LASF96:
 4458 035d 55534246 		.ascii	"USBFS_TABLE\000"
 4458      535F5441 
 4458      424C4500 
 4459              	.LASF97:
 4460 0369 55534246 		.ascii	"USBFS_SN_STRING_DESCRIPTOR\000"
 4460      535F534E 
 4460      5F535452 
 4460      494E475F 
 4460      44455343 
 4461              	.LASF53:
 4462 0384 72775261 		.ascii	"rwRaMsb\000"
 4462      4D736200 
 4463              	.LASF42:
 4464 038c 6570436E 		.ascii	"epCnt0\000"
 4464      743000
 4465              	.LASF43:
 4466 0393 6570436E 		.ascii	"epCnt1\000"
 4466      743100
 4467              	.LASF63:
 4468 039a 55534246 		.ascii	"USBFS_ConfigAltChanged\000"
 4468      535F436F 
 4468      6E666967 
 4468      416C7443 
 4468      68616E67 
 4469              	.LASF33:
 4470 03b1 545F5553 		.ascii	"T_USBFS_XFER_STATUS_BLOCK\000"
 4470      4246535F 
ARM GAS  C:\Users\Dan\AppData\Local\Temp\ccwiSTnc.s 			page 108


 4470      58464552 
 4470      5F535441 
 4470      5455535F 
 4471              	.LASF44:
 4472 03cb 65704372 		.ascii	"epCr0\000"
 4472      3000
 4473              	.LASF66:
 4474 03d1 696E7465 		.ascii	"interfaceNum\000"
 4474      72666163 
 4474      654E756D 
 4474      00
 4475              	.LASF95:
 4476 03de 55534246 		.ascii	"USBFS_DEVICE0_DESCR\000"
 4476      535F4445 
 4476      56494345 
 4476      305F4445 
 4476      53435200 
 4477              	.LASF11:
 4478 03f2 666C6F61 		.ascii	"float\000"
 4478      7400
 4479              	.LASF98:
 4480 03f8 55534246 		.ascii	"USBFS_STRING_DESCRIPTORS\000"
 4480      535F5354 
 4480      52494E47 
 4480      5F444553 
 4480      43524950 
 4481              	.LASF18:
 4482 0411 61706945 		.ascii	"apiEpState\000"
 4482      70537461 
 4482      746500
 4483              	.LASF85:
 4484 041c 636F6E66 		.ascii	"configurationN\000"
 4484      69677572 
 4484      6174696F 
 4484      6E4E00
 4485              	.LASF105:
 4486 042b 55534246 		.ascii	"USBFS_EP\000"
 4486      535F4550 
 4486      00
 4487              	.LASF87:
 4488 0434 70537472 		.ascii	"pStr\000"
 4488      00
 4489              	.LASF14:
 4490 0439 72656738 		.ascii	"reg8\000"
 4490      00
 4491              	.LASF1:
 4492 043e 756E7369 		.ascii	"unsigned char\000"
 4492      676E6564 
 4492      20636861 
 4492      7200
 4493              	.LASF61:
 4494 044c 55534246 		.ascii	"USBFS_EpStateInit\000"
 4494      535F4570 
 4494      53746174 
 4494      65496E69 
 4494      7400
 4495              	.LASF100:
ARM GAS  C:\Users\Dan\AppData\Local\Temp\ccwiSTnc.s 			page 109


 4496 045e 55534246 		.ascii	"USBFS_interfaceSetting\000"
 4496      535F696E 
 4496      74657266 
 4496      61636553 
 4496      65747469 
 4497              	.LASF2:
 4498 0475 73686F72 		.ascii	"short int\000"
 4498      7420696E 
 4498      7400
 4499              	.LASF37:
 4500 047f 545F5553 		.ascii	"T_USBFS_TD\000"
 4500      4246535F 
 4500      544400
 4501              	.LASF67:
 4502 048a 55534246 		.ascii	"USBFS_GetConfigTablePtr\000"
 4502      535F4765 
 4502      74436F6E 
 4502      66696754 
 4502      61626C65 
 4503              	.LASF52:
 4504 04a2 72775261 		.ascii	"rwRa\000"
 4504      00
 4505              	.LASF110:
 4506 04a7 474E5520 		.ascii	"GNU C11 5.4.1 20160609 (release) [ARM/embedded-5-br"
 4506      43313120 
 4506      352E342E 
 4506      31203230 
 4506      31363036 
 4507 04da 616E6368 		.ascii	"anch revision 237715] -mcpu=cortex-m3 -mthumb -g -O"
 4507      20726576 
 4507      6973696F 
 4507      6E203233 
 4507      37373135 
 4508 050d 67202D66 		.ascii	"g -ffunction-sections -ffat-lto-objects\000"
 4508      66756E63 
 4508      74696F6E 
 4508      2D736563 
 4508      74696F6E 
 4509              	.LASF26:
 4510 0535 545F5553 		.ascii	"T_USBFS_EP_CTL_BLOCK\000"
 4510      4246535F 
 4510      45505F43 
 4510      544C5F42 
 4510      4C4F434B 
 4511              	.LASF107:
 4512 054a 55534246 		.ascii	"USBFS_InitNoDataControlTransfer\000"
 4512      535F496E 
 4512      69744E6F 
 4512      44617461 
 4512      436F6E74 
 4513              	.LASF91:
 4514 056a 55534246 		.ascii	"USBFS_device\000"
 4514      535F6465 
 4514      76696365 
 4514      00
 4515              	.LASF112:
 4516 0577 433A5C44 		.ascii	"C:\\Dan\\Eng Projects\\BP308\\TLAUX\\ARM Code\\TLAU"
ARM GAS  C:\Users\Dan\AppData\Local\Temp\ccwiSTnc.s 			page 110


 4516      616E5C45 
 4516      6E672050 
 4516      726F6A65 
 4516      6374735C 
 4517 05a4 585C544C 		.ascii	"X\\TLAUX_Bootloader.cydsn\000"
 4517      4155585F 
 4517      426F6F74 
 4517      6C6F6164 
 4517      65722E63 
 4518              	.LASF28:
 4519 05bd 61747472 		.ascii	"attributes\000"
 4519      69627574 
 4519      657300
 4520              	.LASF27:
 4521 05c8 616C7453 		.ascii	"altSetting\000"
 4521      65747469 
 4521      6E6700
 4522              	.LASF13:
 4523 05d3 63686172 		.ascii	"char\000"
 4523      00
 4524              	.LASF24:
 4525 05d8 62756666 		.ascii	"bufferSize\000"
 4525      65725369 
 4525      7A6500
 4526              	.LASF79:
 4527 05e3 72657175 		.ascii	"requestHandled\000"
 4527      65737448 
 4527      616E646C 
 4527      656400
 4528              	.LASF70:
 4529 05f2 63757272 		.ascii	"currentInterfacesNum\000"
 4529      656E7449 
 4529      6E746572 
 4529      66616365 
 4529      734E756D 
 4530              	.LASF23:
 4531 0607 62756666 		.ascii	"buffOffset\000"
 4531      4F666673 
 4531      657400
 4532              	.LASF113:
 4533 0612 55534246 		.ascii	"USBFS_GetDeviceTablePtr\000"
 4533      535F4765 
 4533      74446576 
 4533      69636554 
 4533      61626C65 
 4534              	.LASF84:
 4535 062a 696E7465 		.ascii	"interfaceNumber\000"
 4535      72666163 
 4535      654E756D 
 4535      62657200 
 4536              	.LASF94:
 4537 063a 55534246 		.ascii	"USBFS_deviceStatus\000"
 4537      535F6465 
 4537      76696365 
 4537      53746174 
 4537      757300
 4538              	.LASF32:
ARM GAS  C:\Users\Dan\AppData\Local\Temp\ccwiSTnc.s 			page 111


 4539 064d 6C656E67 		.ascii	"length\000"
 4539      746800
 4540              	.LASF88:
 4541 0654 6E537472 		.ascii	"nStr\000"
 4541      00
 4542              	.LASF31:
 4543 0659 73746174 		.ascii	"status\000"
 4543      757300
 4544              	.LASF109:
 4545 0660 55534246 		.ascii	"USBFS_DispatchClassRqst\000"
 4545      535F4469 
 4545      73706174 
 4545      6368436C 
 4545      61737352 
 4546              	.LASF54:
 4547 0678 72774472 		.ascii	"rwDr\000"
 4547      00
 4548              	.LASF82:
 4549 067d 63757249 		.ascii	"curInterfacesNum\000"
 4549      6E746572 
 4549      66616365 
 4549      734E756D 
 4549      00
 4550              	.LASF40:
 4551 068e 65704461 		.ascii	"epData\000"
 4551      746100
 4552              	.LASF29:
 4553 0695 624D6973 		.ascii	"bMisc\000"
 4553      6300
 4554              	.LASF51:
 4555 069b 72775761 		.ascii	"rwWaMsb\000"
 4555      4D736200 
 4556              	.LASF103:
 4557 06a3 55534246 		.ascii	"USBFS_interfaceStatus\000"
 4557      535F696E 
 4557      74657266 
 4557      61636553 
 4557      74617475 
 4558              	.LASF47:
 4559 06b9 6570496E 		.ascii	"epIntEn\000"
 4559      74456E00 
 4560              	.LASF101:
 4561 06c1 55534246 		.ascii	"USBFS_interfaceSettingLast\000"
 4561      535F696E 
 4561      74657266 
 4561      61636553 
 4561      65747469 
 4562              	.LASF83:
 4563 06dc 55534246 		.ascii	"USBFS_HandleStandardRqst\000"
 4563      535F4861 
 4563      6E646C65 
 4563      5374616E 
 4563      64617264 
 4564              	.LASF39:
 4565 06f5 545F5553 		.ascii	"T_USBFS_LUT\000"
 4565      4246535F 
 4565      4C555400 
ARM GAS  C:\Users\Dan\AppData\Local\Temp\ccwiSTnc.s 			page 112


 4566              		.ident	"GCC: (GNU Tools for ARM Embedded Processors) 5.4.1 20160609 (release) [ARM/embedded-5-bran
