ARM GAS  C:\Users\Dan\AppData\Local\Temp\ccoMxLTS.s 			page 1


   1              		.syntax unified
   2              		.cpu cortex-m3
   3              		.fpu softvfp
   4              		.eabi_attribute 20, 1
   5              		.eabi_attribute 21, 1
   6              		.eabi_attribute 23, 3
   7              		.eabi_attribute 24, 1
   8              		.eabi_attribute 25, 1
   9              		.eabi_attribute 26, 1
  10              		.eabi_attribute 30, 1
  11              		.eabi_attribute 34, 1
  12              		.eabi_attribute 18, 4
  13              		.thumb
  14              		.syntax unified
  15              		.file	"Cmds.c"
  16              		.text
  17              	.Ltext0:
  18              		.cfi_sections	.debug_frame
  19              		.section	.text.Ver_Cmd,"ax",%progbits
  20              		.align	2
  21              		.global	Ver_Cmd
  22              		.thumb
  23              		.thumb_func
  24              		.type	Ver_Cmd, %function
  25              	Ver_Cmd:
  26              	.LFB64:
  27              		.file 1 "Cmds.c"
   1:Cmds.c        **** /* ========================================
   2:Cmds.c        ****  *
   3:Cmds.c        ****  * Copyright YOUR COMPANY, THE YEAR
   4:Cmds.c        ****  * All Rights Reserved
   5:Cmds.c        ****  * UNPUBLISHED, LICENSED SOFTWARE.
   6:Cmds.c        ****  *
   7:Cmds.c        ****  * CONFIDENTIAL AND PROPRIETARY INFORMATION
   8:Cmds.c        ****  * WHICH IS THE PROPERTY OF your company.
   9:Cmds.c        ****  *
  10:Cmds.c        ****  * ========================================
  11:Cmds.c        **** */
  12:Cmds.c        **** 
  13:Cmds.c        **** #include <project.h>
  14:Cmds.c        **** 
  15:Cmds.c        **** #include "Cmds.h"
  16:Cmds.c        **** #include "CLI.h"
  17:Cmds.c        **** #include "U_HW.h"
  18:Cmds.c        **** #include "State_Machine.h"
  19:Cmds.c        **** #include "MPGCmds.h"
  20:Cmds.c        **** #include "Processes.h"
  21:Cmds.c        **** 
  22:Cmds.c        **** #include <stdint.h>
  23:Cmds.c        **** #include <stdlib.h>
  24:Cmds.c        **** #include <string.h>
  25:Cmds.c        **** #include <stdio.h>
  26:Cmds.c        **** 
  27:Cmds.c        **** #include "Serial_IO.h"
  28:Cmds.c        **** 
  29:Cmds.c        **** extern func_ptr FastProcess[];
  30:Cmds.c        **** extern func_ptr MsProcess[];
ARM GAS  C:\Users\Dan\AppData\Local\Temp\ccoMxLTS.s 			page 2


  31:Cmds.c        **** extern func_ptr SlowProcess[];
  32:Cmds.c        **** 
  33:Cmds.c        **** extern func_ptr MPG_SM;
  34:Cmds.c        **** 
  35:Cmds.c        **** char u_msg[32];
  36:Cmds.c        **** 
  37:Cmds.c        **** CLI_CMD(Ver_Cmd)
  38:Cmds.c        **** {
  28              		.loc 1 38 0
  29              		.cfi_startproc
  30              		@ args = 0, pretend = 0, frame = 0
  31              		@ frame_needed = 0, uses_anonymous_args = 0
  32              	.LVL0:
  33 0000 08B5     		push	{r3, lr}
  34              		.cfi_def_cfa_offset 8
  35              		.cfi_offset 3, -8
  36              		.cfi_offset 14, -4
  39:Cmds.c        ****     UNUSED_ARG(argc);UNUSED_ARG(argv);
  40:Cmds.c        ****     
  41:Cmds.c        ****     PutStr("\r** BP308 MPG with PSOC-5 **\r");
  37              		.loc 1 41 0
  38 0002 0548     		ldr	r0, .L3
  39              	.LVL1:
  40 0004 FFF7FEFF 		bl	USB_PutString
  41              	.LVL2:
  42:Cmds.c        **** 	PutStr("  Version 1.00\r");
  42              		.loc 1 42 0
  43 0008 0448     		ldr	r0, .L3+4
  44 000a FFF7FEFF 		bl	USB_PutString
  45              	.LVL3:
  43:Cmds.c        **** 	PutStr(__DATE__" "__TIME__"\r");
  46              		.loc 1 43 0
  47 000e 0448     		ldr	r0, .L3+8
  48 0010 FFF7FEFF 		bl	USB_PutString
  49              	.LVL4:
  44:Cmds.c        **** 	return 0;
  45:Cmds.c        **** }
  50              		.loc 1 45 0
  51 0014 0020     		movs	r0, #0
  52 0016 08BD     		pop	{r3, pc}
  53              	.L4:
  54              		.align	2
  55              	.L3:
  56 0018 00000000 		.word	.LC0
  57 001c 20000000 		.word	.LC1
  58 0020 30000000 		.word	.LC2
  59              		.cfi_endproc
  60              	.LFE64:
  61              		.size	Ver_Cmd, .-Ver_Cmd
  62              		.section	.text.Comment_Cmd,"ax",%progbits
  63              		.align	2
  64              		.global	Comment_Cmd
  65              		.thumb
  66              		.thumb_func
  67              		.type	Comment_Cmd, %function
  68              	Comment_Cmd:
  69              	.LFB65:
ARM GAS  C:\Users\Dan\AppData\Local\Temp\ccoMxLTS.s 			page 3


  46:Cmds.c        **** 
  47:Cmds.c        **** CLI_CMD(Comment_Cmd)
  48:Cmds.c        **** {
  70              		.loc 1 48 0
  71              		.cfi_startproc
  72              		@ args = 0, pretend = 0, frame = 0
  73              		@ frame_needed = 0, uses_anonymous_args = 0
  74              		@ link register save eliminated.
  75              	.LVL5:
  49:Cmds.c        ****     UNUSED_ARG(argc);UNUSED_ARG(argv);
  50:Cmds.c        ****     
  51:Cmds.c        ****     return 0;
  52:Cmds.c        **** }
  76              		.loc 1 52 0
  77 0000 0020     		movs	r0, #0
  78              	.LVL6:
  79 0002 7047     		bx	lr
  80              		.cfi_endproc
  81              	.LFE65:
  82              		.size	Comment_Cmd, .-Comment_Cmd
  83              		.section	.text.Count_Cmd,"ax",%progbits
  84              		.align	2
  85              		.global	Count_Cmd
  86              		.thumb
  87              		.thumb_func
  88              		.type	Count_Cmd, %function
  89              	Count_Cmd:
  90              	.LFB66:
  53:Cmds.c        **** 
  54:Cmds.c        **** CLI_CMD(Count_Cmd)
  55:Cmds.c        **** {
  91              		.loc 1 55 0
  92              		.cfi_startproc
  93              		@ args = 0, pretend = 0, frame = 0
  94              		@ frame_needed = 0, uses_anonymous_args = 0
  95              	.LVL7:
  96 0000 10B5     		push	{r4, lr}
  97              		.cfi_def_cfa_offset 8
  98              		.cfi_offset 4, -8
  99              		.cfi_offset 14, -4
  56:Cmds.c        ****     if(argc < 2)
 100              		.loc 1 56 0
 101 0002 0128     		cmp	r0, #1
 102 0004 03DC     		bgt	.L7
  57:Cmds.c        ****     {
  58:Cmds.c        ****         PutStr("usage: count {on/off}");
 103              		.loc 1 58 0
 104 0006 1548     		ldr	r0, .L12
 105              	.LVL8:
 106 0008 FFF7FEFF 		bl	USB_PutString
 107              	.LVL9:
  59:Cmds.c        ****         return 0;
 108              		.loc 1 59 0
 109 000c 23E0     		b	.L8
 110              	.LVL10:
 111              	.L7:
 112 000e 0C46     		mov	r4, r1
ARM GAS  C:\Users\Dan\AppData\Local\Temp\ccoMxLTS.s 			page 4


  60:Cmds.c        ****     }
  61:Cmds.c        ****    if(strcmp(argv[1], "on") == 0)
 113              		.loc 1 61 0
 114 0010 1349     		ldr	r1, .L12+4
 115              	.LVL11:
 116 0012 6068     		ldr	r0, [r4, #4]
 117              	.LVL12:
 118 0014 FFF7FEFF 		bl	strcmp
 119              	.LVL13:
 120 0018 88B9     		cbnz	r0, .L9
  62:Cmds.c        ****     {
  63:Cmds.c        ****         if(Process_Running(MsProcess, CountProcess))
 121              		.loc 1 63 0
 122 001a 1249     		ldr	r1, .L12+8
 123 001c 1248     		ldr	r0, .L12+12
 124 001e FFF7FEFF 		bl	Process_Running
 125              	.LVL14:
 126 0022 18B1     		cbz	r0, .L10
  64:Cmds.c        ****         {
  65:Cmds.c        ****             PutStr("Count already running!");
 127              		.loc 1 65 0
 128 0024 1148     		ldr	r0, .L12+16
 129 0026 FFF7FEFF 		bl	USB_PutString
 130              	.LVL15:
 131 002a 08E0     		b	.L9
 132              	.L10:
  66:Cmds.c        ****         } else {
  67:Cmds.c        ****             Add_Process(MsProcess, &(CountProcess));
 133              		.loc 1 67 0
 134 002c 0D49     		ldr	r1, .L12+8
 135 002e 0E48     		ldr	r0, .L12+12
 136 0030 FFF7FEFF 		bl	Add_Process
 137              	.LVL16:
  68:Cmds.c        ****             InitCountProcess();
 138              		.loc 1 68 0
 139 0034 FFF7FEFF 		bl	InitCountProcess
 140              	.LVL17:
  69:Cmds.c        ****             PutStr("Count is ON!");
 141              		.loc 1 69 0
 142 0038 0D48     		ldr	r0, .L12+20
 143 003a FFF7FEFF 		bl	USB_PutString
 144              	.LVL18:
 145              	.L9:
  70:Cmds.c        ****         }
  71:Cmds.c        ****     }
  72:Cmds.c        ****     if(strcmp(argv[1], "off") == 0)
 146              		.loc 1 72 0
 147 003e 0D49     		ldr	r1, .L12+24
 148 0040 6068     		ldr	r0, [r4, #4]
 149 0042 FFF7FEFF 		bl	strcmp
 150              	.LVL19:
 151 0046 30B9     		cbnz	r0, .L8
  73:Cmds.c        ****     {
  74:Cmds.c        ****         Del_Process(MsProcess, &(CountProcess));
 152              		.loc 1 74 0
 153 0048 0649     		ldr	r1, .L12+8
 154 004a 0748     		ldr	r0, .L12+12
ARM GAS  C:\Users\Dan\AppData\Local\Temp\ccoMxLTS.s 			page 5


 155 004c FFF7FEFF 		bl	Del_Process
 156              	.LVL20:
  75:Cmds.c        ****         PutStr("Count is OFF!");
 157              		.loc 1 75 0
 158 0050 0948     		ldr	r0, .L12+28
 159 0052 FFF7FEFF 		bl	USB_PutString
 160              	.LVL21:
 161              	.L8:
  76:Cmds.c        **** 
  77:Cmds.c        ****     }
  78:Cmds.c        ****     return 0;
  79:Cmds.c        **** }
 162              		.loc 1 79 0
 163 0056 0020     		movs	r0, #0
 164 0058 10BD     		pop	{r4, pc}
 165              	.L13:
 166 005a 00BF     		.align	2
 167              	.L12:
 168 005c 48000000 		.word	.LC3
 169 0060 60000000 		.word	.LC4
 170 0064 00000000 		.word	CountProcess
 171 0068 00000000 		.word	MsProcess
 172 006c 64000000 		.word	.LC5
 173 0070 7C000000 		.word	.LC6
 174 0074 8C000000 		.word	.LC7
 175 0078 90000000 		.word	.LC8
 176              		.cfi_endproc
 177              	.LFE66:
 178              		.size	Count_Cmd, .-Count_Cmd
 179              		.section	.text.Alpha_Cmd,"ax",%progbits
 180              		.align	2
 181              		.global	Alpha_Cmd
 182              		.thumb
 183              		.thumb_func
 184              		.type	Alpha_Cmd, %function
 185              	Alpha_Cmd:
 186              	.LFB67:
  80:Cmds.c        **** 
  81:Cmds.c        **** CLI_CMD(Alpha_Cmd)
  82:Cmds.c        **** {
 187              		.loc 1 82 0
 188              		.cfi_startproc
 189              		@ args = 0, pretend = 0, frame = 0
 190              		@ frame_needed = 0, uses_anonymous_args = 0
 191              	.LVL22:
 192 0000 10B5     		push	{r4, lr}
 193              		.cfi_def_cfa_offset 8
 194              		.cfi_offset 4, -8
 195              		.cfi_offset 14, -4
  83:Cmds.c        ****         if(argc < 2)
 196              		.loc 1 83 0
 197 0002 0128     		cmp	r0, #1
 198 0004 03DC     		bgt	.L15
  84:Cmds.c        ****     {
  85:Cmds.c        ****         PutStr("usage: alpha {on/off}");
 199              		.loc 1 85 0
 200 0006 1548     		ldr	r0, .L20
ARM GAS  C:\Users\Dan\AppData\Local\Temp\ccoMxLTS.s 			page 6


 201              	.LVL23:
 202 0008 FFF7FEFF 		bl	USB_PutString
 203              	.LVL24:
  86:Cmds.c        ****         return 0;
 204              		.loc 1 86 0
 205 000c 23E0     		b	.L16
 206              	.LVL25:
 207              	.L15:
 208 000e 0C46     		mov	r4, r1
  87:Cmds.c        ****     }
  88:Cmds.c        ****    if(strcmp(argv[1], "on") == 0)
 209              		.loc 1 88 0
 210 0010 1349     		ldr	r1, .L20+4
 211              	.LVL26:
 212 0012 6068     		ldr	r0, [r4, #4]
 213              	.LVL27:
 214 0014 FFF7FEFF 		bl	strcmp
 215              	.LVL28:
 216 0018 88B9     		cbnz	r0, .L17
  89:Cmds.c        ****     {
  90:Cmds.c        ****         if(Process_Running(MsProcess, AlphaProcess))
 217              		.loc 1 90 0
 218 001a 1249     		ldr	r1, .L20+8
 219 001c 1248     		ldr	r0, .L20+12
 220 001e FFF7FEFF 		bl	Process_Running
 221              	.LVL29:
 222 0022 18B1     		cbz	r0, .L18
  91:Cmds.c        ****         {
  92:Cmds.c        ****             PutStr("Alpha already running!");
 223              		.loc 1 92 0
 224 0024 1148     		ldr	r0, .L20+16
 225 0026 FFF7FEFF 		bl	USB_PutString
 226              	.LVL30:
 227 002a 08E0     		b	.L17
 228              	.L18:
  93:Cmds.c        ****         } else {
  94:Cmds.c        ****             Add_Process(MsProcess, &(AlphaProcess));
 229              		.loc 1 94 0
 230 002c 0D49     		ldr	r1, .L20+8
 231 002e 0E48     		ldr	r0, .L20+12
 232 0030 FFF7FEFF 		bl	Add_Process
 233              	.LVL31:
  95:Cmds.c        ****             InitAlphaProcess();
 234              		.loc 1 95 0
 235 0034 FFF7FEFF 		bl	InitAlphaProcess
 236              	.LVL32:
  96:Cmds.c        ****             PutStr("Alpha is ON!");
 237              		.loc 1 96 0
 238 0038 0D48     		ldr	r0, .L20+20
 239 003a FFF7FEFF 		bl	USB_PutString
 240              	.LVL33:
 241              	.L17:
  97:Cmds.c        ****         }
  98:Cmds.c        ****     }
  99:Cmds.c        ****     if(strcmp(argv[1], "off") == 0)
 242              		.loc 1 99 0
 243 003e 0D49     		ldr	r1, .L20+24
ARM GAS  C:\Users\Dan\AppData\Local\Temp\ccoMxLTS.s 			page 7


 244 0040 6068     		ldr	r0, [r4, #4]
 245 0042 FFF7FEFF 		bl	strcmp
 246              	.LVL34:
 247 0046 30B9     		cbnz	r0, .L16
 100:Cmds.c        ****     {
 101:Cmds.c        ****         Del_Process(MsProcess, &(AlphaProcess));
 248              		.loc 1 101 0
 249 0048 0649     		ldr	r1, .L20+8
 250 004a 0748     		ldr	r0, .L20+12
 251 004c FFF7FEFF 		bl	Del_Process
 252              	.LVL35:
 102:Cmds.c        ****         PutStr("Alpha is OFF!");
 253              		.loc 1 102 0
 254 0050 0948     		ldr	r0, .L20+28
 255 0052 FFF7FEFF 		bl	USB_PutString
 256              	.LVL36:
 257              	.L16:
 103:Cmds.c        ****     }
 104:Cmds.c        ****     return 0;
 105:Cmds.c        **** }
 258              		.loc 1 105 0
 259 0056 0020     		movs	r0, #0
 260 0058 10BD     		pop	{r4, pc}
 261              	.L21:
 262 005a 00BF     		.align	2
 263              	.L20:
 264 005c A0000000 		.word	.LC9
 265 0060 60000000 		.word	.LC4
 266 0064 00000000 		.word	AlphaProcess
 267 0068 00000000 		.word	MsProcess
 268 006c B8000000 		.word	.LC10
 269 0070 D0000000 		.word	.LC11
 270 0074 8C000000 		.word	.LC7
 271 0078 E0000000 		.word	.LC12
 272              		.cfi_endproc
 273              	.LFE67:
 274              		.size	Alpha_Cmd, .-Alpha_Cmd
 275              		.section	.text.UTX_Cmd,"ax",%progbits
 276              		.align	2
 277              		.global	UTX_Cmd
 278              		.thumb
 279              		.thumb_func
 280              		.type	UTX_Cmd, %function
 281              	UTX_Cmd:
 282              	.LFB68:
 106:Cmds.c        **** 
 107:Cmds.c        **** CLI_CMD(UTX_Cmd)
 108:Cmds.c        **** {
 283              		.loc 1 108 0
 284              		.cfi_startproc
 285              		@ args = 0, pretend = 0, frame = 0
 286              		@ frame_needed = 0, uses_anonymous_args = 0
 287              	.LVL37:
 109:Cmds.c        ****     if(argc >= 1)
 288              		.loc 1 109 0
 289 0000 0028     		cmp	r0, #0
 290 0002 08DC     		bgt	.L26
ARM GAS  C:\Users\Dan\AppData\Local\Temp\ccoMxLTS.s 			page 8


 110:Cmds.c        ****     {
 111:Cmds.c        ****         for(uint8 i=1; i < argc; i++)
 112:Cmds.c        ****         {
 113:Cmds.c        ****             UART_PutStr((uint8 *) argv[i]);
 114:Cmds.c        ****         }
 115:Cmds.c        ****     }
 116:Cmds.c        ****     return 0;
 117:Cmds.c        **** }
 291              		.loc 1 117 0
 292 0004 0020     		movs	r0, #0
 293              	.LVL38:
 294 0006 7047     		bx	lr
 295              	.LVL39:
 296              	.L25:
 297              		.cfi_def_cfa_offset 16
 298              		.cfi_offset 4, -16
 299              		.cfi_offset 5, -12
 300              		.cfi_offset 6, -8
 301              		.cfi_offset 14, -4
 302              	.LBB2:
 113:Cmds.c        ****         }
 303              		.loc 1 113 0 discriminator 3
 304 0008 56F82400 		ldr	r0, [r6, r4, lsl #2]
 305 000c FFF7FEFF 		bl	UART_PutStr
 306              	.LVL40:
 111:Cmds.c        ****         {
 307              		.loc 1 111 0 discriminator 3
 308 0010 0134     		adds	r4, r4, #1
 309              	.LVL41:
 310 0012 E4B2     		uxtb	r4, r4
 311              	.LVL42:
 312 0014 03E0     		b	.L23
 313              	.LVL43:
 314              	.L26:
 315              		.cfi_def_cfa_offset 0
 316              		.cfi_restore 4
 317              		.cfi_restore 5
 318              		.cfi_restore 6
 319              		.cfi_restore 14
 320              	.LBE2:
 108:Cmds.c        ****     if(argc >= 1)
 321              		.loc 1 108 0
 322 0016 70B5     		push	{r4, r5, r6, lr}
 323              		.cfi_def_cfa_offset 16
 324              		.cfi_offset 4, -16
 325              		.cfi_offset 5, -12
 326              		.cfi_offset 6, -8
 327              		.cfi_offset 14, -4
 328 0018 0546     		mov	r5, r0
 329 001a 0E46     		mov	r6, r1
 330 001c 0124     		movs	r4, #1
 331              	.LVL44:
 332              	.L23:
 333              	.LBB3:
 111:Cmds.c        ****         {
 334              		.loc 1 111 0 discriminator 1
 335 001e A542     		cmp	r5, r4
ARM GAS  C:\Users\Dan\AppData\Local\Temp\ccoMxLTS.s 			page 9


 336 0020 F2DC     		bgt	.L25
 337              	.LBE3:
 338              		.loc 1 117 0
 339 0022 0020     		movs	r0, #0
 340 0024 70BD     		pop	{r4, r5, r6, pc}
 341              		.cfi_endproc
 342              	.LFE68:
 343              		.size	UTX_Cmd, .-UTX_Cmd
 344 0026 00BF     		.section	.text.State_Cmd,"ax",%progbits
 345              		.align	2
 346              		.global	State_Cmd
 347              		.thumb
 348              		.thumb_func
 349              		.type	State_Cmd, %function
 350              	State_Cmd:
 351              	.LFB69:
 118:Cmds.c        **** 
 119:Cmds.c        **** 
 120:Cmds.c        **** CLI_CMD(State_Cmd)
 121:Cmds.c        **** {
 352              		.loc 1 121 0
 353              		.cfi_startproc
 354              		@ args = 0, pretend = 0, frame = 0
 355              		@ frame_needed = 0, uses_anonymous_args = 0
 356              	.LVL45:
 357 0000 08B5     		push	{r3, lr}
 358              		.cfi_def_cfa_offset 8
 359              		.cfi_offset 3, -8
 360              		.cfi_offset 14, -4
 122:Cmds.c        ****         UNUSED_ARG(argc);UNUSED_ARG(argv);
 123:Cmds.c        ****         PutStr("Status : ");
 361              		.loc 1 123 0
 362 0002 0348     		ldr	r0, .L30
 363              	.LVL46:
 364 0004 FFF7FEFF 		bl	USB_PutString
 365              	.LVL47:
 124:Cmds.c        ****         MPG_Status();
 366              		.loc 1 124 0
 367 0008 FFF7FEFF 		bl	MPG_Status
 368              	.LVL48:
 125:Cmds.c        ****     return 0;
 126:Cmds.c        **** }
 369              		.loc 1 126 0
 370 000c 0020     		movs	r0, #0
 371 000e 08BD     		pop	{r3, pc}
 372              	.L31:
 373              		.align	2
 374              	.L30:
 375 0010 F0000000 		.word	.LC13
 376              		.cfi_endproc
 377              	.LFE69:
 378              		.size	State_Cmd, .-State_Cmd
 379              		.section	.text.Load_Cmd,"ax",%progbits
 380              		.align	2
 381              		.global	Load_Cmd
 382              		.thumb
 383              		.thumb_func
ARM GAS  C:\Users\Dan\AppData\Local\Temp\ccoMxLTS.s 			page 10


 384              		.type	Load_Cmd, %function
 385              	Load_Cmd:
 386              	.LFB70:
 127:Cmds.c        **** 
 128:Cmds.c        **** 
 129:Cmds.c        **** 
 130:Cmds.c        **** CLI_CMD(Load_Cmd)
 131:Cmds.c        **** {
 387              		.loc 1 131 0
 388              		.cfi_startproc
 389              		@ args = 0, pretend = 0, frame = 0
 390              		@ frame_needed = 0, uses_anonymous_args = 0
 391              	.LVL49:
 392 0000 08B5     		push	{r3, lr}
 393              		.cfi_def_cfa_offset 8
 394              		.cfi_offset 3, -8
 395              		.cfi_offset 14, -4
 132:Cmds.c        ****     UNUSED_ARG(argc);UNUSED_ARG(argv);
 133:Cmds.c        ****     Bootloadable_Load();      // uncomment when the bootloadable is active
 396              		.loc 1 133 0
 397 0002 FFF7FEFF 		bl	Bootloadable_Load
 398              	.LVL50:
 134:Cmds.c        ****     
 135:Cmds.c        ****     return 0;
 136:Cmds.c        **** }
 399              		.loc 1 136 0
 400 0006 0020     		movs	r0, #0
 401 0008 08BD     		pop	{r3, pc}
 402              		.cfi_endproc
 403              	.LFE70:
 404              		.size	Load_Cmd, .-Load_Cmd
 405 000a 00BF     		.section	.text.In_Fault_Cmd,"ax",%progbits
 406              		.align	2
 407              		.global	In_Fault_Cmd
 408              		.thumb
 409              		.thumb_func
 410              		.type	In_Fault_Cmd, %function
 411              	In_Fault_Cmd:
 412              	.LFB71:
 137:Cmds.c        **** 
 138:Cmds.c        **** 
 139:Cmds.c        **** 
 140:Cmds.c        **** CLI_CMD(In_Fault_Cmd)
 141:Cmds.c        **** {
 413              		.loc 1 141 0
 414              		.cfi_startproc
 415              		@ args = 0, pretend = 0, frame = 0
 416              		@ frame_needed = 0, uses_anonymous_args = 0
 417              	.LVL51:
 418 0000 08B5     		push	{r3, lr}
 419              		.cfi_def_cfa_offset 8
 420              		.cfi_offset 3, -8
 421              		.cfi_offset 14, -4
 142:Cmds.c        ****     UNUSED_ARG(argc);UNUSED_ARG(argv);
 143:Cmds.c        ****     if(In_Fault() == 0)
 422              		.loc 1 143 0
 423 0002 FFF7FEFF 		bl	In_Fault
ARM GAS  C:\Users\Dan\AppData\Local\Temp\ccoMxLTS.s 			page 11


 424              	.LVL52:
 425 0006 18B9     		cbnz	r0, .L35
 144:Cmds.c        ****     {
 145:Cmds.c        ****         PutStr("NO FAULT");
 426              		.loc 1 145 0
 427 0008 0448     		ldr	r0, .L38
 428 000a FFF7FEFF 		bl	USB_PutString
 429              	.LVL53:
 430 000e 02E0     		b	.L36
 431              	.L35:
 146:Cmds.c        ****     }
 147:Cmds.c        ****     else
 148:Cmds.c        ****     {
 149:Cmds.c        ****         PutStr("*** FAULT ***");
 432              		.loc 1 149 0
 433 0010 0348     		ldr	r0, .L38+4
 434 0012 FFF7FEFF 		bl	USB_PutString
 435              	.LVL54:
 436              	.L36:
 150:Cmds.c        ****     }
 151:Cmds.c        ****     return 0;
 152:Cmds.c        **** }
 437              		.loc 1 152 0
 438 0016 0020     		movs	r0, #0
 439 0018 08BD     		pop	{r3, pc}
 440              	.L39:
 441 001a 00BF     		.align	2
 442              	.L38:
 443 001c FC000000 		.word	.LC14
 444 0020 08010000 		.word	.LC15
 445              		.cfi_endproc
 446              	.LFE71:
 447              		.size	In_Fault_Cmd, .-In_Fault_Cmd
 448              		.comm	u_msg,32,4
 449              		.section	.rodata.str1.4,"aMS",%progbits,1
 450              		.align	2
 451              	.LC0:
 452 0000 0D2A2A20 		.ascii	"\015** BP308 MPG with PSOC-5 **\015\000"
 452      42503330 
 452      38204D50 
 452      47207769 
 452      74682050 
 453 001e 0000     		.space	2
 454              	.LC1:
 455 0020 20205665 		.ascii	"  Version 1.00\015\000"
 455      7273696F 
 455      6E20312E 
 455      30300D00 
 456              	.LC2:
 457 0030 4A616E20 		.ascii	"Jan 16 2020 19:53:58\015\000"
 457      31362032 
 457      30323020 
 457      31393A35 
 457      333A3538 
 458 0046 0000     		.space	2
 459              	.LC3:
 460 0048 75736167 		.ascii	"usage: count {on/off}\000"
ARM GAS  C:\Users\Dan\AppData\Local\Temp\ccoMxLTS.s 			page 12


 460      653A2063 
 460      6F756E74 
 460      207B6F6E 
 460      2F6F6666 
 461 005e 0000     		.space	2
 462              	.LC4:
 463 0060 6F6E00   		.ascii	"on\000"
 464 0063 00       		.space	1
 465              	.LC5:
 466 0064 436F756E 		.ascii	"Count already running!\000"
 466      7420616C 
 466      72656164 
 466      79207275 
 466      6E6E696E 
 467 007b 00       		.space	1
 468              	.LC6:
 469 007c 436F756E 		.ascii	"Count is ON!\000"
 469      74206973 
 469      204F4E21 
 469      00
 470 0089 000000   		.space	3
 471              	.LC7:
 472 008c 6F666600 		.ascii	"off\000"
 473              	.LC8:
 474 0090 436F756E 		.ascii	"Count is OFF!\000"
 474      74206973 
 474      204F4646 
 474      2100
 475 009e 0000     		.space	2
 476              	.LC9:
 477 00a0 75736167 		.ascii	"usage: alpha {on/off}\000"
 477      653A2061 
 477      6C706861 
 477      207B6F6E 
 477      2F6F6666 
 478 00b6 0000     		.space	2
 479              	.LC10:
 480 00b8 416C7068 		.ascii	"Alpha already running!\000"
 480      6120616C 
 480      72656164 
 480      79207275 
 480      6E6E696E 
 481 00cf 00       		.space	1
 482              	.LC11:
 483 00d0 416C7068 		.ascii	"Alpha is ON!\000"
 483      61206973 
 483      204F4E21 
 483      00
 484 00dd 000000   		.space	3
 485              	.LC12:
 486 00e0 416C7068 		.ascii	"Alpha is OFF!\000"
 486      61206973 
 486      204F4646 
 486      2100
 487 00ee 0000     		.space	2
 488              	.LC13:
 489 00f0 53746174 		.ascii	"Status : \000"
ARM GAS  C:\Users\Dan\AppData\Local\Temp\ccoMxLTS.s 			page 13


 489      7573203A 
 489      2000
 490 00fa 0000     		.space	2
 491              	.LC14:
 492 00fc 4E4F2046 		.ascii	"NO FAULT\000"
 492      41554C54 
 492      00
 493 0105 000000   		.space	3
 494              	.LC15:
 495 0108 2A2A2A20 		.ascii	"*** FAULT ***\000"
 495      4641554C 
 495      54202A2A 
 495      2A00
 496              		.text
 497              	.Letext0:
 498              		.file 2 "c:\\program files (x86)\\cypress\\psoc creator\\4.2\\psoc creator\\import\\gnu\\arm\\5.4.
 499              		.file 3 "c:\\program files (x86)\\cypress\\psoc creator\\4.2\\psoc creator\\import\\gnu\\arm\\5.4.
 500              		.file 4 "Generated_Source\\PSoC5/cytypes.h"
 501              		.file 5 "State_Machine.h"
 502              		.file 6 "Generated_Source\\PSoC5/core_cm3.h"
 503              		.file 7 "U_HW.h"
 504              		.file 8 "c:\\program files (x86)\\cypress\\psoc creator\\4.2\\psoc creator\\import\\gnu\\arm\\5.4.
 505              		.file 9 "Processes.h"
 506              		.file 10 "Generated_Source\\PSoC5/Bootloadable.h"