ARM GAS  C:\Users\Dan\AppData\Local\Temp\cc6MxKM4.s 			page 1


   1              		.syntax unified
   2              		.cpu cortex-m3
   3              		.fpu softvfp
   4              		.eabi_attribute 20, 1
   5              		.eabi_attribute 21, 1
   6              		.eabi_attribute 23, 3
   7              		.eabi_attribute 24, 1
   8              		.eabi_attribute 25, 1
   9              		.eabi_attribute 26, 1
  10              		.eabi_attribute 30, 1
  11              		.eabi_attribute 34, 1
  12              		.eabi_attribute 18, 4
  13              		.thumb
  14              		.syntax unified
  15              		.file	"Processes.c"
  16              		.text
  17              	.Ltext0:
  18              		.cfi_sections	.debug_frame
  19              		.section	.text.MPG_StateMachine,"ax",%progbits
  20              		.align	2
  21              		.global	MPG_StateMachine
  22              		.thumb
  23              		.thumb_func
  24              		.type	MPG_StateMachine, %function
  25              	MPG_StateMachine:
  26              	.LFB69:
  27              		.file 1 "Processes.c"
   1:Processes.c   **** /* ========================================
   2:Processes.c   ****  *
   3:Processes.c   ****  * Copyright YOUR COMPANY, THE YEAR
   4:Processes.c   ****  * All Rights Reserved
   5:Processes.c   ****  * UNPUBLISHED, LICENSED SOFTWARE.
   6:Processes.c   ****  *
   7:Processes.c   ****  * CONFIDENTIAL AND PROPRIETARY INFORMATION
   8:Processes.c   ****  * WHICH IS THE PROPERTY OF your company.
   9:Processes.c   ****  *
  10:Processes.c   ****  * ========================================
  11:Processes.c   **** */
  12:Processes.c   **** 
  13:Processes.c   **** #include "Processes.h"
  14:Processes.c   **** #include <project.h>
  15:Processes.c   **** #include <stdio.h>
  16:Processes.c   **** #include "MPGCmds.h"
  17:Processes.c   **** #include "State_Machine.h"
  18:Processes.c   **** 
  19:Processes.c   **** #include "U_HW.h"
  20:Processes.c   **** 
  21:Processes.c   **** extern uint32_t STATUS_FLAG1;
  22:Processes.c   **** 
  23:Processes.c   **** extern func_ptr FastProcess[];
  24:Processes.c   **** extern func_ptr MsProcess[];
  25:Processes.c   **** extern func_ptr SlowProcess[];
  26:Processes.c   **** extern volatile uint32 MS_Time;
  27:Processes.c   **** 
  28:Processes.c   **** extern volatile uint32 StatusMSGTime;
  29:Processes.c   **** 
  30:Processes.c   **** func_ptr MPG_SM;
ARM GAS  C:\Users\Dan\AppData\Local\Temp\cc6MxKM4.s 			page 2


  31:Processes.c   **** uint8   MPG_STATE;
  32:Processes.c   **** 
  33:Processes.c   **** func_ptr DlyNextState;
  34:Processes.c   **** 
  35:Processes.c   **** func_ptr Blink_SM;
  36:Processes.c   **** uint8 Blink_STATE;
  37:Processes.c   **** 
  38:Processes.c   **** uint8 Current_Tool;
  39:Processes.c   **** uint8 Target_Tool;
  40:Processes.c   **** int8  Carousel_Dir;
  41:Processes.c   **** 
  42:Processes.c   **** static uint16_t C_Count;
  43:Processes.c   **** static uint16_t SecCount;
  44:Processes.c   **** 
  45:Processes.c   **** static uint16_t PrevStatus;
  46:Processes.c   **** 
  47:Processes.c   **** void InitCountProcess(void)
  48:Processes.c   **** {
  49:Processes.c   ****     C_Count = 0;
  50:Processes.c   ****     SecCount = 1000;
  51:Processes.c   **** }
  52:Processes.c   **** void CountProcess(void)
  53:Processes.c   **** {
  54:Processes.c   ****     char msg[20];
  55:Processes.c   ****     if((--SecCount) == 0)
  56:Processes.c   ****     {
  57:Processes.c   ****         SecCount = 1000; // reset the counter
  58:Processes.c   ****         sprintf(msg, "Count = %d\r", C_Count++);
  59:Processes.c   ****         PutStr(msg);
  60:Processes.c   **** //        Pin_LED_Write(~(Pin_LED_Read()));    // toggle the LED
  61:Processes.c   ****     }
  62:Processes.c   **** }
  63:Processes.c   **** 
  64:Processes.c   **** static uint8 A_Count;
  65:Processes.c   **** static uint16 S_Count;
  66:Processes.c   **** 
  67:Processes.c   **** void InitAlphaProcess(void)
  68:Processes.c   **** {
  69:Processes.c   ****     A_Count = 0;
  70:Processes.c   ****     S_Count = 1000;
  71:Processes.c   **** }
  72:Processes.c   **** 
  73:Processes.c   **** void AlphaProcess(void)
  74:Processes.c   **** {
  75:Processes.c   **** 
  76:Processes.c   ****     char msg[20];
  77:Processes.c   ****     if((--S_Count) == 0)
  78:Processes.c   ****     {
  79:Processes.c   ****         S_Count = 1000u; // reset the counter
  80:Processes.c   ****         sprintf(msg, "Alpha = %c\r", (A_Count + 'A'));
  81:Processes.c   ****         PutStr(msg);
  82:Processes.c   ****         if(A_Count++ > 56) A_Count = 0;
  83:Processes.c   **** //        Pin_LED_Write(~(Pin_LED_Read()));    // toggle the LED
  84:Processes.c   ****     }
  85:Processes.c   **** }
  86:Processes.c   **** 
  87:Processes.c   **** 
ARM GAS  C:\Users\Dan\AppData\Local\Temp\cc6MxKM4.s 			page 3


  88:Processes.c   **** // delay timer variables
  89:Processes.c   **** static uint32 TC_Delay; // the amount of time to delay
  90:Processes.c   **** static uint32 TC_DelayStart; // the time tick when the delay started
  91:Processes.c   **** 
  92:Processes.c   **** 
  93:Processes.c   **** // tool changer state machine
  94:Processes.c   **** void Init_MPG_StateMachine(void)
  95:Processes.c   **** {
  96:Processes.c   ****     if(Process_Running(MsProcess, MPG_StateMachine))
  97:Processes.c   ****     {
  98:Processes.c   ****         PutStr("Status Process already running!\n");
  99:Processes.c   ****     } else {
 100:Processes.c   ****     // start all the constantaly running processes.
 101:Processes.c   ****     // Status Monitor
 102:Processes.c   ****         Add_Process(FastProcess, &(MPG_StateMachine));
 103:Processes.c   ****         PutStr("MPG State Machine Started");
 104:Processes.c   ****         MPG_SM = &MPG_Fault;
 105:Processes.c   ****     } 
 106:Processes.c   ****     if(Process_Running(MsProcess, Blink_StateMachine))
 107:Processes.c   ****     {
 108:Processes.c   ****         PutStr("Blink Process already running\n");
 109:Processes.c   ****     } 
 110:Processes.c   ****     else
 111:Processes.c   ****     {
 112:Processes.c   ****         Add_Process(MsProcess, &(Blink_StateMachine));
 113:Processes.c   ****         PutStr("Blink State Machine Started");
 114:Processes.c   ****         startLongShortBlink();
 115:Processes.c   ****     }
 116:Processes.c   ****     
 117:Processes.c   ****     PrevStatus = MPGStatusQuery();
 118:Processes.c   **** }
 119:Processes.c   **** 
 120:Processes.c   **** void MPG_StateMachine(void)
 121:Processes.c   **** {
  28              		.loc 1 121 0
  29              		.cfi_startproc
  30              		@ args = 0, pretend = 0, frame = 0
  31              		@ frame_needed = 0, uses_anonymous_args = 0
  32 0000 08B5     		push	{r3, lr}
  33              		.cfi_def_cfa_offset 8
  34              		.cfi_offset 3, -8
  35              		.cfi_offset 14, -4
 122:Processes.c   ****     // check for things that may cause a fault
 123:Processes.c   ****     // if there is a fault then MPG_SM = &TC_Fault;
 124:Processes.c   ****     // 
 125:Processes.c   ****     MPG_SM();
  36              		.loc 1 125 0
  37 0002 024B     		ldr	r3, .L3
  38 0004 1B68     		ldr	r3, [r3]
  39 0006 9847     		blx	r3
  40              	.LVL0:
  41 0008 08BD     		pop	{r3, pc}
  42              	.L4:
  43 000a 00BF     		.align	2
  44              	.L3:
  45 000c 00000000 		.word	MPG_SM
  46              		.cfi_endproc
ARM GAS  C:\Users\Dan\AppData\Local\Temp\cc6MxKM4.s 			page 4


  47              	.LFE69:
  48              		.size	MPG_StateMachine, .-MPG_StateMachine
  49              		.section	.text.MPG_Test_Delay,"ax",%progbits
  50              		.align	2
  51              		.global	MPG_Test_Delay
  52              		.thumb
  53              		.thumb_func
  54              		.type	MPG_Test_Delay, %function
  55              	MPG_Test_Delay:
  56              	.LFB74:
 126:Processes.c   **** }
 127:Processes.c   **** 
 128:Processes.c   **** // state machine states
 129:Processes.c   **** void MPG_IDLE(void)
 130:Processes.c   **** {
 131:Processes.c   ****     MPG_STATE = MPG_STATE_IDLE;
 132:Processes.c   ****     // waiting for a command to start a motion
 133:Processes.c   ****     // check for an error condition.
 134:Processes.c   ****     In_Fault();
 135:Processes.c   ****     // if status switch is not on OFF then switch to normal
 136:Processes.c   ****     
 137:Processes.c   ****     PrevStatus = MPGStatusQuery();
 138:Processes.c   ****     if((PrevStatus & (1 << OFF_POS)) == 0)  
 139:Processes.c   ****     {
 140:Processes.c   ****         MPG_SM = &MPG_Normal;
 141:Processes.c   ****         Blink_SM = &NoBlink;
 142:Processes.c   ****     }
 143:Processes.c   ****     if((PrevStatus & (1 << ESTOP_STATUS_POS)) != 0)
 144:Processes.c   ****     {
 145:Processes.c   ****         MPG_SM = &MPG_ESTOP;
 146:Processes.c   ****         startFastBlink();
 147:Processes.c   ****     }
 148:Processes.c   **** }
 149:Processes.c   **** 
 150:Processes.c   **** void MPG_Normal(void)
 151:Processes.c   **** {
 152:Processes.c   ****     MPG_STATE = MPG_STATE_NORMAL;
 153:Processes.c   ****     In_Fault();
 154:Processes.c   ****     uint16_t xstatus = MPGStatusQuery();
 155:Processes.c   ****     if(PrevStatus != xstatus)
 156:Processes.c   ****     {
 157:Processes.c   ****         // blink the LED
 158:Processes.c   ****         startDoubleBlink();
 159:Processes.c   ****         PrevStatus = xstatus; 
 160:Processes.c   ****         MPG_Set_Delay(25, &MPG_Normal);
 161:Processes.c   ****         
 162:Processes.c   ****     } else if((xstatus & (1 << OFF_POS)) != 0)
 163:Processes.c   ****     {
 164:Processes.c   ****         MPG_SM = &MPG_IDLE;
 165:Processes.c   ****         startLongBlink();
 166:Processes.c   ****     }
 167:Processes.c   ****     if((xstatus & (1 << ESTOP_STATUS_POS)) != 0)
 168:Processes.c   ****     {
 169:Processes.c   ****         MPG_SM = &MPG_ESTOP;
 170:Processes.c   ****         startFastBlink();
 171:Processes.c   ****     }
 172:Processes.c   **** }
ARM GAS  C:\Users\Dan\AppData\Local\Temp\cc6MxKM4.s 			page 5


 173:Processes.c   **** 
 174:Processes.c   **** void MPG_ESTOP(void)
 175:Processes.c   **** {
 176:Processes.c   ****     MPG_STATE = MPG_STATE_ESTOP;
 177:Processes.c   ****     uint16 status = MPGStatusQuery();
 178:Processes.c   ****     if((status & (1 << ESTOP_STATUS_POS)) == 0)
 179:Processes.c   ****     {
 180:Processes.c   ****         MPG_SM = &MPG_IDLE;
 181:Processes.c   ****         startLongBlink();
 182:Processes.c   ****     }
 183:Processes.c   **** }
 184:Processes.c   **** 
 185:Processes.c   **** void MPG_Fault(void)
 186:Processes.c   **** {
 187:Processes.c   ****     MPG_STATE = MPG_STATE_FAULT;
 188:Processes.c   ****     // Fault!
 189:Processes.c   ****     // the way out of a fault is to get a status query message
 190:Processes.c   ****     if((MS_Time - StatusMSGTime) < FAULT_TIMEOUT)
 191:Processes.c   ****     {
 192:Processes.c   ****         MPG_SM =&MPG_IDLE;  // change the state back to idle
 193:Processes.c   ****         startLongBlink();
 194:Processes.c   ****     }
 195:Processes.c   **** }
 196:Processes.c   **** 
 197:Processes.c   **** void MPG_Test_Delay(void)
 198:Processes.c   **** {
  57              		.loc 1 198 0
  58              		.cfi_startproc
  59              		@ args = 0, pretend = 0, frame = 0
  60              		@ frame_needed = 0, uses_anonymous_args = 0
  61              		@ link register save eliminated.
 199:Processes.c   ****     MPG_STATE = MPG_STATE_TEST;
  62              		.loc 1 199 0
  63 0000 0522     		movs	r2, #5
  64 0002 074B     		ldr	r3, .L7
  65 0004 1A70     		strb	r2, [r3]
 200:Processes.c   ****     
 201:Processes.c   ****     if((MS_Time - TC_DelayStart) > TC_Delay)
  66              		.loc 1 201 0
  67 0006 074B     		ldr	r3, .L7+4
  68 0008 1B68     		ldr	r3, [r3]
  69 000a 074A     		ldr	r2, .L7+8
  70 000c 1168     		ldr	r1, [r2]
  71 000e 5B1A     		subs	r3, r3, r1
  72 0010 5268     		ldr	r2, [r2, #4]
  73 0012 9342     		cmp	r3, r2
  74 0014 03D9     		bls	.L5
 202:Processes.c   ****     {
 203:Processes.c   ****         // when done move state back to IDLE
 204:Processes.c   ****         MPG_SM = DlyNextState;    
  75              		.loc 1 204 0
  76 0016 054B     		ldr	r3, .L7+12
  77 0018 1A68     		ldr	r2, [r3]
  78 001a 054B     		ldr	r3, .L7+16
  79 001c 1A60     		str	r2, [r3]
  80              	.L5:
  81 001e 7047     		bx	lr
ARM GAS  C:\Users\Dan\AppData\Local\Temp\cc6MxKM4.s 			page 6


  82              	.L8:
  83              		.align	2
  84              	.L7:
  85 0020 00000000 		.word	MPG_STATE
  86 0024 00000000 		.word	MS_Time
  87 0028 00000000 		.word	.LANCHOR0
  88 002c 00000000 		.word	DlyNextState
  89 0030 00000000 		.word	MPG_SM
  90              		.cfi_endproc
  91              	.LFE74:
  92              		.size	MPG_Test_Delay, .-MPG_Test_Delay
  93              		.section	.text.Blink_StateMachine,"ax",%progbits
  94              		.align	2
  95              		.global	Blink_StateMachine
  96              		.thumb
  97              		.thumb_func
  98              		.type	Blink_StateMachine, %function
  99              	Blink_StateMachine:
 100              	.LFB78:
 205:Processes.c   **** //        PutStr("Delay Done\n");
 206:Processes.c   ****     }
 207:Processes.c   **** }
 208:Processes.c   **** 
 209:Processes.c   **** void MPG_Set_Delay(uint32 delay, func_ptr NextState)
 210:Processes.c   **** {
 211:Processes.c   ****     TC_Delay = delay;
 212:Processes.c   ****     TC_DelayStart = MS_Time;
 213:Processes.c   ****     DlyNextState = NextState;
 214:Processes.c   ****     MPG_SM = &MPG_Test_Delay;
 215:Processes.c   **** }
 216:Processes.c   **** 
 217:Processes.c   **** 
 218:Processes.c   **** 
 219:Processes.c   **** void MPG_Status(void)
 220:Processes.c   **** {
 221:Processes.c   ****     switch(MPG_STATE)
 222:Processes.c   ****     {
 223:Processes.c   ****         case MPG_STATE_IDLE  : 
 224:Processes.c   ****             PutStr("MPG IDLE");
 225:Processes.c   ****             break;
 226:Processes.c   ****         case MPG_STATE_NORMAL :
 227:Processes.c   ****             PutStr("MPG Normal");
 228:Processes.c   ****             break;
 229:Processes.c   ****         case MPG_STATE_ESTOP :
 230:Processes.c   ****             PutStr("MPG ESTOP");
 231:Processes.c   ****             break;
 232:Processes.c   ****         case MPG_STATE_FAULT :
 233:Processes.c   ****             PutStr("MPG FAULT");
 234:Processes.c   ****             break;
 235:Processes.c   ****         default :
 236:Processes.c   ****             break;
 237:Processes.c   ****     }
 238:Processes.c   **** }
 239:Processes.c   **** 
 240:Processes.c   **** 
 241:Processes.c   **** // is there an existing fault condition? 1 = yes, 0 = no
 242:Processes.c   **** int In_Fault(void)
ARM GAS  C:\Users\Dan\AppData\Local\Temp\cc6MxKM4.s 			page 7


 243:Processes.c   **** {
 244:Processes.c   ****     // check for a fault
 245:Processes.c   ****     // fault is indicated by not getting a query message from the KFLOP for too long
 246:Processes.c   ****     if((MS_Time - StatusMSGTime) > FAULT_TIMEOUT)
 247:Processes.c   ****     {
 248:Processes.c   ****         MPG_SM = &MPG_Fault;
 249:Processes.c   ****         startLongShortBlink();
 250:Processes.c   ****         return 1;
 251:Processes.c   ****     }
 252:Processes.c   ****     else
 253:Processes.c   ****     {
 254:Processes.c   ****         return 0;   // no fault
 255:Processes.c   ****     }
 256:Processes.c   **** }
 257:Processes.c   **** 
 258:Processes.c   **** // LED Blink State Machine
 259:Processes.c   **** 
 260:Processes.c   **** void Blink_StateMachine(void)
 261:Processes.c   **** {
 101              		.loc 1 261 0
 102              		.cfi_startproc
 103              		@ args = 0, pretend = 0, frame = 0
 104              		@ frame_needed = 0, uses_anonymous_args = 0
 105 0000 08B5     		push	{r3, lr}
 106              		.cfi_def_cfa_offset 8
 107              		.cfi_offset 3, -8
 108              		.cfi_offset 14, -4
 262:Processes.c   ****     Blink_SM();
 109              		.loc 1 262 0
 110 0002 024B     		ldr	r3, .L11
 111 0004 1B68     		ldr	r3, [r3]
 112 0006 9847     		blx	r3
 113              	.LVL1:
 114 0008 08BD     		pop	{r3, pc}
 115              	.L12:
 116 000a 00BF     		.align	2
 117              	.L11:
 118 000c 00000000 		.word	Blink_SM
 119              		.cfi_endproc
 120              	.LFE78:
 121              		.size	Blink_StateMachine, .-Blink_StateMachine
 122              		.section	.text.SingleBlink,"ax",%progbits
 123              		.align	2
 124              		.global	SingleBlink
 125              		.thumb
 126              		.thumb_func
 127              		.type	SingleBlink, %function
 128              	SingleBlink:
 129              	.LFB80:
 263:Processes.c   **** }
 264:Processes.c   **** 
 265:Processes.c   **** static uint32 Blink_Timer;
 266:Processes.c   **** static uint32 BlinkCount;
 267:Processes.c   **** // LED Blink processes
 268:Processes.c   **** void startSingleBlink(void)
 269:Processes.c   **** {
 270:Processes.c   **** // add single blink to the MS process
ARM GAS  C:\Users\Dan\AppData\Local\Temp\cc6MxKM4.s 			page 8


 271:Processes.c   ****     Blink_SM = &SingleBlink;
 272:Processes.c   ****     Blink_Timer = MS_Time;
 273:Processes.c   ****     Pin_LED_Write(0); // LED off
 274:Processes.c   **** //    PutStr("LED Single\n");
 275:Processes.c   ****     
 276:Processes.c   **** }
 277:Processes.c   **** void SingleBlink(void)
 278:Processes.c   **** {
 130              		.loc 1 278 0
 131              		.cfi_startproc
 132              		@ args = 0, pretend = 0, frame = 0
 133              		@ frame_needed = 0, uses_anonymous_args = 0
 134              		@ link register save eliminated.
 279:Processes.c   ****     Blink_STATE = BLINK_STATE_SINGLE;
 135              		.loc 1 279 0
 136 0000 0222     		movs	r2, #2
 137 0002 064B     		ldr	r3, .L15
 138 0004 1A70     		strb	r2, [r3]
 280:Processes.c   ****     if((MS_Time - Blink_Timer) > SINGLE_BLINK_TIME)
 139              		.loc 1 280 0
 140 0006 064B     		ldr	r3, .L15+4
 141 0008 1B68     		ldr	r3, [r3]
 142 000a 064A     		ldr	r2, .L15+8
 143 000c 9268     		ldr	r2, [r2, #8]
 144 000e 9B1A     		subs	r3, r3, r2
 145 0010 962B     		cmp	r3, #150
 146 0012 02D9     		bls	.L13
 281:Processes.c   ****     {
 282:Processes.c   ****         Blink_SM = &NoBlink;
 147              		.loc 1 282 0
 148 0014 044A     		ldr	r2, .L15+12
 149 0016 054B     		ldr	r3, .L15+16
 150 0018 1A60     		str	r2, [r3]
 151              	.L13:
 152 001a 7047     		bx	lr
 153              	.L16:
 154              		.align	2
 155              	.L15:
 156 001c 00000000 		.word	Blink_STATE
 157 0020 00000000 		.word	MS_Time
 158 0024 00000000 		.word	.LANCHOR0
 159 0028 00000000 		.word	NoBlink
 160 002c 00000000 		.word	Blink_SM
 161              		.cfi_endproc
 162              	.LFE80:
 163              		.size	SingleBlink, .-SingleBlink
 164              		.section	.text.NoBlink,"ax",%progbits
 165              		.align	2
 166              		.global	NoBlink
 167              		.thumb
 168              		.thumb_func
 169              		.type	NoBlink, %function
 170              	NoBlink:
 171              	.LFB89:
 283:Processes.c   ****     }
 284:Processes.c   **** }
 285:Processes.c   **** 
ARM GAS  C:\Users\Dan\AppData\Local\Temp\cc6MxKM4.s 			page 9


 286:Processes.c   **** void startDoubleBlink(void)
 287:Processes.c   **** {
 288:Processes.c   ****     Blink_Timer = MS_Time;
 289:Processes.c   ****     Blink_SM = &DoubleBlink;
 290:Processes.c   ****     Pin_LED_Write(0);   // LED off
 291:Processes.c   ****     BlinkCount = 1;     
 292:Processes.c   **** //    PutStr("LED Double\n");
 293:Processes.c   **** }
 294:Processes.c   **** 
 295:Processes.c   **** void DoubleBlink(void)
 296:Processes.c   **** {
 297:Processes.c   ****     Blink_STATE = BLINK_STATE_DOUBLE;
 298:Processes.c   ****     if(Pin_LED_Read() == 0)
 299:Processes.c   ****     {
 300:Processes.c   ****         if((MS_Time - Blink_Timer) > SINGLE_BLINK_TIME)
 301:Processes.c   ****         {
 302:Processes.c   ****             Pin_LED_Write(1);
 303:Processes.c   ****             Blink_Timer = MS_Time;
 304:Processes.c   ****             if(BlinkCount-- == 0)
 305:Processes.c   ****             {
 306:Processes.c   ****                 Blink_SM = &NoBlink;
 307:Processes.c   ****             }            
 308:Processes.c   ****         }
 309:Processes.c   ****     }
 310:Processes.c   ****     else
 311:Processes.c   ****     {
 312:Processes.c   **** //        PrevStatus = MPGStatusQuery();
 313:Processes.c   ****         if((MS_Time - Blink_Timer) > SINGLE_BLINK_TIME)
 314:Processes.c   ****         {
 315:Processes.c   ****             Pin_LED_Write(0);
 316:Processes.c   ****             Blink_Timer = MS_Time;
 317:Processes.c   ****         }
 318:Processes.c   ****     }
 319:Processes.c   **** }
 320:Processes.c   **** 
 321:Processes.c   **** void startLongBlink(void)
 322:Processes.c   **** {
 323:Processes.c   ****     Blink_SM = &LongBlink;
 324:Processes.c   ****     Blink_Timer = MS_Time;
 325:Processes.c   ****     Pin_LED_Write(0);   // LED off
 326:Processes.c   **** //    PutStr("LED Long\n");
 327:Processes.c   **** }
 328:Processes.c   **** 
 329:Processes.c   **** void LongBlink(void)
 330:Processes.c   **** {
 331:Processes.c   ****     Blink_STATE = BLINK_STATE_LONG;
 332:Processes.c   ****     if(Pin_LED_Read() == 0)
 333:Processes.c   ****     {
 334:Processes.c   ****         if((MS_Time - Blink_Timer) > LONG_BLINK_TIME)
 335:Processes.c   ****         {
 336:Processes.c   ****             Pin_LED_Write(1); 
 337:Processes.c   ****             Blink_Timer = MS_Time;
 338:Processes.c   ****         }
 339:Processes.c   ****     } else
 340:Processes.c   ****     {
 341:Processes.c   ****         if((MS_Time - Blink_Timer) > LONG_BLINK_TIME)
 342:Processes.c   ****         {
ARM GAS  C:\Users\Dan\AppData\Local\Temp\cc6MxKM4.s 			page 10


 343:Processes.c   ****             Pin_LED_Write(0);
 344:Processes.c   ****             Blink_Timer = MS_Time;
 345:Processes.c   ****         }
 346:Processes.c   ****     }
 347:Processes.c   **** }
 348:Processes.c   **** 
 349:Processes.c   **** void startLongShortBlink(void)
 350:Processes.c   **** {
 351:Processes.c   ****     Blink_SM = &LongShortBlink;
 352:Processes.c   ****     Blink_Timer = MS_Time;
 353:Processes.c   ****     Pin_LED_Write(0);   // LED off  
 354:Processes.c   **** //    PutStr("LED LongShort\n");
 355:Processes.c   **** }
 356:Processes.c   **** 
 357:Processes.c   **** 
 358:Processes.c   **** void LongShortBlink(void)
 359:Processes.c   **** {
 360:Processes.c   ****     Blink_STATE = BLINK_STATE_LONGSHORT;
 361:Processes.c   ****     if(Pin_LED_Read() == 0)
 362:Processes.c   ****     {
 363:Processes.c   ****         if((MS_Time - Blink_Timer) > LONG_BLINK_TIME)
 364:Processes.c   ****         {
 365:Processes.c   ****             Pin_LED_Write(1); 
 366:Processes.c   ****             Blink_Timer = MS_Time;
 367:Processes.c   ****         }
 368:Processes.c   ****     } else
 369:Processes.c   ****     {
 370:Processes.c   ****         if((MS_Time - Blink_Timer) > FAST_BLINK_TIME)
 371:Processes.c   ****         {
 372:Processes.c   ****             Pin_LED_Write(0);
 373:Processes.c   ****             Blink_Timer = MS_Time;
 374:Processes.c   ****         }
 375:Processes.c   ****     }    
 376:Processes.c   **** }
 377:Processes.c   **** 
 378:Processes.c   **** void startFastBlink(void)
 379:Processes.c   **** {
 380:Processes.c   ****     Blink_SM = &FastBlink;
 381:Processes.c   ****     Blink_Timer = MS_Time;
 382:Processes.c   ****     Pin_LED_Write(0);   // LED off 
 383:Processes.c   ****  //   PutStr("LED Fast\n");
 384:Processes.c   **** }
 385:Processes.c   **** 
 386:Processes.c   **** void FastBlink(void)
 387:Processes.c   **** {
 388:Processes.c   ****     Blink_STATE = BLINK_STATE_FAST;
 389:Processes.c   ****     if(Pin_LED_Read() == 0)
 390:Processes.c   ****     {
 391:Processes.c   ****         if((MS_Time - Blink_Timer) > FAST_BLINK_TIME)
 392:Processes.c   ****         {
 393:Processes.c   ****             Pin_LED_Write(1);
 394:Processes.c   ****             Blink_Timer = MS_Time;
 395:Processes.c   ****         }
 396:Processes.c   ****     } else
 397:Processes.c   ****     {
 398:Processes.c   ****         if((MS_Time - Blink_Timer) > FAST_BLINK_TIME)
 399:Processes.c   ****         {
ARM GAS  C:\Users\Dan\AppData\Local\Temp\cc6MxKM4.s 			page 11


 400:Processes.c   ****             Pin_LED_Write(0);
 401:Processes.c   ****             Blink_Timer = MS_Time;
 402:Processes.c   ****         }
 403:Processes.c   ****     }
 404:Processes.c   **** }
 405:Processes.c   **** 
 406:Processes.c   **** void NoBlink(void)
 407:Processes.c   **** {
 172              		.loc 1 407 0
 173              		.cfi_startproc
 174              		@ args = 0, pretend = 0, frame = 0
 175              		@ frame_needed = 0, uses_anonymous_args = 0
 176 0000 08B5     		push	{r3, lr}
 177              		.cfi_def_cfa_offset 8
 178              		.cfi_offset 3, -8
 179              		.cfi_offset 14, -4
 408:Processes.c   ****     Blink_STATE = BLINK_STATE_NO;
 180              		.loc 1 408 0
 181 0002 0120     		movs	r0, #1
 182 0004 024B     		ldr	r3, .L19
 183 0006 1870     		strb	r0, [r3]
 409:Processes.c   ****     Pin_LED_Write(1);
 184              		.loc 1 409 0
 185 0008 FFF7FEFF 		bl	Pin_LED_Write
 186              	.LVL2:
 187 000c 08BD     		pop	{r3, pc}
 188              	.L20:
 189 000e 00BF     		.align	2
 190              	.L19:
 191 0010 00000000 		.word	Blink_STATE
 192              		.cfi_endproc
 193              	.LFE89:
 194              		.size	NoBlink, .-NoBlink
 195              		.section	.text.DoubleBlink,"ax",%progbits
 196              		.align	2
 197              		.global	DoubleBlink
 198              		.thumb
 199              		.thumb_func
 200              		.type	DoubleBlink, %function
 201              	DoubleBlink:
 202              	.LFB82:
 296:Processes.c   ****     Blink_STATE = BLINK_STATE_DOUBLE;
 203              		.loc 1 296 0
 204              		.cfi_startproc
 205              		@ args = 0, pretend = 0, frame = 0
 206              		@ frame_needed = 0, uses_anonymous_args = 0
 207 0000 08B5     		push	{r3, lr}
 208              		.cfi_def_cfa_offset 8
 209              		.cfi_offset 3, -8
 210              		.cfi_offset 14, -4
 297:Processes.c   ****     if(Pin_LED_Read() == 0)
 211              		.loc 1 297 0
 212 0002 0322     		movs	r2, #3
 213 0004 144B     		ldr	r3, .L25
 214 0006 1A70     		strb	r2, [r3]
 298:Processes.c   ****     {
 215              		.loc 1 298 0
ARM GAS  C:\Users\Dan\AppData\Local\Temp\cc6MxKM4.s 			page 12


 216 0008 FFF7FEFF 		bl	Pin_LED_Read
 217              	.LVL3:
 218 000c A8B9     		cbnz	r0, .L22
 300:Processes.c   ****         {
 219              		.loc 1 300 0
 220 000e 134B     		ldr	r3, .L25+4
 221 0010 1B68     		ldr	r3, [r3]
 222 0012 134A     		ldr	r2, .L25+8
 223 0014 9268     		ldr	r2, [r2, #8]
 224 0016 9B1A     		subs	r3, r3, r2
 225 0018 962B     		cmp	r3, #150
 226 001a 1CD9     		bls	.L21
 302:Processes.c   ****             Blink_Timer = MS_Time;
 227              		.loc 1 302 0
 228 001c 0120     		movs	r0, #1
 229 001e FFF7FEFF 		bl	Pin_LED_Write
 230              	.LVL4:
 303:Processes.c   ****             if(BlinkCount-- == 0)
 231              		.loc 1 303 0
 232 0022 0E4B     		ldr	r3, .L25+4
 233 0024 1A68     		ldr	r2, [r3]
 234 0026 0E4B     		ldr	r3, .L25+8
 235 0028 9A60     		str	r2, [r3, #8]
 304:Processes.c   ****             {
 236              		.loc 1 304 0
 237 002a DA68     		ldr	r2, [r3, #12]
 238 002c 511E     		subs	r1, r2, #1
 239 002e D960     		str	r1, [r3, #12]
 240 0030 8AB9     		cbnz	r2, .L21
 306:Processes.c   ****             }            
 241              		.loc 1 306 0
 242 0032 0C4A     		ldr	r2, .L25+12
 243 0034 0C4B     		ldr	r3, .L25+16
 244 0036 1A60     		str	r2, [r3]
 245 0038 08BD     		pop	{r3, pc}
 246              	.L22:
 313:Processes.c   ****         {
 247              		.loc 1 313 0
 248 003a 084B     		ldr	r3, .L25+4
 249 003c 1B68     		ldr	r3, [r3]
 250 003e 084A     		ldr	r2, .L25+8
 251 0040 9268     		ldr	r2, [r2, #8]
 252 0042 9B1A     		subs	r3, r3, r2
 253 0044 962B     		cmp	r3, #150
 254 0046 06D9     		bls	.L21
 315:Processes.c   ****             Blink_Timer = MS_Time;
 255              		.loc 1 315 0
 256 0048 0020     		movs	r0, #0
 257 004a FFF7FEFF 		bl	Pin_LED_Write
 258              	.LVL5:
 316:Processes.c   ****         }
 259              		.loc 1 316 0
 260 004e 034B     		ldr	r3, .L25+4
 261 0050 1A68     		ldr	r2, [r3]
 262 0052 034B     		ldr	r3, .L25+8
 263 0054 9A60     		str	r2, [r3, #8]
 264              	.L21:
ARM GAS  C:\Users\Dan\AppData\Local\Temp\cc6MxKM4.s 			page 13


 265 0056 08BD     		pop	{r3, pc}
 266              	.L26:
 267              		.align	2
 268              	.L25:
 269 0058 00000000 		.word	Blink_STATE
 270 005c 00000000 		.word	MS_Time
 271 0060 00000000 		.word	.LANCHOR0
 272 0064 00000000 		.word	NoBlink
 273 0068 00000000 		.word	Blink_SM
 274              		.cfi_endproc
 275              	.LFE82:
 276              		.size	DoubleBlink, .-DoubleBlink
 277              		.section	.text.LongBlink,"ax",%progbits
 278              		.align	2
 279              		.global	LongBlink
 280              		.thumb
 281              		.thumb_func
 282              		.type	LongBlink, %function
 283              	LongBlink:
 284              	.LFB84:
 330:Processes.c   ****     Blink_STATE = BLINK_STATE_LONG;
 285              		.loc 1 330 0
 286              		.cfi_startproc
 287              		@ args = 0, pretend = 0, frame = 0
 288              		@ frame_needed = 0, uses_anonymous_args = 0
 289 0000 08B5     		push	{r3, lr}
 290              		.cfi_def_cfa_offset 8
 291              		.cfi_offset 3, -8
 292              		.cfi_offset 14, -4
 331:Processes.c   ****     if(Pin_LED_Read() == 0)
 293              		.loc 1 331 0
 294 0002 0422     		movs	r2, #4
 295 0004 134B     		ldr	r3, .L31
 296 0006 1A70     		strb	r2, [r3]
 332:Processes.c   ****     {
 297              		.loc 1 332 0
 298 0008 FFF7FEFF 		bl	Pin_LED_Read
 299              	.LVL6:
 300 000c 80B9     		cbnz	r0, .L28
 334:Processes.c   ****         {
 301              		.loc 1 334 0
 302 000e 124B     		ldr	r3, .L31+4
 303 0010 1B68     		ldr	r3, [r3]
 304 0012 124A     		ldr	r2, .L31+8
 305 0014 9268     		ldr	r2, [r2, #8]
 306 0016 9B1A     		subs	r3, r3, r2
 307 0018 40F2B632 		movw	r2, #950
 308 001c 9342     		cmp	r3, r2
 309 001e 17D9     		bls	.L27
 336:Processes.c   ****             Blink_Timer = MS_Time;
 310              		.loc 1 336 0
 311 0020 0120     		movs	r0, #1
 312 0022 FFF7FEFF 		bl	Pin_LED_Write
 313              	.LVL7:
 337:Processes.c   ****         }
 314              		.loc 1 337 0
 315 0026 0C4B     		ldr	r3, .L31+4
ARM GAS  C:\Users\Dan\AppData\Local\Temp\cc6MxKM4.s 			page 14


 316 0028 1A68     		ldr	r2, [r3]
 317 002a 0C4B     		ldr	r3, .L31+8
 318 002c 9A60     		str	r2, [r3, #8]
 319 002e 08BD     		pop	{r3, pc}
 320              	.L28:
 341:Processes.c   ****         {
 321              		.loc 1 341 0
 322 0030 094B     		ldr	r3, .L31+4
 323 0032 1B68     		ldr	r3, [r3]
 324 0034 094A     		ldr	r2, .L31+8
 325 0036 9268     		ldr	r2, [r2, #8]
 326 0038 9B1A     		subs	r3, r3, r2
 327 003a 40F2B632 		movw	r2, #950
 328 003e 9342     		cmp	r3, r2
 329 0040 06D9     		bls	.L27
 343:Processes.c   ****             Blink_Timer = MS_Time;
 330              		.loc 1 343 0
 331 0042 0020     		movs	r0, #0
 332 0044 FFF7FEFF 		bl	Pin_LED_Write
 333              	.LVL8:
 344:Processes.c   ****         }
 334              		.loc 1 344 0
 335 0048 034B     		ldr	r3, .L31+4
 336 004a 1A68     		ldr	r2, [r3]
 337 004c 034B     		ldr	r3, .L31+8
 338 004e 9A60     		str	r2, [r3, #8]
 339              	.L27:
 340 0050 08BD     		pop	{r3, pc}
 341              	.L32:
 342 0052 00BF     		.align	2
 343              	.L31:
 344 0054 00000000 		.word	Blink_STATE
 345 0058 00000000 		.word	MS_Time
 346 005c 00000000 		.word	.LANCHOR0
 347              		.cfi_endproc
 348              	.LFE84:
 349              		.size	LongBlink, .-LongBlink
 350              		.section	.text.LongShortBlink,"ax",%progbits
 351              		.align	2
 352              		.global	LongShortBlink
 353              		.thumb
 354              		.thumb_func
 355              		.type	LongShortBlink, %function
 356              	LongShortBlink:
 357              	.LFB86:
 359:Processes.c   ****     Blink_STATE = BLINK_STATE_LONGSHORT;
 358              		.loc 1 359 0
 359              		.cfi_startproc
 360              		@ args = 0, pretend = 0, frame = 0
 361              		@ frame_needed = 0, uses_anonymous_args = 0
 362 0000 08B5     		push	{r3, lr}
 363              		.cfi_def_cfa_offset 8
 364              		.cfi_offset 3, -8
 365              		.cfi_offset 14, -4
 360:Processes.c   ****     if(Pin_LED_Read() == 0)
 366              		.loc 1 360 0
 367 0002 0522     		movs	r2, #5
ARM GAS  C:\Users\Dan\AppData\Local\Temp\cc6MxKM4.s 			page 15


 368 0004 124B     		ldr	r3, .L37
 369 0006 1A70     		strb	r2, [r3]
 361:Processes.c   ****     {
 370              		.loc 1 361 0
 371 0008 FFF7FEFF 		bl	Pin_LED_Read
 372              	.LVL9:
 373 000c 80B9     		cbnz	r0, .L34
 363:Processes.c   ****         {
 374              		.loc 1 363 0
 375 000e 114B     		ldr	r3, .L37+4
 376 0010 1B68     		ldr	r3, [r3]
 377 0012 114A     		ldr	r2, .L37+8
 378 0014 9268     		ldr	r2, [r2, #8]
 379 0016 9B1A     		subs	r3, r3, r2
 380 0018 40F2B632 		movw	r2, #950
 381 001c 9342     		cmp	r3, r2
 382 001e 15D9     		bls	.L33
 365:Processes.c   ****             Blink_Timer = MS_Time;
 383              		.loc 1 365 0
 384 0020 0120     		movs	r0, #1
 385 0022 FFF7FEFF 		bl	Pin_LED_Write
 386              	.LVL10:
 366:Processes.c   ****         }
 387              		.loc 1 366 0
 388 0026 0B4B     		ldr	r3, .L37+4
 389 0028 1A68     		ldr	r2, [r3]
 390 002a 0B4B     		ldr	r3, .L37+8
 391 002c 9A60     		str	r2, [r3, #8]
 392 002e 08BD     		pop	{r3, pc}
 393              	.L34:
 370:Processes.c   ****         {
 394              		.loc 1 370 0
 395 0030 084B     		ldr	r3, .L37+4
 396 0032 1B68     		ldr	r3, [r3]
 397 0034 084A     		ldr	r2, .L37+8
 398 0036 9268     		ldr	r2, [r2, #8]
 399 0038 9B1A     		subs	r3, r3, r2
 400 003a 642B     		cmp	r3, #100
 401 003c 06D9     		bls	.L33
 372:Processes.c   ****             Blink_Timer = MS_Time;
 402              		.loc 1 372 0
 403 003e 0020     		movs	r0, #0
 404 0040 FFF7FEFF 		bl	Pin_LED_Write
 405              	.LVL11:
 373:Processes.c   ****         }
 406              		.loc 1 373 0
 407 0044 034B     		ldr	r3, .L37+4
 408 0046 1A68     		ldr	r2, [r3]
 409 0048 034B     		ldr	r3, .L37+8
 410 004a 9A60     		str	r2, [r3, #8]
 411              	.L33:
 412 004c 08BD     		pop	{r3, pc}
 413              	.L38:
 414 004e 00BF     		.align	2
 415              	.L37:
 416 0050 00000000 		.word	Blink_STATE
 417 0054 00000000 		.word	MS_Time
ARM GAS  C:\Users\Dan\AppData\Local\Temp\cc6MxKM4.s 			page 16


 418 0058 00000000 		.word	.LANCHOR0
 419              		.cfi_endproc
 420              	.LFE86:
 421              		.size	LongShortBlink, .-LongShortBlink
 422              		.section	.text.FastBlink,"ax",%progbits
 423              		.align	2
 424              		.global	FastBlink
 425              		.thumb
 426              		.thumb_func
 427              		.type	FastBlink, %function
 428              	FastBlink:
 429              	.LFB88:
 387:Processes.c   ****     Blink_STATE = BLINK_STATE_FAST;
 430              		.loc 1 387 0
 431              		.cfi_startproc
 432              		@ args = 0, pretend = 0, frame = 0
 433              		@ frame_needed = 0, uses_anonymous_args = 0
 434 0000 08B5     		push	{r3, lr}
 435              		.cfi_def_cfa_offset 8
 436              		.cfi_offset 3, -8
 437              		.cfi_offset 14, -4
 388:Processes.c   ****     if(Pin_LED_Read() == 0)
 438              		.loc 1 388 0
 439 0002 0622     		movs	r2, #6
 440 0004 114B     		ldr	r3, .L43
 441 0006 1A70     		strb	r2, [r3]
 389:Processes.c   ****     {
 442              		.loc 1 389 0
 443 0008 FFF7FEFF 		bl	Pin_LED_Read
 444              	.LVL12:
 445 000c 70B9     		cbnz	r0, .L40
 391:Processes.c   ****         {
 446              		.loc 1 391 0
 447 000e 104B     		ldr	r3, .L43+4
 448 0010 1B68     		ldr	r3, [r3]
 449 0012 104A     		ldr	r2, .L43+8
 450 0014 9268     		ldr	r2, [r2, #8]
 451 0016 9B1A     		subs	r3, r3, r2
 452 0018 642B     		cmp	r3, #100
 453 001a 15D9     		bls	.L39
 393:Processes.c   ****             Blink_Timer = MS_Time;
 454              		.loc 1 393 0
 455 001c 0120     		movs	r0, #1
 456 001e FFF7FEFF 		bl	Pin_LED_Write
 457              	.LVL13:
 394:Processes.c   ****         }
 458              		.loc 1 394 0
 459 0022 0B4B     		ldr	r3, .L43+4
 460 0024 1A68     		ldr	r2, [r3]
 461 0026 0B4B     		ldr	r3, .L43+8
 462 0028 9A60     		str	r2, [r3, #8]
 463 002a 08BD     		pop	{r3, pc}
 464              	.L40:
 398:Processes.c   ****         {
 465              		.loc 1 398 0
 466 002c 084B     		ldr	r3, .L43+4
 467 002e 1B68     		ldr	r3, [r3]
ARM GAS  C:\Users\Dan\AppData\Local\Temp\cc6MxKM4.s 			page 17


 468 0030 084A     		ldr	r2, .L43+8
 469 0032 9268     		ldr	r2, [r2, #8]
 470 0034 9B1A     		subs	r3, r3, r2
 471 0036 642B     		cmp	r3, #100
 472 0038 06D9     		bls	.L39
 400:Processes.c   ****             Blink_Timer = MS_Time;
 473              		.loc 1 400 0
 474 003a 0020     		movs	r0, #0
 475 003c FFF7FEFF 		bl	Pin_LED_Write
 476              	.LVL14:
 401:Processes.c   ****         }
 477              		.loc 1 401 0
 478 0040 034B     		ldr	r3, .L43+4
 479 0042 1A68     		ldr	r2, [r3]
 480 0044 034B     		ldr	r3, .L43+8
 481 0046 9A60     		str	r2, [r3, #8]
 482              	.L39:
 483 0048 08BD     		pop	{r3, pc}
 484              	.L44:
 485 004a 00BF     		.align	2
 486              	.L43:
 487 004c 00000000 		.word	Blink_STATE
 488 0050 00000000 		.word	MS_Time
 489 0054 00000000 		.word	.LANCHOR0
 490              		.cfi_endproc
 491              	.LFE88:
 492              		.size	FastBlink, .-FastBlink
 493              		.section	.text.InitCountProcess,"ax",%progbits
 494              		.align	2
 495              		.global	InitCountProcess
 496              		.thumb
 497              		.thumb_func
 498              		.type	InitCountProcess, %function
 499              	InitCountProcess:
 500              	.LFB64:
  48:Processes.c   ****     C_Count = 0;
 501              		.loc 1 48 0
 502              		.cfi_startproc
 503              		@ args = 0, pretend = 0, frame = 0
 504              		@ frame_needed = 0, uses_anonymous_args = 0
 505              		@ link register save eliminated.
  49:Processes.c   ****     SecCount = 1000;
 506              		.loc 1 49 0
 507 0000 034B     		ldr	r3, .L46
 508 0002 0022     		movs	r2, #0
 509 0004 1A82     		strh	r2, [r3, #16]	@ movhi
  50:Processes.c   **** }
 510              		.loc 1 50 0
 511 0006 4FF47A72 		mov	r2, #1000
 512 000a 5A82     		strh	r2, [r3, #18]	@ movhi
 513 000c 7047     		bx	lr
 514              	.L47:
 515 000e 00BF     		.align	2
 516              	.L46:
 517 0010 00000000 		.word	.LANCHOR0
 518              		.cfi_endproc
 519              	.LFE64:
ARM GAS  C:\Users\Dan\AppData\Local\Temp\cc6MxKM4.s 			page 18


 520              		.size	InitCountProcess, .-InitCountProcess
 521              		.section	.text.CountProcess,"ax",%progbits
 522              		.align	2
 523              		.global	CountProcess
 524              		.thumb
 525              		.thumb_func
 526              		.type	CountProcess, %function
 527              	CountProcess:
 528              	.LFB65:
  53:Processes.c   ****     char msg[20];
 529              		.loc 1 53 0
 530              		.cfi_startproc
 531              		@ args = 0, pretend = 0, frame = 24
 532              		@ frame_needed = 0, uses_anonymous_args = 0
  55:Processes.c   ****     {
 533              		.loc 1 55 0
 534 0000 0C4A     		ldr	r2, .L52
 535 0002 538A     		ldrh	r3, [r2, #18]
 536 0004 013B     		subs	r3, r3, #1
 537 0006 9BB2     		uxth	r3, r3
 538 0008 5382     		strh	r3, [r2, #18]	@ movhi
 539 000a 93B9     		cbnz	r3, .L51
  53:Processes.c   ****     char msg[20];
 540              		.loc 1 53 0
 541 000c 00B5     		push	{lr}
 542              		.cfi_def_cfa_offset 4
 543              		.cfi_offset 14, -4
 544 000e 87B0     		sub	sp, sp, #28
 545              		.cfi_def_cfa_offset 32
  57:Processes.c   ****         sprintf(msg, "Count = %d\r", C_Count++);
 546              		.loc 1 57 0
 547 0010 1346     		mov	r3, r2
 548 0012 4FF47A72 		mov	r2, #1000
 549 0016 5A82     		strh	r2, [r3, #18]	@ movhi
  58:Processes.c   ****         PutStr(msg);
 550              		.loc 1 58 0
 551 0018 1A8A     		ldrh	r2, [r3, #16]
 552 001a 511C     		adds	r1, r2, #1
 553 001c 1982     		strh	r1, [r3, #16]	@ movhi
 554 001e 0649     		ldr	r1, .L52+4
 555 0020 01A8     		add	r0, sp, #4
 556 0022 FFF7FEFF 		bl	sprintf
 557              	.LVL15:
  59:Processes.c   **** //        Pin_LED_Write(~(Pin_LED_Read()));    // toggle the LED
 558              		.loc 1 59 0
 559 0026 01A8     		add	r0, sp, #4
 560 0028 FFF7FEFF 		bl	USB_PutString
 561              	.LVL16:
  62:Processes.c   **** 
 562              		.loc 1 62 0
 563 002c 07B0     		add	sp, sp, #28
 564              		.cfi_def_cfa_offset 4
 565              		@ sp needed
 566 002e 5DF804FB 		ldr	pc, [sp], #4
 567              	.L51:
 568              		.cfi_def_cfa_offset 0
 569              		.cfi_restore 14
ARM GAS  C:\Users\Dan\AppData\Local\Temp\cc6MxKM4.s 			page 19


 570 0032 7047     		bx	lr
 571              	.L53:
 572              		.align	2
 573              	.L52:
 574 0034 00000000 		.word	.LANCHOR0
 575 0038 00000000 		.word	.LC0
 576              		.cfi_endproc
 577              	.LFE65:
 578              		.size	CountProcess, .-CountProcess
 579              		.section	.text.InitAlphaProcess,"ax",%progbits
 580              		.align	2
 581              		.global	InitAlphaProcess
 582              		.thumb
 583              		.thumb_func
 584              		.type	InitAlphaProcess, %function
 585              	InitAlphaProcess:
 586              	.LFB66:
  68:Processes.c   ****     A_Count = 0;
 587              		.loc 1 68 0
 588              		.cfi_startproc
 589              		@ args = 0, pretend = 0, frame = 0
 590              		@ frame_needed = 0, uses_anonymous_args = 0
 591              		@ link register save eliminated.
  69:Processes.c   ****     S_Count = 1000;
 592              		.loc 1 69 0
 593 0000 034B     		ldr	r3, .L55
 594 0002 0022     		movs	r2, #0
 595 0004 1A75     		strb	r2, [r3, #20]
  70:Processes.c   **** }
 596              		.loc 1 70 0
 597 0006 4FF47A72 		mov	r2, #1000
 598 000a DA82     		strh	r2, [r3, #22]	@ movhi
 599 000c 7047     		bx	lr
 600              	.L56:
 601 000e 00BF     		.align	2
 602              	.L55:
 603 0010 00000000 		.word	.LANCHOR0
 604              		.cfi_endproc
 605              	.LFE66:
 606              		.size	InitAlphaProcess, .-InitAlphaProcess
 607              		.section	.text.AlphaProcess,"ax",%progbits
 608              		.align	2
 609              		.global	AlphaProcess
 610              		.thumb
 611              		.thumb_func
 612              		.type	AlphaProcess, %function
 613              	AlphaProcess:
 614              	.LFB67:
  74:Processes.c   **** 
 615              		.loc 1 74 0
 616              		.cfi_startproc
 617              		@ args = 0, pretend = 0, frame = 24
 618              		@ frame_needed = 0, uses_anonymous_args = 0
  77:Processes.c   ****     {
 619              		.loc 1 77 0
 620 0000 0F4A     		ldr	r2, .L61
 621 0002 D38A     		ldrh	r3, [r2, #22]
ARM GAS  C:\Users\Dan\AppData\Local\Temp\cc6MxKM4.s 			page 20


 622 0004 013B     		subs	r3, r3, #1
 623 0006 9BB2     		uxth	r3, r3
 624 0008 D382     		strh	r3, [r2, #22]	@ movhi
 625 000a BBB9     		cbnz	r3, .L60
  74:Processes.c   **** 
 626              		.loc 1 74 0
 627 000c 10B5     		push	{r4, lr}
 628              		.cfi_def_cfa_offset 8
 629              		.cfi_offset 4, -8
 630              		.cfi_offset 14, -4
 631 000e 86B0     		sub	sp, sp, #24
 632              		.cfi_def_cfa_offset 32
  79:Processes.c   ****         sprintf(msg, "Alpha = %c\r", (A_Count + 'A'));
 633              		.loc 1 79 0
 634 0010 1446     		mov	r4, r2
 635 0012 4FF47A73 		mov	r3, #1000
 636 0016 D382     		strh	r3, [r2, #22]	@ movhi
  80:Processes.c   ****         PutStr(msg);
 637              		.loc 1 80 0
 638 0018 127D     		ldrb	r2, [r2, #20]	@ zero_extendqisi2
 639 001a 4132     		adds	r2, r2, #65
 640 001c 0949     		ldr	r1, .L61+4
 641 001e 01A8     		add	r0, sp, #4
 642 0020 FFF7FEFF 		bl	sprintf
 643              	.LVL17:
  81:Processes.c   ****         if(A_Count++ > 56) A_Count = 0;
 644              		.loc 1 81 0
 645 0024 01A8     		add	r0, sp, #4
 646 0026 FFF7FEFF 		bl	USB_PutString
 647              	.LVL18:
  82:Processes.c   **** //        Pin_LED_Write(~(Pin_LED_Read()));    // toggle the LED
 648              		.loc 1 82 0
 649 002a 237D     		ldrb	r3, [r4, #20]	@ zero_extendqisi2
 650 002c 5A1C     		adds	r2, r3, #1
 651 002e 2275     		strb	r2, [r4, #20]
 652 0030 382B     		cmp	r3, #56
 653 0032 01D9     		bls	.L57
  82:Processes.c   **** //        Pin_LED_Write(~(Pin_LED_Read()));    // toggle the LED
 654              		.loc 1 82 0 is_stmt 0 discriminator 1
 655 0034 0022     		movs	r2, #0
 656 0036 2275     		strb	r2, [r4, #20]
 657              	.L57:
  85:Processes.c   **** 
 658              		.loc 1 85 0 is_stmt 1
 659 0038 06B0     		add	sp, sp, #24
 660              		.cfi_def_cfa_offset 8
 661              		@ sp needed
 662 003a 10BD     		pop	{r4, pc}
 663              	.L60:
 664              		.cfi_def_cfa_offset 0
 665              		.cfi_restore 4
 666              		.cfi_restore 14
 667 003c 7047     		bx	lr
 668              	.L62:
 669 003e 00BF     		.align	2
 670              	.L61:
 671 0040 00000000 		.word	.LANCHOR0
ARM GAS  C:\Users\Dan\AppData\Local\Temp\cc6MxKM4.s 			page 21


 672 0044 0C000000 		.word	.LC1
 673              		.cfi_endproc
 674              	.LFE67:
 675              		.size	AlphaProcess, .-AlphaProcess
 676              		.section	.text.MPG_Set_Delay,"ax",%progbits
 677              		.align	2
 678              		.global	MPG_Set_Delay
 679              		.thumb
 680              		.thumb_func
 681              		.type	MPG_Set_Delay, %function
 682              	MPG_Set_Delay:
 683              	.LFB75:
 210:Processes.c   ****     TC_Delay = delay;
 684              		.loc 1 210 0
 685              		.cfi_startproc
 686              		@ args = 0, pretend = 0, frame = 0
 687              		@ frame_needed = 0, uses_anonymous_args = 0
 688              		@ link register save eliminated.
 689              	.LVL19:
 211:Processes.c   ****     TC_DelayStart = MS_Time;
 690              		.loc 1 211 0
 691 0000 054B     		ldr	r3, .L64
 692 0002 5860     		str	r0, [r3, #4]
 212:Processes.c   ****     DlyNextState = NextState;
 693              		.loc 1 212 0
 694 0004 054A     		ldr	r2, .L64+4
 695 0006 1268     		ldr	r2, [r2]
 696 0008 1A60     		str	r2, [r3]
 213:Processes.c   ****     MPG_SM = &MPG_Test_Delay;
 697              		.loc 1 213 0
 698 000a 054B     		ldr	r3, .L64+8
 699 000c 1960     		str	r1, [r3]
 214:Processes.c   **** }
 700              		.loc 1 214 0
 701 000e 054A     		ldr	r2, .L64+12
 702 0010 054B     		ldr	r3, .L64+16
 703 0012 1A60     		str	r2, [r3]
 704 0014 7047     		bx	lr
 705              	.L65:
 706 0016 00BF     		.align	2
 707              	.L64:
 708 0018 00000000 		.word	.LANCHOR0
 709 001c 00000000 		.word	MS_Time
 710 0020 00000000 		.word	DlyNextState
 711 0024 00000000 		.word	MPG_Test_Delay
 712 0028 00000000 		.word	MPG_SM
 713              		.cfi_endproc
 714              	.LFE75:
 715              		.size	MPG_Set_Delay, .-MPG_Set_Delay
 716              		.section	.text.MPG_Status,"ax",%progbits
 717              		.align	2
 718              		.global	MPG_Status
 719              		.thumb
 720              		.thumb_func
 721              		.type	MPG_Status, %function
 722              	MPG_Status:
 723              	.LFB76:
ARM GAS  C:\Users\Dan\AppData\Local\Temp\cc6MxKM4.s 			page 22


 220:Processes.c   ****     switch(MPG_STATE)
 724              		.loc 1 220 0
 725              		.cfi_startproc
 726              		@ args = 0, pretend = 0, frame = 0
 727              		@ frame_needed = 0, uses_anonymous_args = 0
 728 0000 08B5     		push	{r3, lr}
 729              		.cfi_def_cfa_offset 8
 730              		.cfi_offset 3, -8
 731              		.cfi_offset 14, -4
 221:Processes.c   ****     {
 732              		.loc 1 221 0
 733 0002 0C4B     		ldr	r3, .L74
 734 0004 1B78     		ldrb	r3, [r3]	@ zero_extendqisi2
 735 0006 013B     		subs	r3, r3, #1
 736 0008 032B     		cmp	r3, #3
 737 000a 12D8     		bhi	.L66
 738 000c DFE803F0 		tbb	[pc, r3]
 739              	.L69:
 740 0010 02       		.byte	(.L68-.L69)/2
 741 0011 06       		.byte	(.L70-.L69)/2
 742 0012 0A       		.byte	(.L71-.L69)/2
 743 0013 0E       		.byte	(.L72-.L69)/2
 744              		.p2align 1
 745              	.L68:
 224:Processes.c   ****             break;
 746              		.loc 1 224 0
 747 0014 0848     		ldr	r0, .L74+4
 748 0016 FFF7FEFF 		bl	USB_PutString
 749              	.LVL20:
 225:Processes.c   ****         case MPG_STATE_NORMAL :
 750              		.loc 1 225 0
 751 001a 08BD     		pop	{r3, pc}
 752              	.L70:
 227:Processes.c   ****             break;
 753              		.loc 1 227 0
 754 001c 0748     		ldr	r0, .L74+8
 755 001e FFF7FEFF 		bl	USB_PutString
 756              	.LVL21:
 228:Processes.c   ****         case MPG_STATE_ESTOP :
 757              		.loc 1 228 0
 758 0022 08BD     		pop	{r3, pc}
 759              	.L71:
 230:Processes.c   ****             break;
 760              		.loc 1 230 0
 761 0024 0648     		ldr	r0, .L74+12
 762 0026 FFF7FEFF 		bl	USB_PutString
 763              	.LVL22:
 231:Processes.c   ****         case MPG_STATE_FAULT :
 764              		.loc 1 231 0
 765 002a 08BD     		pop	{r3, pc}
 766              	.L72:
 233:Processes.c   ****             break;
 767              		.loc 1 233 0
 768 002c 0548     		ldr	r0, .L74+16
 769 002e FFF7FEFF 		bl	USB_PutString
 770              	.LVL23:
 771              	.L66:
ARM GAS  C:\Users\Dan\AppData\Local\Temp\cc6MxKM4.s 			page 23


 772 0032 08BD     		pop	{r3, pc}
 773              	.L75:
 774              		.align	2
 775              	.L74:
 776 0034 00000000 		.word	MPG_STATE
 777 0038 18000000 		.word	.LC2
 778 003c 24000000 		.word	.LC3
 779 0040 30000000 		.word	.LC4
 780 0044 3C000000 		.word	.LC5
 781              		.cfi_endproc
 782              	.LFE76:
 783              		.size	MPG_Status, .-MPG_Status
 784              		.section	.text.startSingleBlink,"ax",%progbits
 785              		.align	2
 786              		.global	startSingleBlink
 787              		.thumb
 788              		.thumb_func
 789              		.type	startSingleBlink, %function
 790              	startSingleBlink:
 791              	.LFB79:
 269:Processes.c   **** // add single blink to the MS process
 792              		.loc 1 269 0
 793              		.cfi_startproc
 794              		@ args = 0, pretend = 0, frame = 0
 795              		@ frame_needed = 0, uses_anonymous_args = 0
 796 0000 08B5     		push	{r3, lr}
 797              		.cfi_def_cfa_offset 8
 798              		.cfi_offset 3, -8
 799              		.cfi_offset 14, -4
 271:Processes.c   ****     Blink_Timer = MS_Time;
 800              		.loc 1 271 0
 801 0002 054A     		ldr	r2, .L78
 802 0004 054B     		ldr	r3, .L78+4
 803 0006 1A60     		str	r2, [r3]
 272:Processes.c   ****     Pin_LED_Write(0); // LED off
 804              		.loc 1 272 0
 805 0008 054B     		ldr	r3, .L78+8
 806 000a 1A68     		ldr	r2, [r3]
 807 000c 054B     		ldr	r3, .L78+12
 808 000e 9A60     		str	r2, [r3, #8]
 273:Processes.c   **** //    PutStr("LED Single\n");
 809              		.loc 1 273 0
 810 0010 0020     		movs	r0, #0
 811 0012 FFF7FEFF 		bl	Pin_LED_Write
 812              	.LVL24:
 813 0016 08BD     		pop	{r3, pc}
 814              	.L79:
 815              		.align	2
 816              	.L78:
 817 0018 00000000 		.word	SingleBlink
 818 001c 00000000 		.word	Blink_SM
 819 0020 00000000 		.word	MS_Time
 820 0024 00000000 		.word	.LANCHOR0
 821              		.cfi_endproc
 822              	.LFE79:
 823              		.size	startSingleBlink, .-startSingleBlink
 824              		.section	.text.startDoubleBlink,"ax",%progbits
ARM GAS  C:\Users\Dan\AppData\Local\Temp\cc6MxKM4.s 			page 24


 825              		.align	2
 826              		.global	startDoubleBlink
 827              		.thumb
 828              		.thumb_func
 829              		.type	startDoubleBlink, %function
 830              	startDoubleBlink:
 831              	.LFB81:
 287:Processes.c   ****     Blink_Timer = MS_Time;
 832              		.loc 1 287 0
 833              		.cfi_startproc
 834              		@ args = 0, pretend = 0, frame = 0
 835              		@ frame_needed = 0, uses_anonymous_args = 0
 836 0000 10B5     		push	{r4, lr}
 837              		.cfi_def_cfa_offset 8
 838              		.cfi_offset 4, -8
 839              		.cfi_offset 14, -4
 288:Processes.c   ****     Blink_SM = &DoubleBlink;
 840              		.loc 1 288 0
 841 0002 064B     		ldr	r3, .L82
 842 0004 1B68     		ldr	r3, [r3]
 843 0006 064C     		ldr	r4, .L82+4
 844 0008 A360     		str	r3, [r4, #8]
 289:Processes.c   ****     Pin_LED_Write(0);   // LED off
 845              		.loc 1 289 0
 846 000a 064A     		ldr	r2, .L82+8
 847 000c 064B     		ldr	r3, .L82+12
 848 000e 1A60     		str	r2, [r3]
 290:Processes.c   ****     BlinkCount = 1;     
 849              		.loc 1 290 0
 850 0010 0020     		movs	r0, #0
 851 0012 FFF7FEFF 		bl	Pin_LED_Write
 852              	.LVL25:
 291:Processes.c   **** //    PutStr("LED Double\n");
 853              		.loc 1 291 0
 854 0016 0123     		movs	r3, #1
 855 0018 E360     		str	r3, [r4, #12]
 856 001a 10BD     		pop	{r4, pc}
 857              	.L83:
 858              		.align	2
 859              	.L82:
 860 001c 00000000 		.word	MS_Time
 861 0020 00000000 		.word	.LANCHOR0
 862 0024 00000000 		.word	DoubleBlink
 863 0028 00000000 		.word	Blink_SM
 864              		.cfi_endproc
 865              	.LFE81:
 866              		.size	startDoubleBlink, .-startDoubleBlink
 867              		.section	.text.startLongBlink,"ax",%progbits
 868              		.align	2
 869              		.global	startLongBlink
 870              		.thumb
 871              		.thumb_func
 872              		.type	startLongBlink, %function
 873              	startLongBlink:
 874              	.LFB83:
 322:Processes.c   ****     Blink_SM = &LongBlink;
 875              		.loc 1 322 0
ARM GAS  C:\Users\Dan\AppData\Local\Temp\cc6MxKM4.s 			page 25


 876              		.cfi_startproc
 877              		@ args = 0, pretend = 0, frame = 0
 878              		@ frame_needed = 0, uses_anonymous_args = 0
 879 0000 08B5     		push	{r3, lr}
 880              		.cfi_def_cfa_offset 8
 881              		.cfi_offset 3, -8
 882              		.cfi_offset 14, -4
 323:Processes.c   ****     Blink_Timer = MS_Time;
 883              		.loc 1 323 0
 884 0002 054A     		ldr	r2, .L86
 885 0004 054B     		ldr	r3, .L86+4
 886 0006 1A60     		str	r2, [r3]
 324:Processes.c   ****     Pin_LED_Write(0);   // LED off
 887              		.loc 1 324 0
 888 0008 054B     		ldr	r3, .L86+8
 889 000a 1A68     		ldr	r2, [r3]
 890 000c 054B     		ldr	r3, .L86+12
 891 000e 9A60     		str	r2, [r3, #8]
 325:Processes.c   **** //    PutStr("LED Long\n");
 892              		.loc 1 325 0
 893 0010 0020     		movs	r0, #0
 894 0012 FFF7FEFF 		bl	Pin_LED_Write
 895              	.LVL26:
 896 0016 08BD     		pop	{r3, pc}
 897              	.L87:
 898              		.align	2
 899              	.L86:
 900 0018 00000000 		.word	LongBlink
 901 001c 00000000 		.word	Blink_SM
 902 0020 00000000 		.word	MS_Time
 903 0024 00000000 		.word	.LANCHOR0
 904              		.cfi_endproc
 905              	.LFE83:
 906              		.size	startLongBlink, .-startLongBlink
 907              		.section	.text.MPG_ESTOP,"ax",%progbits
 908              		.align	2
 909              		.global	MPG_ESTOP
 910              		.thumb
 911              		.thumb_func
 912              		.type	MPG_ESTOP, %function
 913              	MPG_ESTOP:
 914              	.LFB72:
 175:Processes.c   ****     MPG_STATE = MPG_STATE_ESTOP;
 915              		.loc 1 175 0
 916              		.cfi_startproc
 917              		@ args = 0, pretend = 0, frame = 0
 918              		@ frame_needed = 0, uses_anonymous_args = 0
 919 0000 08B5     		push	{r3, lr}
 920              		.cfi_def_cfa_offset 8
 921              		.cfi_offset 3, -8
 922              		.cfi_offset 14, -4
 176:Processes.c   ****     uint16 status = MPGStatusQuery();
 923              		.loc 1 176 0
 924 0002 0322     		movs	r2, #3
 925 0004 064B     		ldr	r3, .L91
 926 0006 1A70     		strb	r2, [r3]
 177:Processes.c   ****     if((status & (1 << ESTOP_STATUS_POS)) == 0)
ARM GAS  C:\Users\Dan\AppData\Local\Temp\cc6MxKM4.s 			page 26


 927              		.loc 1 177 0
 928 0008 FFF7FEFF 		bl	MPGStatusQuery
 929              	.LVL27:
 178:Processes.c   ****     {
 930              		.loc 1 178 0
 931 000c 00F40050 		and	r0, r0, #8192
 932              	.LVL28:
 933 0010 80B2     		uxth	r0, r0
 934 0012 20B9     		cbnz	r0, .L88
 180:Processes.c   ****         startLongBlink();
 935              		.loc 1 180 0
 936 0014 034A     		ldr	r2, .L91+4
 937 0016 044B     		ldr	r3, .L91+8
 938 0018 1A60     		str	r2, [r3]
 181:Processes.c   ****     }
 939              		.loc 1 181 0
 940 001a FFF7FEFF 		bl	startLongBlink
 941              	.LVL29:
 942              	.L88:
 943 001e 08BD     		pop	{r3, pc}
 944              	.L92:
 945              		.align	2
 946              	.L91:
 947 0020 00000000 		.word	MPG_STATE
 948 0024 00000000 		.word	MPG_IDLE
 949 0028 00000000 		.word	MPG_SM
 950              		.cfi_endproc
 951              	.LFE72:
 952              		.size	MPG_ESTOP, .-MPG_ESTOP
 953              		.section	.text.MPG_Fault,"ax",%progbits
 954              		.align	2
 955              		.global	MPG_Fault
 956              		.thumb
 957              		.thumb_func
 958              		.type	MPG_Fault, %function
 959              	MPG_Fault:
 960              	.LFB73:
 186:Processes.c   ****     MPG_STATE = MPG_STATE_FAULT;
 961              		.loc 1 186 0
 962              		.cfi_startproc
 963              		@ args = 0, pretend = 0, frame = 0
 964              		@ frame_needed = 0, uses_anonymous_args = 0
 965 0000 08B5     		push	{r3, lr}
 966              		.cfi_def_cfa_offset 8
 967              		.cfi_offset 3, -8
 968              		.cfi_offset 14, -4
 187:Processes.c   ****     // Fault!
 969              		.loc 1 187 0
 970 0002 0422     		movs	r2, #4
 971 0004 074B     		ldr	r3, .L96
 972 0006 1A70     		strb	r2, [r3]
 190:Processes.c   ****     {
 973              		.loc 1 190 0
 974 0008 074B     		ldr	r3, .L96+4
 975 000a 1B68     		ldr	r3, [r3]
 976 000c 074A     		ldr	r2, .L96+8
 977 000e 1268     		ldr	r2, [r2]
ARM GAS  C:\Users\Dan\AppData\Local\Temp\cc6MxKM4.s 			page 27


 978 0010 9B1A     		subs	r3, r3, r2
 979 0012 B3F52F7F 		cmp	r3, #700
 980 0016 04D2     		bcs	.L93
 192:Processes.c   ****         startLongBlink();
 981              		.loc 1 192 0
 982 0018 054A     		ldr	r2, .L96+12
 983 001a 064B     		ldr	r3, .L96+16
 984 001c 1A60     		str	r2, [r3]
 193:Processes.c   ****     }
 985              		.loc 1 193 0
 986 001e FFF7FEFF 		bl	startLongBlink
 987              	.LVL30:
 988              	.L93:
 989 0022 08BD     		pop	{r3, pc}
 990              	.L97:
 991              		.align	2
 992              	.L96:
 993 0024 00000000 		.word	MPG_STATE
 994 0028 00000000 		.word	MS_Time
 995 002c 00000000 		.word	StatusMSGTime
 996 0030 00000000 		.word	MPG_IDLE
 997 0034 00000000 		.word	MPG_SM
 998              		.cfi_endproc
 999              	.LFE73:
 1000              		.size	MPG_Fault, .-MPG_Fault
 1001              		.section	.text.startLongShortBlink,"ax",%progbits
 1002              		.align	2
 1003              		.global	startLongShortBlink
 1004              		.thumb
 1005              		.thumb_func
 1006              		.type	startLongShortBlink, %function
 1007              	startLongShortBlink:
 1008              	.LFB85:
 350:Processes.c   ****     Blink_SM = &LongShortBlink;
 1009              		.loc 1 350 0
 1010              		.cfi_startproc
 1011              		@ args = 0, pretend = 0, frame = 0
 1012              		@ frame_needed = 0, uses_anonymous_args = 0
 1013 0000 08B5     		push	{r3, lr}
 1014              		.cfi_def_cfa_offset 8
 1015              		.cfi_offset 3, -8
 1016              		.cfi_offset 14, -4
 351:Processes.c   ****     Blink_Timer = MS_Time;
 1017              		.loc 1 351 0
 1018 0002 054A     		ldr	r2, .L100
 1019 0004 054B     		ldr	r3, .L100+4
 1020 0006 1A60     		str	r2, [r3]
 352:Processes.c   ****     Pin_LED_Write(0);   // LED off  
 1021              		.loc 1 352 0
 1022 0008 054B     		ldr	r3, .L100+8
 1023 000a 1A68     		ldr	r2, [r3]
 1024 000c 054B     		ldr	r3, .L100+12
 1025 000e 9A60     		str	r2, [r3, #8]
 353:Processes.c   **** //    PutStr("LED LongShort\n");
 1026              		.loc 1 353 0
 1027 0010 0020     		movs	r0, #0
 1028 0012 FFF7FEFF 		bl	Pin_LED_Write
ARM GAS  C:\Users\Dan\AppData\Local\Temp\cc6MxKM4.s 			page 28


 1029              	.LVL31:
 1030 0016 08BD     		pop	{r3, pc}
 1031              	.L101:
 1032              		.align	2
 1033              	.L100:
 1034 0018 00000000 		.word	LongShortBlink
 1035 001c 00000000 		.word	Blink_SM
 1036 0020 00000000 		.word	MS_Time
 1037 0024 00000000 		.word	.LANCHOR0
 1038              		.cfi_endproc
 1039              	.LFE85:
 1040              		.size	startLongShortBlink, .-startLongShortBlink
 1041              		.section	.text.Init_MPG_StateMachine,"ax",%progbits
 1042              		.align	2
 1043              		.global	Init_MPG_StateMachine
 1044              		.thumb
 1045              		.thumb_func
 1046              		.type	Init_MPG_StateMachine, %function
 1047              	Init_MPG_StateMachine:
 1048              	.LFB68:
  95:Processes.c   ****     if(Process_Running(MsProcess, MPG_StateMachine))
 1049              		.loc 1 95 0
 1050              		.cfi_startproc
 1051              		@ args = 0, pretend = 0, frame = 0
 1052              		@ frame_needed = 0, uses_anonymous_args = 0
 1053 0000 08B5     		push	{r3, lr}
 1054              		.cfi_def_cfa_offset 8
 1055              		.cfi_offset 3, -8
 1056              		.cfi_offset 14, -4
  96:Processes.c   ****     {
 1057              		.loc 1 96 0
 1058 0002 1549     		ldr	r1, .L108
 1059 0004 1548     		ldr	r0, .L108+4
 1060 0006 FFF7FEFF 		bl	Process_Running
 1061              	.LVL32:
 1062 000a 18B1     		cbz	r0, .L103
  98:Processes.c   ****     } else {
 1063              		.loc 1 98 0
 1064 000c 1448     		ldr	r0, .L108+8
 1065 000e FFF7FEFF 		bl	USB_PutString
 1066              	.LVL33:
 1067 0012 09E0     		b	.L104
 1068              	.L103:
 102:Processes.c   ****         PutStr("MPG State Machine Started");
 1069              		.loc 1 102 0
 1070 0014 1049     		ldr	r1, .L108
 1071 0016 1348     		ldr	r0, .L108+12
 1072 0018 FFF7FEFF 		bl	Add_Process
 1073              	.LVL34:
 103:Processes.c   ****         MPG_SM = &MPG_Fault;
 1074              		.loc 1 103 0
 1075 001c 1248     		ldr	r0, .L108+16
 1076 001e FFF7FEFF 		bl	USB_PutString
 1077              	.LVL35:
 104:Processes.c   ****     } 
 1078              		.loc 1 104 0
 1079 0022 124A     		ldr	r2, .L108+20
ARM GAS  C:\Users\Dan\AppData\Local\Temp\cc6MxKM4.s 			page 29


 1080 0024 124B     		ldr	r3, .L108+24
 1081 0026 1A60     		str	r2, [r3]
 1082              	.L104:
 106:Processes.c   ****     {
 1083              		.loc 1 106 0
 1084 0028 1249     		ldr	r1, .L108+28
 1085 002a 0C48     		ldr	r0, .L108+4
 1086 002c FFF7FEFF 		bl	Process_Running
 1087              	.LVL36:
 1088 0030 18B1     		cbz	r0, .L105
 108:Processes.c   ****     } 
 1089              		.loc 1 108 0
 1090 0032 1148     		ldr	r0, .L108+32
 1091 0034 FFF7FEFF 		bl	USB_PutString
 1092              	.LVL37:
 1093 0038 08E0     		b	.L106
 1094              	.L105:
 112:Processes.c   ****         PutStr("Blink State Machine Started");
 1095              		.loc 1 112 0
 1096 003a 0E49     		ldr	r1, .L108+28
 1097 003c 0748     		ldr	r0, .L108+4
 1098 003e FFF7FEFF 		bl	Add_Process
 1099              	.LVL38:
 113:Processes.c   ****         startLongShortBlink();
 1100              		.loc 1 113 0
 1101 0042 0E48     		ldr	r0, .L108+36
 1102 0044 FFF7FEFF 		bl	USB_PutString
 1103              	.LVL39:
 114:Processes.c   ****     }
 1104              		.loc 1 114 0
 1105 0048 FFF7FEFF 		bl	startLongShortBlink
 1106              	.LVL40:
 1107              	.L106:
 117:Processes.c   **** }
 1108              		.loc 1 117 0
 1109 004c FFF7FEFF 		bl	MPGStatusQuery
 1110              	.LVL41:
 1111 0050 0B4B     		ldr	r3, .L108+40
 1112 0052 1883     		strh	r0, [r3, #24]	@ movhi
 1113 0054 08BD     		pop	{r3, pc}
 1114              	.L109:
 1115 0056 00BF     		.align	2
 1116              	.L108:
 1117 0058 00000000 		.word	MPG_StateMachine
 1118 005c 00000000 		.word	MsProcess
 1119 0060 48000000 		.word	.LC6
 1120 0064 00000000 		.word	FastProcess
 1121 0068 6C000000 		.word	.LC7
 1122 006c 00000000 		.word	MPG_Fault
 1123 0070 00000000 		.word	MPG_SM
 1124 0074 00000000 		.word	Blink_StateMachine
 1125 0078 88000000 		.word	.LC8
 1126 007c A8000000 		.word	.LC9
 1127 0080 00000000 		.word	.LANCHOR0
 1128              		.cfi_endproc
 1129              	.LFE68:
 1130              		.size	Init_MPG_StateMachine, .-Init_MPG_StateMachine
ARM GAS  C:\Users\Dan\AppData\Local\Temp\cc6MxKM4.s 			page 30


 1131              		.section	.text.In_Fault,"ax",%progbits
 1132              		.align	2
 1133              		.global	In_Fault
 1134              		.thumb
 1135              		.thumb_func
 1136              		.type	In_Fault, %function
 1137              	In_Fault:
 1138              	.LFB77:
 243:Processes.c   ****     // check for a fault
 1139              		.loc 1 243 0
 1140              		.cfi_startproc
 1141              		@ args = 0, pretend = 0, frame = 0
 1142              		@ frame_needed = 0, uses_anonymous_args = 0
 1143 0000 08B5     		push	{r3, lr}
 1144              		.cfi_def_cfa_offset 8
 1145              		.cfi_offset 3, -8
 1146              		.cfi_offset 14, -4
 246:Processes.c   ****     {
 1147              		.loc 1 246 0
 1148 0002 084B     		ldr	r3, .L114
 1149 0004 1B68     		ldr	r3, [r3]
 1150 0006 084A     		ldr	r2, .L114+4
 1151 0008 1268     		ldr	r2, [r2]
 1152 000a 9B1A     		subs	r3, r3, r2
 1153 000c B3F52F7F 		cmp	r3, #700
 1154 0010 06D9     		bls	.L112
 248:Processes.c   ****         startLongShortBlink();
 1155              		.loc 1 248 0
 1156 0012 064A     		ldr	r2, .L114+8
 1157 0014 064B     		ldr	r3, .L114+12
 1158 0016 1A60     		str	r2, [r3]
 249:Processes.c   ****         return 1;
 1159              		.loc 1 249 0
 1160 0018 FFF7FEFF 		bl	startLongShortBlink
 1161              	.LVL42:
 250:Processes.c   ****     }
 1162              		.loc 1 250 0
 1163 001c 0120     		movs	r0, #1
 1164 001e 08BD     		pop	{r3, pc}
 1165              	.L112:
 254:Processes.c   ****     }
 1166              		.loc 1 254 0
 1167 0020 0020     		movs	r0, #0
 256:Processes.c   **** 
 1168              		.loc 1 256 0
 1169 0022 08BD     		pop	{r3, pc}
 1170              	.L115:
 1171              		.align	2
 1172              	.L114:
 1173 0024 00000000 		.word	MS_Time
 1174 0028 00000000 		.word	StatusMSGTime
 1175 002c 00000000 		.word	MPG_Fault
 1176 0030 00000000 		.word	MPG_SM
 1177              		.cfi_endproc
 1178              	.LFE77:
 1179              		.size	In_Fault, .-In_Fault
 1180              		.section	.text.startFastBlink,"ax",%progbits
ARM GAS  C:\Users\Dan\AppData\Local\Temp\cc6MxKM4.s 			page 31


 1181              		.align	2
 1182              		.global	startFastBlink
 1183              		.thumb
 1184              		.thumb_func
 1185              		.type	startFastBlink, %function
 1186              	startFastBlink:
 1187              	.LFB87:
 379:Processes.c   ****     Blink_SM = &FastBlink;
 1188              		.loc 1 379 0
 1189              		.cfi_startproc
 1190              		@ args = 0, pretend = 0, frame = 0
 1191              		@ frame_needed = 0, uses_anonymous_args = 0
 1192 0000 08B5     		push	{r3, lr}
 1193              		.cfi_def_cfa_offset 8
 1194              		.cfi_offset 3, -8
 1195              		.cfi_offset 14, -4
 380:Processes.c   ****     Blink_Timer = MS_Time;
 1196              		.loc 1 380 0
 1197 0002 054A     		ldr	r2, .L118
 1198 0004 054B     		ldr	r3, .L118+4
 1199 0006 1A60     		str	r2, [r3]
 381:Processes.c   ****     Pin_LED_Write(0);   // LED off 
 1200              		.loc 1 381 0
 1201 0008 054B     		ldr	r3, .L118+8
 1202 000a 1A68     		ldr	r2, [r3]
 1203 000c 054B     		ldr	r3, .L118+12
 1204 000e 9A60     		str	r2, [r3, #8]
 382:Processes.c   ****  //   PutStr("LED Fast\n");
 1205              		.loc 1 382 0
 1206 0010 0020     		movs	r0, #0
 1207 0012 FFF7FEFF 		bl	Pin_LED_Write
 1208              	.LVL43:
 1209 0016 08BD     		pop	{r3, pc}
 1210              	.L119:
 1211              		.align	2
 1212              	.L118:
 1213 0018 00000000 		.word	FastBlink
 1214 001c 00000000 		.word	Blink_SM
 1215 0020 00000000 		.word	MS_Time
 1216 0024 00000000 		.word	.LANCHOR0
 1217              		.cfi_endproc
 1218              	.LFE87:
 1219              		.size	startFastBlink, .-startFastBlink
 1220              		.section	.text.MPG_IDLE,"ax",%progbits
 1221              		.align	2
 1222              		.global	MPG_IDLE
 1223              		.thumb
 1224              		.thumb_func
 1225              		.type	MPG_IDLE, %function
 1226              	MPG_IDLE:
 1227              	.LFB70:
 130:Processes.c   ****     MPG_STATE = MPG_STATE_IDLE;
 1228              		.loc 1 130 0
 1229              		.cfi_startproc
 1230              		@ args = 0, pretend = 0, frame = 0
 1231              		@ frame_needed = 0, uses_anonymous_args = 0
 1232 0000 08B5     		push	{r3, lr}
ARM GAS  C:\Users\Dan\AppData\Local\Temp\cc6MxKM4.s 			page 32


 1233              		.cfi_def_cfa_offset 8
 1234              		.cfi_offset 3, -8
 1235              		.cfi_offset 14, -4
 131:Processes.c   ****     // waiting for a command to start a motion
 1236              		.loc 1 131 0
 1237 0002 0122     		movs	r2, #1
 1238 0004 0D4B     		ldr	r3, .L124
 1239 0006 1A70     		strb	r2, [r3]
 134:Processes.c   ****     // if status switch is not on OFF then switch to normal
 1240              		.loc 1 134 0
 1241 0008 FFF7FEFF 		bl	In_Fault
 1242              	.LVL44:
 137:Processes.c   ****     if((PrevStatus & (1 << OFF_POS)) == 0)  
 1243              		.loc 1 137 0
 1244 000c FFF7FEFF 		bl	MPGStatusQuery
 1245              	.LVL45:
 1246 0010 0B4B     		ldr	r3, .L124+4
 1247 0012 1883     		strh	r0, [r3, #24]	@ movhi
 138:Processes.c   ****     {
 1248              		.loc 1 138 0
 1249 0014 00F04003 		and	r3, r0, #64
 1250 0018 9BB2     		uxth	r3, r3
 1251 001a 2BB9     		cbnz	r3, .L121
 140:Processes.c   ****         Blink_SM = &NoBlink;
 1252              		.loc 1 140 0
 1253 001c 094A     		ldr	r2, .L124+8
 1254 001e 0A4B     		ldr	r3, .L124+12
 1255 0020 1A60     		str	r2, [r3]
 141:Processes.c   ****     }
 1256              		.loc 1 141 0
 1257 0022 0A4A     		ldr	r2, .L124+16
 1258 0024 0A4B     		ldr	r3, .L124+20
 1259 0026 1A60     		str	r2, [r3]
 1260              	.L121:
 143:Processes.c   ****     {
 1261              		.loc 1 143 0
 1262 0028 00F40050 		and	r0, r0, #8192
 1263 002c 80B2     		uxth	r0, r0
 1264 002e 20B1     		cbz	r0, .L120
 145:Processes.c   ****         startFastBlink();
 1265              		.loc 1 145 0
 1266 0030 084A     		ldr	r2, .L124+24
 1267 0032 054B     		ldr	r3, .L124+12
 1268 0034 1A60     		str	r2, [r3]
 146:Processes.c   ****     }
 1269              		.loc 1 146 0
 1270 0036 FFF7FEFF 		bl	startFastBlink
 1271              	.LVL46:
 1272              	.L120:
 1273 003a 08BD     		pop	{r3, pc}
 1274              	.L125:
 1275              		.align	2
 1276              	.L124:
 1277 003c 00000000 		.word	MPG_STATE
 1278 0040 00000000 		.word	.LANCHOR0
 1279 0044 00000000 		.word	MPG_Normal
 1280 0048 00000000 		.word	MPG_SM
ARM GAS  C:\Users\Dan\AppData\Local\Temp\cc6MxKM4.s 			page 33


 1281 004c 00000000 		.word	NoBlink
 1282 0050 00000000 		.word	Blink_SM
 1283 0054 00000000 		.word	MPG_ESTOP
 1284              		.cfi_endproc
 1285              	.LFE70:
 1286              		.size	MPG_IDLE, .-MPG_IDLE
 1287              		.section	.text.MPG_Normal,"ax",%progbits
 1288              		.align	2
 1289              		.global	MPG_Normal
 1290              		.thumb
 1291              		.thumb_func
 1292              		.type	MPG_Normal, %function
 1293              	MPG_Normal:
 1294              	.LFB71:
 151:Processes.c   ****     MPG_STATE = MPG_STATE_NORMAL;
 1295              		.loc 1 151 0
 1296              		.cfi_startproc
 1297              		@ args = 0, pretend = 0, frame = 0
 1298              		@ frame_needed = 0, uses_anonymous_args = 0
 1299 0000 10B5     		push	{r4, lr}
 1300              		.cfi_def_cfa_offset 8
 1301              		.cfi_offset 4, -8
 1302              		.cfi_offset 14, -4
 152:Processes.c   ****     In_Fault();
 1303              		.loc 1 152 0
 1304 0002 0222     		movs	r2, #2
 1305 0004 134B     		ldr	r3, .L131
 1306 0006 1A70     		strb	r2, [r3]
 153:Processes.c   ****     uint16_t xstatus = MPGStatusQuery();
 1307              		.loc 1 153 0
 1308 0008 FFF7FEFF 		bl	In_Fault
 1309              	.LVL47:
 154:Processes.c   ****     if(PrevStatus != xstatus)
 1310              		.loc 1 154 0
 1311 000c FFF7FEFF 		bl	MPGStatusQuery
 1312              	.LVL48:
 1313 0010 0446     		mov	r4, r0
 1314              	.LVL49:
 155:Processes.c   ****     {
 1315              		.loc 1 155 0
 1316 0012 114B     		ldr	r3, .L131+4
 1317 0014 1B8B     		ldrh	r3, [r3, #24]
 1318 0016 9842     		cmp	r0, r3
 1319 0018 08D0     		beq	.L127
 158:Processes.c   ****         PrevStatus = xstatus; 
 1320              		.loc 1 158 0
 1321 001a FFF7FEFF 		bl	startDoubleBlink
 1322              	.LVL50:
 159:Processes.c   ****         MPG_Set_Delay(25, &MPG_Normal);
 1323              		.loc 1 159 0
 1324 001e 0E4B     		ldr	r3, .L131+4
 1325 0020 1C83     		strh	r4, [r3, #24]	@ movhi
 160:Processes.c   ****         
 1326              		.loc 1 160 0
 1327 0022 0E49     		ldr	r1, .L131+8
 1328 0024 1920     		movs	r0, #25
 1329 0026 FFF7FEFF 		bl	MPG_Set_Delay
ARM GAS  C:\Users\Dan\AppData\Local\Temp\cc6MxKM4.s 			page 34


 1330              	.LVL51:
 1331 002a 08E0     		b	.L128
 1332              	.LVL52:
 1333              	.L127:
 162:Processes.c   ****     {
 1334              		.loc 1 162 0
 1335 002c 00F04003 		and	r3, r0, #64
 1336 0030 9BB2     		uxth	r3, r3
 1337 0032 23B1     		cbz	r3, .L128
 164:Processes.c   ****         startLongBlink();
 1338              		.loc 1 164 0
 1339 0034 0A4A     		ldr	r2, .L131+12
 1340 0036 0B4B     		ldr	r3, .L131+16
 1341 0038 1A60     		str	r2, [r3]
 165:Processes.c   ****     }
 1342              		.loc 1 165 0
 1343 003a FFF7FEFF 		bl	startLongBlink
 1344              	.LVL53:
 1345              	.L128:
 167:Processes.c   ****     {
 1346              		.loc 1 167 0
 1347 003e 04F40054 		and	r4, r4, #8192
 1348 0042 A4B2     		uxth	r4, r4
 1349 0044 24B1     		cbz	r4, .L126
 169:Processes.c   ****         startFastBlink();
 1350              		.loc 1 169 0
 1351 0046 084A     		ldr	r2, .L131+20
 1352 0048 064B     		ldr	r3, .L131+16
 1353 004a 1A60     		str	r2, [r3]
 170:Processes.c   ****     }
 1354              		.loc 1 170 0
 1355 004c FFF7FEFF 		bl	startFastBlink
 1356              	.LVL54:
 1357              	.L126:
 1358 0050 10BD     		pop	{r4, pc}
 1359              	.L132:
 1360 0052 00BF     		.align	2
 1361              	.L131:
 1362 0054 00000000 		.word	MPG_STATE
 1363 0058 00000000 		.word	.LANCHOR0
 1364 005c 00000000 		.word	MPG_Normal
 1365 0060 00000000 		.word	MPG_IDLE
 1366 0064 00000000 		.word	MPG_SM
 1367 0068 00000000 		.word	MPG_ESTOP
 1368              		.cfi_endproc
 1369              	.LFE71:
 1370              		.size	MPG_Normal, .-MPG_Normal
 1371              		.comm	Carousel_Dir,1,1
 1372              		.comm	Target_Tool,1,1
 1373              		.comm	Current_Tool,1,1
 1374              		.comm	Blink_STATE,1,1
 1375              		.comm	Blink_SM,4,4
 1376              		.comm	DlyNextState,4,4
 1377              		.comm	MPG_STATE,1,1
 1378              		.comm	MPG_SM,4,4
 1379              		.section	.rodata.str1.4,"aMS",%progbits,1
 1380              		.align	2
ARM GAS  C:\Users\Dan\AppData\Local\Temp\cc6MxKM4.s 			page 35


 1381              	.LC0:
 1382 0000 436F756E 		.ascii	"Count = %d\015\000"
 1382      74203D20 
 1382      25640D00 
 1383              	.LC1:
 1384 000c 416C7068 		.ascii	"Alpha = %c\015\000"
 1384      61203D20 
 1384      25630D00 
 1385              	.LC2:
 1386 0018 4D504720 		.ascii	"MPG IDLE\000"
 1386      49444C45 
 1386      00
 1387 0021 000000   		.space	3
 1388              	.LC3:
 1389 0024 4D504720 		.ascii	"MPG Normal\000"
 1389      4E6F726D 
 1389      616C00
 1390 002f 00       		.space	1
 1391              	.LC4:
 1392 0030 4D504720 		.ascii	"MPG ESTOP\000"
 1392      4553544F 
 1392      5000
 1393 003a 0000     		.space	2
 1394              	.LC5:
 1395 003c 4D504720 		.ascii	"MPG FAULT\000"
 1395      4641554C 
 1395      5400
 1396 0046 0000     		.space	2
 1397              	.LC6:
 1398 0048 53746174 		.ascii	"Status Process already running!\012\000"
 1398      75732050 
 1398      726F6365 
 1398      73732061 
 1398      6C726561 
 1399 0069 000000   		.space	3
 1400              	.LC7:
 1401 006c 4D504720 		.ascii	"MPG State Machine Started\000"
 1401      53746174 
 1401      65204D61 
 1401      6368696E 
 1401      65205374 
 1402 0086 0000     		.space	2
 1403              	.LC8:
 1404 0088 426C696E 		.ascii	"Blink Process already running\012\000"
 1404      6B205072 
 1404      6F636573 
 1404      7320616C 
 1404      72656164 
 1405 00a7 00       		.space	1
 1406              	.LC9:
 1407 00a8 426C696E 		.ascii	"Blink State Machine Started\000"
 1407      6B205374 
 1407      61746520 
 1407      4D616368 
 1407      696E6520 
 1408              		.bss
 1409              		.align	2
ARM GAS  C:\Users\Dan\AppData\Local\Temp\cc6MxKM4.s 			page 36


 1410              		.set	.LANCHOR0,. + 0
 1411              		.type	TC_DelayStart, %object
 1412              		.size	TC_DelayStart, 4
 1413              	TC_DelayStart:
 1414 0000 00000000 		.space	4
 1415              		.type	TC_Delay, %object
 1416              		.size	TC_Delay, 4
 1417              	TC_Delay:
 1418 0004 00000000 		.space	4
 1419              		.type	Blink_Timer, %object
 1420              		.size	Blink_Timer, 4
 1421              	Blink_Timer:
 1422 0008 00000000 		.space	4
 1423              		.type	BlinkCount, %object
 1424              		.size	BlinkCount, 4
 1425              	BlinkCount:
 1426 000c 00000000 		.space	4
 1427              		.type	C_Count, %object
 1428              		.size	C_Count, 2
 1429              	C_Count:
 1430 0010 0000     		.space	2
 1431              		.type	SecCount, %object
 1432              		.size	SecCount, 2
 1433              	SecCount:
 1434 0012 0000     		.space	2
 1435              		.type	A_Count, %object
 1436              		.size	A_Count, 1
 1437              	A_Count:
 1438 0014 00       		.space	1
 1439 0015 00       		.space	1
 1440              		.type	S_Count, %object
 1441              		.size	S_Count, 2
 1442              	S_Count:
 1443 0016 0000     		.space	2
 1444              		.type	PrevStatus, %object
 1445              		.size	PrevStatus, 2
 1446              	PrevStatus:
 1447 0018 0000     		.space	2
 1448              		.text
 1449              	.Letext0:
 1450              		.file 2 "c:\\program files (x86)\\cypress\\psoc creator\\4.2\\psoc creator\\import\\gnu\\arm\\5.4.
 1451              		.file 3 "c:\\program files (x86)\\cypress\\psoc creator\\4.2\\psoc creator\\import\\gnu\\arm\\5.4.
 1452              		.file 4 "Generated_Source\\PSoC5/cytypes.h"
 1453              		.file 5 "State_Machine.h"
 1454              		.file 6 "Generated_Source\\PSoC5/core_cm3.h"
 1455              		.file 7 "Generated_Source\\PSoC5/Pin_LED.h"
 1456              		.file 8 "c:\\program files (x86)\\cypress\\psoc creator\\4.2\\psoc creator\\import\\gnu\\arm\\5.4.
 1457              		.file 9 "U_HW.h"
 1458              		.file 10 "MPGCmds.h"