ARM GAS  C:\Users\Dan\AppData\Local\Temp\ccI9PlTc.s 			page 1


   1              		.syntax unified
   2              		.cpu cortex-m3
   3              		.fpu softvfp
   4              		.eabi_attribute 20, 1
   5              		.eabi_attribute 21, 1
   6              		.eabi_attribute 23, 3
   7              		.eabi_attribute 24, 1
   8              		.eabi_attribute 25, 1
   9              		.eabi_attribute 26, 1
  10              		.eabi_attribute 30, 1
  11              		.eabi_attribute 34, 1
  12              		.eabi_attribute 18, 4
  13              		.thumb
  14              		.syntax unified
  15              		.file	"QuadDec_Rem.c"
  16              		.text
  17              	.Ltext0:
  18              		.cfi_sections	.debug_frame
  19              		.section	.text.QuadDec_Rem_Init,"ax",%progbits
  20              		.align	2
  21              		.global	QuadDec_Rem_Init
  22              		.thumb
  23              		.thumb_func
  24              		.type	QuadDec_Rem_Init, %function
  25              	QuadDec_Rem_Init:
  26              	.LFB0:
  27              		.file 1 "Generated_Source\\PSoC5\\QuadDec_Rem.c"
   1:Generated_Source\PSoC5/QuadDec_Rem.c **** /*******************************************************************************
   2:Generated_Source\PSoC5/QuadDec_Rem.c **** * File Name: QuadDec_Rem.c  
   3:Generated_Source\PSoC5/QuadDec_Rem.c **** * Version 3.0
   4:Generated_Source\PSoC5/QuadDec_Rem.c **** *
   5:Generated_Source\PSoC5/QuadDec_Rem.c **** * Description:
   6:Generated_Source\PSoC5/QuadDec_Rem.c **** *  This file provides the source code to the API for the Quadrature Decoder
   7:Generated_Source\PSoC5/QuadDec_Rem.c **** *  component.
   8:Generated_Source\PSoC5/QuadDec_Rem.c **** *
   9:Generated_Source\PSoC5/QuadDec_Rem.c **** * Note:
  10:Generated_Source\PSoC5/QuadDec_Rem.c **** *  None.
  11:Generated_Source\PSoC5/QuadDec_Rem.c **** *   
  12:Generated_Source\PSoC5/QuadDec_Rem.c **** ********************************************************************************
  13:Generated_Source\PSoC5/QuadDec_Rem.c **** * Copyright 2008-2014, Cypress Semiconductor Corporation.  All rights reserved.
  14:Generated_Source\PSoC5/QuadDec_Rem.c **** * You may use this file only in accordance with the license, terms, conditions, 
  15:Generated_Source\PSoC5/QuadDec_Rem.c **** * disclaimers, and limitations in the end user license agreement accompanying 
  16:Generated_Source\PSoC5/QuadDec_Rem.c **** * the software package with which this file was provided.
  17:Generated_Source\PSoC5/QuadDec_Rem.c **** *******************************************************************************/
  18:Generated_Source\PSoC5/QuadDec_Rem.c **** 
  19:Generated_Source\PSoC5/QuadDec_Rem.c **** #include "QuadDec_Rem.h"
  20:Generated_Source\PSoC5/QuadDec_Rem.c **** 
  21:Generated_Source\PSoC5/QuadDec_Rem.c **** #if (QuadDec_Rem_COUNTER_SIZE == QuadDec_Rem_COUNTER_SIZE_32_BIT)
  22:Generated_Source\PSoC5/QuadDec_Rem.c ****     #include "QuadDec_Rem_PVT.h"
  23:Generated_Source\PSoC5/QuadDec_Rem.c **** #endif /* QuadDec_Rem_COUNTER_SIZE == QuadDec_Rem_COUNTER_SIZE_32_BIT */
  24:Generated_Source\PSoC5/QuadDec_Rem.c **** 
  25:Generated_Source\PSoC5/QuadDec_Rem.c **** uint8 QuadDec_Rem_initVar = 0u;
  26:Generated_Source\PSoC5/QuadDec_Rem.c **** 
  27:Generated_Source\PSoC5/QuadDec_Rem.c **** 
  28:Generated_Source\PSoC5/QuadDec_Rem.c **** /*******************************************************************************
  29:Generated_Source\PSoC5/QuadDec_Rem.c **** * Function Name: QuadDec_Rem_Init
  30:Generated_Source\PSoC5/QuadDec_Rem.c **** ********************************************************************************
ARM GAS  C:\Users\Dan\AppData\Local\Temp\ccI9PlTc.s 			page 2


  31:Generated_Source\PSoC5/QuadDec_Rem.c **** *
  32:Generated_Source\PSoC5/QuadDec_Rem.c **** * Summary:
  33:Generated_Source\PSoC5/QuadDec_Rem.c **** *  Inits/Restores default QuadDec configuration provided with customizer.
  34:Generated_Source\PSoC5/QuadDec_Rem.c **** *
  35:Generated_Source\PSoC5/QuadDec_Rem.c **** * Parameters:
  36:Generated_Source\PSoC5/QuadDec_Rem.c **** *  None.
  37:Generated_Source\PSoC5/QuadDec_Rem.c **** *
  38:Generated_Source\PSoC5/QuadDec_Rem.c **** * Return:
  39:Generated_Source\PSoC5/QuadDec_Rem.c **** *  None.
  40:Generated_Source\PSoC5/QuadDec_Rem.c **** *
  41:Generated_Source\PSoC5/QuadDec_Rem.c **** *******************************************************************************/
  42:Generated_Source\PSoC5/QuadDec_Rem.c **** void QuadDec_Rem_Init(void) 
  43:Generated_Source\PSoC5/QuadDec_Rem.c **** {
  28              		.loc 1 43 0
  29              		.cfi_startproc
  30              		@ args = 0, pretend = 0, frame = 0
  31              		@ frame_needed = 0, uses_anonymous_args = 0
  32              		@ link register save eliminated.
  33 0000 7047     		bx	lr
  34              		.cfi_endproc
  35              	.LFE0:
  36              		.size	QuadDec_Rem_Init, .-QuadDec_Rem_Init
  37 0002 00BF     		.section	.text.QuadDec_Rem_Stop,"ax",%progbits
  38              		.align	2
  39              		.global	QuadDec_Rem_Stop
  40              		.thumb
  41              		.thumb_func
  42              		.type	QuadDec_Rem_Stop, %function
  43              	QuadDec_Rem_Stop:
  44              	.LFB3:
  44:Generated_Source\PSoC5/QuadDec_Rem.c ****     #if (QuadDec_Rem_COUNTER_SIZE == QuadDec_Rem_COUNTER_SIZE_32_BIT)
  45:Generated_Source\PSoC5/QuadDec_Rem.c ****         /* Disable Interrupt. */
  46:Generated_Source\PSoC5/QuadDec_Rem.c ****         CyIntDisable(QuadDec_Rem_ISR_NUMBER);
  47:Generated_Source\PSoC5/QuadDec_Rem.c ****         /* Set the ISR to point to the QuadDec_Rem_isr Interrupt. */
  48:Generated_Source\PSoC5/QuadDec_Rem.c ****         (void) CyIntSetVector(QuadDec_Rem_ISR_NUMBER, & QuadDec_Rem_ISR);
  49:Generated_Source\PSoC5/QuadDec_Rem.c ****         /* Set the priority. */
  50:Generated_Source\PSoC5/QuadDec_Rem.c ****         CyIntSetPriority(QuadDec_Rem_ISR_NUMBER, QuadDec_Rem_ISR_PRIORITY);
  51:Generated_Source\PSoC5/QuadDec_Rem.c ****     #endif /* QuadDec_Rem_COUNTER_SIZE == QuadDec_Rem_COUNTER_SIZE_32_BIT */
  52:Generated_Source\PSoC5/QuadDec_Rem.c **** }
  53:Generated_Source\PSoC5/QuadDec_Rem.c **** 
  54:Generated_Source\PSoC5/QuadDec_Rem.c **** 
  55:Generated_Source\PSoC5/QuadDec_Rem.c **** /*******************************************************************************
  56:Generated_Source\PSoC5/QuadDec_Rem.c **** * Function Name: QuadDec_Rem_Enable
  57:Generated_Source\PSoC5/QuadDec_Rem.c **** ********************************************************************************
  58:Generated_Source\PSoC5/QuadDec_Rem.c **** *
  59:Generated_Source\PSoC5/QuadDec_Rem.c **** * Summary:
  60:Generated_Source\PSoC5/QuadDec_Rem.c **** *  This function enable interrupts from Component and also enable Component's
  61:Generated_Source\PSoC5/QuadDec_Rem.c **** *  ISR in case of 32-bit counter.
  62:Generated_Source\PSoC5/QuadDec_Rem.c **** *
  63:Generated_Source\PSoC5/QuadDec_Rem.c **** * Parameters:
  64:Generated_Source\PSoC5/QuadDec_Rem.c **** *  None.
  65:Generated_Source\PSoC5/QuadDec_Rem.c **** *
  66:Generated_Source\PSoC5/QuadDec_Rem.c **** * Return:
  67:Generated_Source\PSoC5/QuadDec_Rem.c **** *  None.
  68:Generated_Source\PSoC5/QuadDec_Rem.c **** *
  69:Generated_Source\PSoC5/QuadDec_Rem.c **** *******************************************************************************/
  70:Generated_Source\PSoC5/QuadDec_Rem.c **** void QuadDec_Rem_Enable(void) 
ARM GAS  C:\Users\Dan\AppData\Local\Temp\ccI9PlTc.s 			page 3


  71:Generated_Source\PSoC5/QuadDec_Rem.c **** {
  72:Generated_Source\PSoC5/QuadDec_Rem.c ****     uint8 enableInterrupts;
  73:Generated_Source\PSoC5/QuadDec_Rem.c **** 
  74:Generated_Source\PSoC5/QuadDec_Rem.c ****     QuadDec_Rem_SetInterruptMask(QuadDec_Rem_INIT_INT_MASK);
  75:Generated_Source\PSoC5/QuadDec_Rem.c **** 
  76:Generated_Source\PSoC5/QuadDec_Rem.c ****     /* Clear pending interrupts. */
  77:Generated_Source\PSoC5/QuadDec_Rem.c ****     (void) QuadDec_Rem_GetEvents();
  78:Generated_Source\PSoC5/QuadDec_Rem.c ****     
  79:Generated_Source\PSoC5/QuadDec_Rem.c ****     enableInterrupts = CyEnterCriticalSection();
  80:Generated_Source\PSoC5/QuadDec_Rem.c **** 
  81:Generated_Source\PSoC5/QuadDec_Rem.c ****     /* Enable interrupts from Statusi register */
  82:Generated_Source\PSoC5/QuadDec_Rem.c ****     QuadDec_Rem_SR_AUX_CONTROL |= QuadDec_Rem_INTERRUPTS_ENABLE;
  83:Generated_Source\PSoC5/QuadDec_Rem.c **** 
  84:Generated_Source\PSoC5/QuadDec_Rem.c ****     CyExitCriticalSection(enableInterrupts);        
  85:Generated_Source\PSoC5/QuadDec_Rem.c **** 
  86:Generated_Source\PSoC5/QuadDec_Rem.c ****     #if (QuadDec_Rem_COUNTER_SIZE == QuadDec_Rem_COUNTER_SIZE_32_BIT)
  87:Generated_Source\PSoC5/QuadDec_Rem.c ****         /* Enable Component interrupts */
  88:Generated_Source\PSoC5/QuadDec_Rem.c ****         CyIntEnable(QuadDec_Rem_ISR_NUMBER);
  89:Generated_Source\PSoC5/QuadDec_Rem.c ****     #endif /* QuadDec_Rem_COUNTER_SIZE == QuadDec_Rem_COUNTER_SIZE_32_BIT */
  90:Generated_Source\PSoC5/QuadDec_Rem.c **** }
  91:Generated_Source\PSoC5/QuadDec_Rem.c **** 
  92:Generated_Source\PSoC5/QuadDec_Rem.c **** 
  93:Generated_Source\PSoC5/QuadDec_Rem.c **** /*******************************************************************************
  94:Generated_Source\PSoC5/QuadDec_Rem.c **** * Function Name: QuadDec_Rem_Start
  95:Generated_Source\PSoC5/QuadDec_Rem.c **** ********************************************************************************
  96:Generated_Source\PSoC5/QuadDec_Rem.c **** *
  97:Generated_Source\PSoC5/QuadDec_Rem.c **** * Summary:
  98:Generated_Source\PSoC5/QuadDec_Rem.c **** *  Initializes UDBs and other relevant hardware.
  99:Generated_Source\PSoC5/QuadDec_Rem.c **** *  Resets counter, enables or disables all relevant interrupts.
 100:Generated_Source\PSoC5/QuadDec_Rem.c **** *  Starts monitoring the inputs and counting.
 101:Generated_Source\PSoC5/QuadDec_Rem.c **** *
 102:Generated_Source\PSoC5/QuadDec_Rem.c **** * Parameters:
 103:Generated_Source\PSoC5/QuadDec_Rem.c **** *  None.
 104:Generated_Source\PSoC5/QuadDec_Rem.c **** *
 105:Generated_Source\PSoC5/QuadDec_Rem.c **** * Return:
 106:Generated_Source\PSoC5/QuadDec_Rem.c **** *  None.
 107:Generated_Source\PSoC5/QuadDec_Rem.c **** *
 108:Generated_Source\PSoC5/QuadDec_Rem.c **** * Global variables:
 109:Generated_Source\PSoC5/QuadDec_Rem.c **** *  QuadDec_Rem_initVar - used to check initial configuration, modified on
 110:Generated_Source\PSoC5/QuadDec_Rem.c **** *  first function call.
 111:Generated_Source\PSoC5/QuadDec_Rem.c **** *
 112:Generated_Source\PSoC5/QuadDec_Rem.c **** * Reentrant:
 113:Generated_Source\PSoC5/QuadDec_Rem.c **** *  No.
 114:Generated_Source\PSoC5/QuadDec_Rem.c **** *
 115:Generated_Source\PSoC5/QuadDec_Rem.c **** *******************************************************************************/
 116:Generated_Source\PSoC5/QuadDec_Rem.c **** void QuadDec_Rem_Start(void) 
 117:Generated_Source\PSoC5/QuadDec_Rem.c **** {
 118:Generated_Source\PSoC5/QuadDec_Rem.c ****     #if (QuadDec_Rem_COUNTER_SIZE == QuadDec_Rem_COUNTER_SIZE_8_BIT)
 119:Generated_Source\PSoC5/QuadDec_Rem.c ****         QuadDec_Rem_Cnt8_Start();
 120:Generated_Source\PSoC5/QuadDec_Rem.c ****         QuadDec_Rem_Cnt8_WriteCounter(QuadDec_Rem_COUNTER_INIT_VALUE);
 121:Generated_Source\PSoC5/QuadDec_Rem.c ****     #else
 122:Generated_Source\PSoC5/QuadDec_Rem.c ****         /* (QuadDec_Rem_COUNTER_SIZE == QuadDec_Rem_COUNTER_SIZE_16_BIT) || 
 123:Generated_Source\PSoC5/QuadDec_Rem.c ****         *  (QuadDec_Rem_COUNTER_SIZE == QuadDec_Rem_COUNTER_SIZE_32_BIT) 
 124:Generated_Source\PSoC5/QuadDec_Rem.c ****         */
 125:Generated_Source\PSoC5/QuadDec_Rem.c ****         QuadDec_Rem_Cnt16_Start();
 126:Generated_Source\PSoC5/QuadDec_Rem.c ****         QuadDec_Rem_Cnt16_WriteCounter(QuadDec_Rem_COUNTER_INIT_VALUE);
 127:Generated_Source\PSoC5/QuadDec_Rem.c ****     #endif /* QuadDec_Rem_COUNTER_SIZE == QuadDec_Rem_COUNTER_SIZE_8_BIT */
ARM GAS  C:\Users\Dan\AppData\Local\Temp\ccI9PlTc.s 			page 4


 128:Generated_Source\PSoC5/QuadDec_Rem.c ****     
 129:Generated_Source\PSoC5/QuadDec_Rem.c ****     #if (QuadDec_Rem_COUNTER_SIZE == QuadDec_Rem_COUNTER_SIZE_32_BIT)        
 130:Generated_Source\PSoC5/QuadDec_Rem.c ****        QuadDec_Rem_count32SoftPart = 0;
 131:Generated_Source\PSoC5/QuadDec_Rem.c ****     #endif /* QuadDec_Rem_COUNTER_SIZE == QuadDec_Rem_COUNTER_SIZE_32_BIT */
 132:Generated_Source\PSoC5/QuadDec_Rem.c **** 
 133:Generated_Source\PSoC5/QuadDec_Rem.c ****     if (QuadDec_Rem_initVar == 0u)
 134:Generated_Source\PSoC5/QuadDec_Rem.c ****     {
 135:Generated_Source\PSoC5/QuadDec_Rem.c ****         QuadDec_Rem_Init();
 136:Generated_Source\PSoC5/QuadDec_Rem.c ****         QuadDec_Rem_initVar = 1u;
 137:Generated_Source\PSoC5/QuadDec_Rem.c ****     }
 138:Generated_Source\PSoC5/QuadDec_Rem.c **** 
 139:Generated_Source\PSoC5/QuadDec_Rem.c ****     QuadDec_Rem_Enable();
 140:Generated_Source\PSoC5/QuadDec_Rem.c **** }
 141:Generated_Source\PSoC5/QuadDec_Rem.c **** 
 142:Generated_Source\PSoC5/QuadDec_Rem.c **** 
 143:Generated_Source\PSoC5/QuadDec_Rem.c **** /*******************************************************************************
 144:Generated_Source\PSoC5/QuadDec_Rem.c **** * Function Name: QuadDec_Rem_Stop
 145:Generated_Source\PSoC5/QuadDec_Rem.c **** ********************************************************************************
 146:Generated_Source\PSoC5/QuadDec_Rem.c **** *
 147:Generated_Source\PSoC5/QuadDec_Rem.c **** * Summary:
 148:Generated_Source\PSoC5/QuadDec_Rem.c **** *  Turns off UDBs and other relevant hardware.
 149:Generated_Source\PSoC5/QuadDec_Rem.c **** *
 150:Generated_Source\PSoC5/QuadDec_Rem.c **** * Parameters:
 151:Generated_Source\PSoC5/QuadDec_Rem.c **** *  None.
 152:Generated_Source\PSoC5/QuadDec_Rem.c **** *
 153:Generated_Source\PSoC5/QuadDec_Rem.c **** * Return:
 154:Generated_Source\PSoC5/QuadDec_Rem.c **** *  None.
 155:Generated_Source\PSoC5/QuadDec_Rem.c **** *
 156:Generated_Source\PSoC5/QuadDec_Rem.c **** *******************************************************************************/
 157:Generated_Source\PSoC5/QuadDec_Rem.c **** void QuadDec_Rem_Stop(void) 
 158:Generated_Source\PSoC5/QuadDec_Rem.c **** {
  45              		.loc 1 158 0
  46              		.cfi_startproc
  47              		@ args = 0, pretend = 0, frame = 0
  48              		@ frame_needed = 0, uses_anonymous_args = 0
  49              		.loc 1 158 0
  50 0000 08B5     		push	{r3, lr}
  51              		.cfi_def_cfa_offset 8
  52              		.cfi_offset 3, -8
  53              		.cfi_offset 14, -4
 159:Generated_Source\PSoC5/QuadDec_Rem.c ****     uint8 enableInterrupts;
 160:Generated_Source\PSoC5/QuadDec_Rem.c **** 
 161:Generated_Source\PSoC5/QuadDec_Rem.c ****     #if (QuadDec_Rem_COUNTER_SIZE == QuadDec_Rem_COUNTER_SIZE_8_BIT)
 162:Generated_Source\PSoC5/QuadDec_Rem.c ****         QuadDec_Rem_Cnt8_Stop();
  54              		.loc 1 162 0
  55 0002 FFF7FEFF 		bl	QuadDec_Rem_Cnt8_Stop
  56              	.LVL0:
 163:Generated_Source\PSoC5/QuadDec_Rem.c ****     #else 
 164:Generated_Source\PSoC5/QuadDec_Rem.c ****         /* (QuadDec_Rem_COUNTER_SIZE == QuadDec_Rem_COUNTER_SIZE_16_BIT) ||
 165:Generated_Source\PSoC5/QuadDec_Rem.c ****         *  (QuadDec_Rem_COUNTER_SIZE == QuadDec_Rem_COUNTER_SIZE_32_BIT)
 166:Generated_Source\PSoC5/QuadDec_Rem.c ****         */
 167:Generated_Source\PSoC5/QuadDec_Rem.c ****         QuadDec_Rem_Cnt16_Stop();    /* counter disable */
 168:Generated_Source\PSoC5/QuadDec_Rem.c ****     #endif /* (QuadDec_Rem_COUNTER_SIZE == QuadDec_Rem_COUNTER_SIZE_8_BIT) */
 169:Generated_Source\PSoC5/QuadDec_Rem.c ****  
 170:Generated_Source\PSoC5/QuadDec_Rem.c ****     enableInterrupts = CyEnterCriticalSection();
  57              		.loc 1 170 0
  58 0006 FFF7FEFF 		bl	CyEnterCriticalSection
ARM GAS  C:\Users\Dan\AppData\Local\Temp\ccI9PlTc.s 			page 5


  59              	.LVL1:
 171:Generated_Source\PSoC5/QuadDec_Rem.c **** 
 172:Generated_Source\PSoC5/QuadDec_Rem.c ****     /* Disable interrupts interrupts from Statusi register */
 173:Generated_Source\PSoC5/QuadDec_Rem.c ****     QuadDec_Rem_SR_AUX_CONTROL &= (uint8) (~QuadDec_Rem_INTERRUPTS_ENABLE);
  60              		.loc 1 173 0
  61 000a 044A     		ldr	r2, .L4
  62 000c 1378     		ldrb	r3, [r2]	@ zero_extendqisi2
  63 000e 03F0EF03 		and	r3, r3, #239
  64 0012 1370     		strb	r3, [r2]
 174:Generated_Source\PSoC5/QuadDec_Rem.c **** 
 175:Generated_Source\PSoC5/QuadDec_Rem.c ****     CyExitCriticalSection(enableInterrupts);
  65              		.loc 1 175 0
  66 0014 FFF7FEFF 		bl	CyExitCriticalSection
  67              	.LVL2:
  68 0018 08BD     		pop	{r3, pc}
  69              	.L5:
  70 001a 00BF     		.align	2
  71              	.L4:
  72 001c 9A650040 		.word	1073767834
  73              		.cfi_endproc
  74              	.LFE3:
  75              		.size	QuadDec_Rem_Stop, .-QuadDec_Rem_Stop
  76              		.section	.text.QuadDec_Rem_GetCounter,"ax",%progbits
  77              		.align	2
  78              		.global	QuadDec_Rem_GetCounter
  79              		.thumb
  80              		.thumb_func
  81              		.type	QuadDec_Rem_GetCounter, %function
  82              	QuadDec_Rem_GetCounter:
  83              	.LFB4:
 176:Generated_Source\PSoC5/QuadDec_Rem.c **** 
 177:Generated_Source\PSoC5/QuadDec_Rem.c ****     #if (QuadDec_Rem_COUNTER_SIZE == QuadDec_Rem_COUNTER_SIZE_32_BIT)
 178:Generated_Source\PSoC5/QuadDec_Rem.c ****         CyIntDisable(QuadDec_Rem_ISR_NUMBER);    /* interrupt disable */
 179:Generated_Source\PSoC5/QuadDec_Rem.c ****     #endif /* QuadDec_Rem_COUNTER_SIZE == QuadDec_Rem_COUNTER_SIZE_32_BIT */
 180:Generated_Source\PSoC5/QuadDec_Rem.c **** }
 181:Generated_Source\PSoC5/QuadDec_Rem.c **** 
 182:Generated_Source\PSoC5/QuadDec_Rem.c **** 
 183:Generated_Source\PSoC5/QuadDec_Rem.c **** /*******************************************************************************
 184:Generated_Source\PSoC5/QuadDec_Rem.c **** * Function Name: QuadDec_Rem_GetCounter
 185:Generated_Source\PSoC5/QuadDec_Rem.c **** ********************************************************************************
 186:Generated_Source\PSoC5/QuadDec_Rem.c **** *
 187:Generated_Source\PSoC5/QuadDec_Rem.c **** * Summary:
 188:Generated_Source\PSoC5/QuadDec_Rem.c **** *  Reports the current value of the counter.
 189:Generated_Source\PSoC5/QuadDec_Rem.c **** *
 190:Generated_Source\PSoC5/QuadDec_Rem.c **** * Parameters:
 191:Generated_Source\PSoC5/QuadDec_Rem.c **** *  None.
 192:Generated_Source\PSoC5/QuadDec_Rem.c **** *
 193:Generated_Source\PSoC5/QuadDec_Rem.c **** * Return:
 194:Generated_Source\PSoC5/QuadDec_Rem.c **** *  The counter value. Return type is signed and per the counter size setting.
 195:Generated_Source\PSoC5/QuadDec_Rem.c **** *  A positive value indicates clockwise movement (B before A).
 196:Generated_Source\PSoC5/QuadDec_Rem.c **** *
 197:Generated_Source\PSoC5/QuadDec_Rem.c **** * Global variables:
 198:Generated_Source\PSoC5/QuadDec_Rem.c **** *  QuadDec_Rem_count32SoftPart - used to get hi 16 bit for current value
 199:Generated_Source\PSoC5/QuadDec_Rem.c **** *  of the 32-bit counter, when Counter size equal 32-bit.
 200:Generated_Source\PSoC5/QuadDec_Rem.c **** *
 201:Generated_Source\PSoC5/QuadDec_Rem.c **** *******************************************************************************/
 202:Generated_Source\PSoC5/QuadDec_Rem.c **** int8 QuadDec_Rem_GetCounter(void) 
ARM GAS  C:\Users\Dan\AppData\Local\Temp\ccI9PlTc.s 			page 6


 203:Generated_Source\PSoC5/QuadDec_Rem.c **** {
  84              		.loc 1 203 0
  85              		.cfi_startproc
  86              		@ args = 0, pretend = 0, frame = 0
  87              		@ frame_needed = 0, uses_anonymous_args = 0
  88 0000 08B5     		push	{r3, lr}
  89              		.cfi_def_cfa_offset 8
  90              		.cfi_offset 3, -8
  91              		.cfi_offset 14, -4
 204:Generated_Source\PSoC5/QuadDec_Rem.c ****     int8 count;
 205:Generated_Source\PSoC5/QuadDec_Rem.c ****     uint8 tmpCnt;
 206:Generated_Source\PSoC5/QuadDec_Rem.c **** 
 207:Generated_Source\PSoC5/QuadDec_Rem.c ****     #if (QuadDec_Rem_COUNTER_SIZE == QuadDec_Rem_COUNTER_SIZE_32_BIT)
 208:Generated_Source\PSoC5/QuadDec_Rem.c ****         int16 hwCount;
 209:Generated_Source\PSoC5/QuadDec_Rem.c **** 
 210:Generated_Source\PSoC5/QuadDec_Rem.c ****         CyIntDisable(QuadDec_Rem_ISR_NUMBER);
 211:Generated_Source\PSoC5/QuadDec_Rem.c **** 
 212:Generated_Source\PSoC5/QuadDec_Rem.c ****         tmpCnt = QuadDec_Rem_Cnt16_ReadCounter();
 213:Generated_Source\PSoC5/QuadDec_Rem.c ****         hwCount = (int16) ((int32) tmpCnt - (int32) QuadDec_Rem_COUNTER_INIT_VALUE);
 214:Generated_Source\PSoC5/QuadDec_Rem.c ****         count = QuadDec_Rem_count32SoftPart + hwCount;
 215:Generated_Source\PSoC5/QuadDec_Rem.c **** 
 216:Generated_Source\PSoC5/QuadDec_Rem.c ****         CyIntEnable(QuadDec_Rem_ISR_NUMBER);
 217:Generated_Source\PSoC5/QuadDec_Rem.c ****     #else 
 218:Generated_Source\PSoC5/QuadDec_Rem.c ****         /* (QuadDec_Rem_COUNTER_SIZE == QuadDec_Rem_COUNTER_SIZE_8_BIT) || 
 219:Generated_Source\PSoC5/QuadDec_Rem.c ****         *  (QuadDec_Rem_COUNTER_SIZE == QuadDec_Rem_COUNTER_SIZE_16_BIT)
 220:Generated_Source\PSoC5/QuadDec_Rem.c ****         */
 221:Generated_Source\PSoC5/QuadDec_Rem.c ****         #if (QuadDec_Rem_COUNTER_SIZE == QuadDec_Rem_COUNTER_SIZE_8_BIT)
 222:Generated_Source\PSoC5/QuadDec_Rem.c ****             tmpCnt = QuadDec_Rem_Cnt8_ReadCounter();
  92              		.loc 1 222 0
  93 0002 FFF7FEFF 		bl	QuadDec_Rem_Cnt8_ReadCounter
  94              	.LVL3:
 223:Generated_Source\PSoC5/QuadDec_Rem.c ****         #else /* (QuadDec_Rem_COUNTER_SIZE == QuadDec_Rem_COUNTER_SIZE_16_BIT) */
 224:Generated_Source\PSoC5/QuadDec_Rem.c ****             tmpCnt = QuadDec_Rem_Cnt16_ReadCounter();
 225:Generated_Source\PSoC5/QuadDec_Rem.c ****         #endif  /* QuadDec_Rem_COUNTER_SIZE == QuadDec_Rem_COUNTER_SIZE_8_BIT */
 226:Generated_Source\PSoC5/QuadDec_Rem.c **** 
 227:Generated_Source\PSoC5/QuadDec_Rem.c ****         count = (int8) ((int16) tmpCnt -
  95              		.loc 1 227 0
  96 0006 8038     		subs	r0, r0, #128
  97              	.LVL4:
 228:Generated_Source\PSoC5/QuadDec_Rem.c ****                 (int16) QuadDec_Rem_COUNTER_INIT_VALUE);
 229:Generated_Source\PSoC5/QuadDec_Rem.c **** 
 230:Generated_Source\PSoC5/QuadDec_Rem.c ****     #endif /* QuadDec_Rem_COUNTER_SIZE == QuadDec_Rem_COUNTER_SIZE_32_BIT */ 
 231:Generated_Source\PSoC5/QuadDec_Rem.c **** 
 232:Generated_Source\PSoC5/QuadDec_Rem.c ****     return (count);
 233:Generated_Source\PSoC5/QuadDec_Rem.c **** }
  98              		.loc 1 233 0
  99 0008 40B2     		sxtb	r0, r0
 100 000a 08BD     		pop	{r3, pc}
 101              		.cfi_endproc
 102              	.LFE4:
 103              		.size	QuadDec_Rem_GetCounter, .-QuadDec_Rem_GetCounter
 104              		.section	.text.QuadDec_Rem_SetCounter,"ax",%progbits
 105              		.align	2
 106              		.global	QuadDec_Rem_SetCounter
 107              		.thumb
 108              		.thumb_func
 109              		.type	QuadDec_Rem_SetCounter, %function
ARM GAS  C:\Users\Dan\AppData\Local\Temp\ccI9PlTc.s 			page 7


 110              	QuadDec_Rem_SetCounter:
 111              	.LFB5:
 234:Generated_Source\PSoC5/QuadDec_Rem.c **** 
 235:Generated_Source\PSoC5/QuadDec_Rem.c **** 
 236:Generated_Source\PSoC5/QuadDec_Rem.c **** /*******************************************************************************
 237:Generated_Source\PSoC5/QuadDec_Rem.c **** * Function Name: QuadDec_Rem_SetCounter
 238:Generated_Source\PSoC5/QuadDec_Rem.c **** ********************************************************************************
 239:Generated_Source\PSoC5/QuadDec_Rem.c **** *
 240:Generated_Source\PSoC5/QuadDec_Rem.c **** * Summary:
 241:Generated_Source\PSoC5/QuadDec_Rem.c **** *  Sets the current value of the counter.
 242:Generated_Source\PSoC5/QuadDec_Rem.c **** *
 243:Generated_Source\PSoC5/QuadDec_Rem.c **** * Parameters:
 244:Generated_Source\PSoC5/QuadDec_Rem.c **** *  value:  The new value. Parameter type is signed and per the counter size
 245:Generated_Source\PSoC5/QuadDec_Rem.c **** *  setting.
 246:Generated_Source\PSoC5/QuadDec_Rem.c **** *
 247:Generated_Source\PSoC5/QuadDec_Rem.c **** * Return:
 248:Generated_Source\PSoC5/QuadDec_Rem.c **** *  None.
 249:Generated_Source\PSoC5/QuadDec_Rem.c **** *
 250:Generated_Source\PSoC5/QuadDec_Rem.c **** * Global variables:
 251:Generated_Source\PSoC5/QuadDec_Rem.c **** *  QuadDec_Rem_count32SoftPart - modified to set hi 16 bit for current
 252:Generated_Source\PSoC5/QuadDec_Rem.c **** *  value of the 32-bit counter, when Counter size equal 32-bit.
 253:Generated_Source\PSoC5/QuadDec_Rem.c **** *
 254:Generated_Source\PSoC5/QuadDec_Rem.c **** * Reentrant:
 255:Generated_Source\PSoC5/QuadDec_Rem.c **** *  No.
 256:Generated_Source\PSoC5/QuadDec_Rem.c **** *
 257:Generated_Source\PSoC5/QuadDec_Rem.c **** *******************************************************************************/
 258:Generated_Source\PSoC5/QuadDec_Rem.c **** void QuadDec_Rem_SetCounter(int8 value) 
 259:Generated_Source\PSoC5/QuadDec_Rem.c **** {
 112              		.loc 1 259 0
 113              		.cfi_startproc
 114              		@ args = 0, pretend = 0, frame = 0
 115              		@ frame_needed = 0, uses_anonymous_args = 0
 116              	.LVL5:
 117 0000 08B5     		push	{r3, lr}
 118              		.cfi_def_cfa_offset 8
 119              		.cfi_offset 3, -8
 120              		.cfi_offset 14, -4
 260:Generated_Source\PSoC5/QuadDec_Rem.c ****     #if ((QuadDec_Rem_COUNTER_SIZE == QuadDec_Rem_COUNTER_SIZE_8_BIT) || \
 261:Generated_Source\PSoC5/QuadDec_Rem.c ****          (QuadDec_Rem_COUNTER_SIZE == QuadDec_Rem_COUNTER_SIZE_16_BIT))
 262:Generated_Source\PSoC5/QuadDec_Rem.c ****         uint8 count;
 263:Generated_Source\PSoC5/QuadDec_Rem.c ****         
 264:Generated_Source\PSoC5/QuadDec_Rem.c ****         if (value >= 0)
 121              		.loc 1 264 0
 122 0002 0028     		cmp	r0, #0
 123              	.LVL6:
 124 0004 03DB     		blt	.L9
 265:Generated_Source\PSoC5/QuadDec_Rem.c ****         {
 266:Generated_Source\PSoC5/QuadDec_Rem.c ****             count = (uint8) value + QuadDec_Rem_COUNTER_INIT_VALUE;
 125              		.loc 1 266 0
 126 0006 C0B2     		uxtb	r0, r0
 127 0008 80F08000 		eor	r0, r0, #128
 128              	.LVL7:
 129 000c 01E0     		b	.L10
 130              	.LVL8:
 131              	.L9:
 267:Generated_Source\PSoC5/QuadDec_Rem.c ****         }
 268:Generated_Source\PSoC5/QuadDec_Rem.c ****         else
ARM GAS  C:\Users\Dan\AppData\Local\Temp\ccI9PlTc.s 			page 8


 269:Generated_Source\PSoC5/QuadDec_Rem.c ****         {
 270:Generated_Source\PSoC5/QuadDec_Rem.c ****             count = QuadDec_Rem_COUNTER_INIT_VALUE - (uint8)(-value);
 132              		.loc 1 270 0
 133 000e 8038     		subs	r0, r0, #128
 134 0010 C0B2     		uxtb	r0, r0
 135              	.LVL9:
 136              	.L10:
 271:Generated_Source\PSoC5/QuadDec_Rem.c ****         }
 272:Generated_Source\PSoC5/QuadDec_Rem.c ****         #if (QuadDec_Rem_COUNTER_SIZE == QuadDec_Rem_COUNTER_SIZE_8_BIT)
 273:Generated_Source\PSoC5/QuadDec_Rem.c ****             QuadDec_Rem_Cnt8_WriteCounter(count);
 137              		.loc 1 273 0
 138 0012 FFF7FEFF 		bl	QuadDec_Rem_Cnt8_WriteCounter
 139              	.LVL10:
 140 0016 08BD     		pop	{r3, pc}
 141              		.cfi_endproc
 142              	.LFE5:
 143              		.size	QuadDec_Rem_SetCounter, .-QuadDec_Rem_SetCounter
 144              		.section	.text.QuadDec_Rem_GetEvents,"ax",%progbits
 145              		.align	2
 146              		.global	QuadDec_Rem_GetEvents
 147              		.thumb
 148              		.thumb_func
 149              		.type	QuadDec_Rem_GetEvents, %function
 150              	QuadDec_Rem_GetEvents:
 151              	.LFB6:
 274:Generated_Source\PSoC5/QuadDec_Rem.c ****         #else /* (QuadDec_Rem_COUNTER_SIZE == QuadDec_Rem_COUNTER_SIZE_16_BIT) */
 275:Generated_Source\PSoC5/QuadDec_Rem.c ****             QuadDec_Rem_Cnt16_WriteCounter(count);
 276:Generated_Source\PSoC5/QuadDec_Rem.c ****         #endif  /* QuadDec_Rem_COUNTER_SIZE == QuadDec_Rem_COUNTER_SIZE_8_BIT */
 277:Generated_Source\PSoC5/QuadDec_Rem.c ****     #else /* (QuadDec_Rem_COUNTER_SIZE == QuadDec_Rem_COUNTER_SIZE_32_BIT) */
 278:Generated_Source\PSoC5/QuadDec_Rem.c ****         CyIntDisable(QuadDec_Rem_ISR_NUMBER);
 279:Generated_Source\PSoC5/QuadDec_Rem.c **** 
 280:Generated_Source\PSoC5/QuadDec_Rem.c ****         QuadDec_Rem_Cnt16_WriteCounter(QuadDec_Rem_COUNTER_INIT_VALUE);
 281:Generated_Source\PSoC5/QuadDec_Rem.c ****         QuadDec_Rem_count32SoftPart = value;
 282:Generated_Source\PSoC5/QuadDec_Rem.c **** 
 283:Generated_Source\PSoC5/QuadDec_Rem.c ****         CyIntEnable(QuadDec_Rem_ISR_NUMBER);
 284:Generated_Source\PSoC5/QuadDec_Rem.c ****     #endif  /* (QuadDec_Rem_COUNTER_SIZE == QuadDec_Rem_COUNTER_SIZE_8_BIT) ||
 285:Generated_Source\PSoC5/QuadDec_Rem.c ****              * (QuadDec_Rem_COUNTER_SIZE == QuadDec_Rem_COUNTER_SIZE_16_BIT)
 286:Generated_Source\PSoC5/QuadDec_Rem.c ****              */
 287:Generated_Source\PSoC5/QuadDec_Rem.c **** }
 288:Generated_Source\PSoC5/QuadDec_Rem.c **** 
 289:Generated_Source\PSoC5/QuadDec_Rem.c **** 
 290:Generated_Source\PSoC5/QuadDec_Rem.c **** /*******************************************************************************
 291:Generated_Source\PSoC5/QuadDec_Rem.c **** * Function Name: QuadDec_Rem_GetEvents
 292:Generated_Source\PSoC5/QuadDec_Rem.c **** ********************************************************************************
 293:Generated_Source\PSoC5/QuadDec_Rem.c **** * 
 294:Generated_Source\PSoC5/QuadDec_Rem.c **** * Summary:
 295:Generated_Source\PSoC5/QuadDec_Rem.c **** *   Reports the current status of events. This function clears the bits of the 
 296:Generated_Source\PSoC5/QuadDec_Rem.c **** *   status register.
 297:Generated_Source\PSoC5/QuadDec_Rem.c **** *
 298:Generated_Source\PSoC5/QuadDec_Rem.c **** * Parameters:
 299:Generated_Source\PSoC5/QuadDec_Rem.c **** *  None.
 300:Generated_Source\PSoC5/QuadDec_Rem.c **** *
 301:Generated_Source\PSoC5/QuadDec_Rem.c **** * Return:
 302:Generated_Source\PSoC5/QuadDec_Rem.c **** *  The events, as bits in an unsigned 8-bit value:
 303:Generated_Source\PSoC5/QuadDec_Rem.c **** *    Bit      Description
 304:Generated_Source\PSoC5/QuadDec_Rem.c **** *     0        Counter overflow.
 305:Generated_Source\PSoC5/QuadDec_Rem.c **** *     1        Counter underflow.
ARM GAS  C:\Users\Dan\AppData\Local\Temp\ccI9PlTc.s 			page 9


 306:Generated_Source\PSoC5/QuadDec_Rem.c **** *     2        Counter reset due to index, if index input is used.
 307:Generated_Source\PSoC5/QuadDec_Rem.c **** *     3        Invalid A, B inputs state transition.
 308:Generated_Source\PSoC5/QuadDec_Rem.c **** *
 309:Generated_Source\PSoC5/QuadDec_Rem.c **** *******************************************************************************/
 310:Generated_Source\PSoC5/QuadDec_Rem.c **** uint8 QuadDec_Rem_GetEvents(void) 
 311:Generated_Source\PSoC5/QuadDec_Rem.c **** {
 152              		.loc 1 311 0
 153              		.cfi_startproc
 154              		@ args = 0, pretend = 0, frame = 0
 155              		@ frame_needed = 0, uses_anonymous_args = 0
 156              		@ link register save eliminated.
 312:Generated_Source\PSoC5/QuadDec_Rem.c ****     return (QuadDec_Rem_STATUS_REG & QuadDec_Rem_INIT_INT_MASK);
 157              		.loc 1 312 0
 158 0000 024B     		ldr	r3, .L13
 159 0002 1878     		ldrb	r0, [r3]	@ zero_extendqisi2
 313:Generated_Source\PSoC5/QuadDec_Rem.c **** }
 160              		.loc 1 313 0
 161 0004 00F00F00 		and	r0, r0, #15
 162 0008 7047     		bx	lr
 163              	.L14:
 164 000a 00BF     		.align	2
 165              	.L13:
 166 000c 6A650040 		.word	1073767786
 167              		.cfi_endproc
 168              	.LFE6:
 169              		.size	QuadDec_Rem_GetEvents, .-QuadDec_Rem_GetEvents
 170              		.section	.text.QuadDec_Rem_SetInterruptMask,"ax",%progbits
 171              		.align	2
 172              		.global	QuadDec_Rem_SetInterruptMask
 173              		.thumb
 174              		.thumb_func
 175              		.type	QuadDec_Rem_SetInterruptMask, %function
 176              	QuadDec_Rem_SetInterruptMask:
 177              	.LFB7:
 314:Generated_Source\PSoC5/QuadDec_Rem.c **** 
 315:Generated_Source\PSoC5/QuadDec_Rem.c **** 
 316:Generated_Source\PSoC5/QuadDec_Rem.c **** /*******************************************************************************
 317:Generated_Source\PSoC5/QuadDec_Rem.c **** * Function Name: QuadDec_Rem_SetInterruptMask
 318:Generated_Source\PSoC5/QuadDec_Rem.c **** ********************************************************************************
 319:Generated_Source\PSoC5/QuadDec_Rem.c **** *
 320:Generated_Source\PSoC5/QuadDec_Rem.c **** * Summary:
 321:Generated_Source\PSoC5/QuadDec_Rem.c **** *  Enables / disables interrupts due to the events.
 322:Generated_Source\PSoC5/QuadDec_Rem.c **** *  For the 32-bit counter, the overflow, underflow and reset interrupts cannot
 323:Generated_Source\PSoC5/QuadDec_Rem.c **** *  be disabled, these bits are ignored.
 324:Generated_Source\PSoC5/QuadDec_Rem.c **** *
 325:Generated_Source\PSoC5/QuadDec_Rem.c **** * Parameters:
 326:Generated_Source\PSoC5/QuadDec_Rem.c **** *  mask: Enable / disable bits in an 8-bit value, where 1 enables the interrupt.
 327:Generated_Source\PSoC5/QuadDec_Rem.c **** *
 328:Generated_Source\PSoC5/QuadDec_Rem.c **** * Return:
 329:Generated_Source\PSoC5/QuadDec_Rem.c **** *  None.
 330:Generated_Source\PSoC5/QuadDec_Rem.c **** *
 331:Generated_Source\PSoC5/QuadDec_Rem.c **** *******************************************************************************/
 332:Generated_Source\PSoC5/QuadDec_Rem.c **** void QuadDec_Rem_SetInterruptMask(uint8 mask) 
 333:Generated_Source\PSoC5/QuadDec_Rem.c **** {
 178              		.loc 1 333 0
 179              		.cfi_startproc
 180              		@ args = 0, pretend = 0, frame = 0
ARM GAS  C:\Users\Dan\AppData\Local\Temp\ccI9PlTc.s 			page 10


 181              		@ frame_needed = 0, uses_anonymous_args = 0
 182              		@ link register save eliminated.
 183              	.LVL11:
 334:Generated_Source\PSoC5/QuadDec_Rem.c ****     #if (QuadDec_Rem_COUNTER_SIZE == QuadDec_Rem_COUNTER_SIZE_32_BIT)
 335:Generated_Source\PSoC5/QuadDec_Rem.c ****         /* Underflow, Overflow and Reset interrupts for 32-bit Counter are always enable */
 336:Generated_Source\PSoC5/QuadDec_Rem.c ****         mask |= (QuadDec_Rem_COUNTER_OVERFLOW | QuadDec_Rem_COUNTER_UNDERFLOW |
 337:Generated_Source\PSoC5/QuadDec_Rem.c ****                  QuadDec_Rem_COUNTER_RESET);
 338:Generated_Source\PSoC5/QuadDec_Rem.c ****     #endif /* QuadDec_Rem_COUNTER_SIZE == QuadDec_Rem_COUNTER_SIZE_32_BIT */
 339:Generated_Source\PSoC5/QuadDec_Rem.c **** 
 340:Generated_Source\PSoC5/QuadDec_Rem.c ****     QuadDec_Rem_STATUS_MASK = mask;
 184              		.loc 1 340 0
 185 0000 014B     		ldr	r3, .L16
 186 0002 1870     		strb	r0, [r3]
 187 0004 7047     		bx	lr
 188              	.L17:
 189 0006 00BF     		.align	2
 190              	.L16:
 191 0008 8A650040 		.word	1073767818
 192              		.cfi_endproc
 193              	.LFE7:
 194              		.size	QuadDec_Rem_SetInterruptMask, .-QuadDec_Rem_SetInterruptMask
 195              		.section	.text.QuadDec_Rem_Enable,"ax",%progbits
 196              		.align	2
 197              		.global	QuadDec_Rem_Enable
 198              		.thumb
 199              		.thumb_func
 200              		.type	QuadDec_Rem_Enable, %function
 201              	QuadDec_Rem_Enable:
 202              	.LFB1:
  71:Generated_Source\PSoC5/QuadDec_Rem.c ****     uint8 enableInterrupts;
 203              		.loc 1 71 0
 204              		.cfi_startproc
 205              		@ args = 0, pretend = 0, frame = 0
 206              		@ frame_needed = 0, uses_anonymous_args = 0
 207 0000 08B5     		push	{r3, lr}
 208              		.cfi_def_cfa_offset 8
 209              		.cfi_offset 3, -8
 210              		.cfi_offset 14, -4
  74:Generated_Source\PSoC5/QuadDec_Rem.c **** 
 211              		.loc 1 74 0
 212 0002 0F20     		movs	r0, #15
 213 0004 FFF7FEFF 		bl	QuadDec_Rem_SetInterruptMask
 214              	.LVL12:
  77:Generated_Source\PSoC5/QuadDec_Rem.c ****     
 215              		.loc 1 77 0
 216 0008 FFF7FEFF 		bl	QuadDec_Rem_GetEvents
 217              	.LVL13:
  79:Generated_Source\PSoC5/QuadDec_Rem.c **** 
 218              		.loc 1 79 0
 219 000c FFF7FEFF 		bl	CyEnterCriticalSection
 220              	.LVL14:
  82:Generated_Source\PSoC5/QuadDec_Rem.c **** 
 221              		.loc 1 82 0
 222 0010 034A     		ldr	r2, .L20
 223 0012 1378     		ldrb	r3, [r2]	@ zero_extendqisi2
 224 0014 43F01003 		orr	r3, r3, #16
 225 0018 1370     		strb	r3, [r2]
ARM GAS  C:\Users\Dan\AppData\Local\Temp\ccI9PlTc.s 			page 11


  84:Generated_Source\PSoC5/QuadDec_Rem.c **** 
 226              		.loc 1 84 0
 227 001a FFF7FEFF 		bl	CyExitCriticalSection
 228              	.LVL15:
 229 001e 08BD     		pop	{r3, pc}
 230              	.L21:
 231              		.align	2
 232              	.L20:
 233 0020 9A650040 		.word	1073767834
 234              		.cfi_endproc
 235              	.LFE1:
 236              		.size	QuadDec_Rem_Enable, .-QuadDec_Rem_Enable
 237              		.section	.text.QuadDec_Rem_Start,"ax",%progbits
 238              		.align	2
 239              		.global	QuadDec_Rem_Start
 240              		.thumb
 241              		.thumb_func
 242              		.type	QuadDec_Rem_Start, %function
 243              	QuadDec_Rem_Start:
 244              	.LFB2:
 117:Generated_Source\PSoC5/QuadDec_Rem.c ****     #if (QuadDec_Rem_COUNTER_SIZE == QuadDec_Rem_COUNTER_SIZE_8_BIT)
 245              		.loc 1 117 0
 246              		.cfi_startproc
 247              		@ args = 0, pretend = 0, frame = 0
 248              		@ frame_needed = 0, uses_anonymous_args = 0
 249 0000 08B5     		push	{r3, lr}
 250              		.cfi_def_cfa_offset 8
 251              		.cfi_offset 3, -8
 252              		.cfi_offset 14, -4
 119:Generated_Source\PSoC5/QuadDec_Rem.c ****         QuadDec_Rem_Cnt8_WriteCounter(QuadDec_Rem_COUNTER_INIT_VALUE);
 253              		.loc 1 119 0
 254 0002 FFF7FEFF 		bl	QuadDec_Rem_Cnt8_Start
 255              	.LVL16:
 120:Generated_Source\PSoC5/QuadDec_Rem.c ****     #else
 256              		.loc 1 120 0
 257 0006 8020     		movs	r0, #128
 258 0008 FFF7FEFF 		bl	QuadDec_Rem_Cnt8_WriteCounter
 259              	.LVL17:
 133:Generated_Source\PSoC5/QuadDec_Rem.c ****     {
 260              		.loc 1 133 0
 261 000c 044B     		ldr	r3, .L25
 262 000e 1B78     		ldrb	r3, [r3]	@ zero_extendqisi2
 263 0010 13B9     		cbnz	r3, .L23
 136:Generated_Source\PSoC5/QuadDec_Rem.c ****     }
 264              		.loc 1 136 0
 265 0012 0122     		movs	r2, #1
 266 0014 024B     		ldr	r3, .L25
 267 0016 1A70     		strb	r2, [r3]
 268              	.L23:
 139:Generated_Source\PSoC5/QuadDec_Rem.c **** }
 269              		.loc 1 139 0
 270 0018 FFF7FEFF 		bl	QuadDec_Rem_Enable
 271              	.LVL18:
 272 001c 08BD     		pop	{r3, pc}
 273              	.L26:
 274 001e 00BF     		.align	2
 275              	.L25:
ARM GAS  C:\Users\Dan\AppData\Local\Temp\ccI9PlTc.s 			page 12


 276 0020 00000000 		.word	.LANCHOR0
 277              		.cfi_endproc
 278              	.LFE2:
 279              		.size	QuadDec_Rem_Start, .-QuadDec_Rem_Start
 280              		.section	.text.QuadDec_Rem_GetInterruptMask,"ax",%progbits
 281              		.align	2
 282              		.global	QuadDec_Rem_GetInterruptMask
 283              		.thumb
 284              		.thumb_func
 285              		.type	QuadDec_Rem_GetInterruptMask, %function
 286              	QuadDec_Rem_GetInterruptMask:
 287              	.LFB8:
 341:Generated_Source\PSoC5/QuadDec_Rem.c **** }
 342:Generated_Source\PSoC5/QuadDec_Rem.c **** 
 343:Generated_Source\PSoC5/QuadDec_Rem.c **** 
 344:Generated_Source\PSoC5/QuadDec_Rem.c **** /*******************************************************************************
 345:Generated_Source\PSoC5/QuadDec_Rem.c **** * Function Name: QuadDec_Rem_GetInterruptMask
 346:Generated_Source\PSoC5/QuadDec_Rem.c **** ********************************************************************************
 347:Generated_Source\PSoC5/QuadDec_Rem.c **** *
 348:Generated_Source\PSoC5/QuadDec_Rem.c **** * Summary:
 349:Generated_Source\PSoC5/QuadDec_Rem.c **** *  Reports the current interrupt mask settings.
 350:Generated_Source\PSoC5/QuadDec_Rem.c **** *
 351:Generated_Source\PSoC5/QuadDec_Rem.c **** * Parameters:
 352:Generated_Source\PSoC5/QuadDec_Rem.c **** *  None.
 353:Generated_Source\PSoC5/QuadDec_Rem.c **** *
 354:Generated_Source\PSoC5/QuadDec_Rem.c **** * Return:
 355:Generated_Source\PSoC5/QuadDec_Rem.c **** *  Enable / disable bits in an 8-bit value, where 1 enables the interrupt.
 356:Generated_Source\PSoC5/QuadDec_Rem.c **** *  For the 32-bit counter, the overflow, underflow and reset enable bits are
 357:Generated_Source\PSoC5/QuadDec_Rem.c **** *  always set.
 358:Generated_Source\PSoC5/QuadDec_Rem.c **** *
 359:Generated_Source\PSoC5/QuadDec_Rem.c **** *******************************************************************************/
 360:Generated_Source\PSoC5/QuadDec_Rem.c **** uint8 QuadDec_Rem_GetInterruptMask(void) 
 361:Generated_Source\PSoC5/QuadDec_Rem.c **** {
 288              		.loc 1 361 0
 289              		.cfi_startproc
 290              		@ args = 0, pretend = 0, frame = 0
 291              		@ frame_needed = 0, uses_anonymous_args = 0
 292              		@ link register save eliminated.
 362:Generated_Source\PSoC5/QuadDec_Rem.c ****     return (QuadDec_Rem_STATUS_MASK & QuadDec_Rem_INIT_INT_MASK);
 293              		.loc 1 362 0
 294 0000 024B     		ldr	r3, .L28
 295 0002 1878     		ldrb	r0, [r3]	@ zero_extendqisi2
 363:Generated_Source\PSoC5/QuadDec_Rem.c **** }
 296              		.loc 1 363 0
 297 0004 00F00F00 		and	r0, r0, #15
 298 0008 7047     		bx	lr
 299              	.L29:
 300 000a 00BF     		.align	2
 301              	.L28:
 302 000c 8A650040 		.word	1073767818
 303              		.cfi_endproc
 304              	.LFE8:
 305              		.size	QuadDec_Rem_GetInterruptMask, .-QuadDec_Rem_GetInterruptMask
 306              		.global	QuadDec_Rem_initVar
 307              		.bss
 308              		.set	.LANCHOR0,. + 0
 309              		.type	QuadDec_Rem_initVar, %object
ARM GAS  C:\Users\Dan\AppData\Local\Temp\ccI9PlTc.s 			page 13


 310              		.size	QuadDec_Rem_initVar, 1
 311              	QuadDec_Rem_initVar:
 312 0000 00       		.space	1
 313              		.text
 314              	.Letext0:
 315              		.file 2 "Generated_Source\\PSoC5\\cytypes.h"
 316              		.file 3 "Generated_Source\\PSoC5\\QuadDec_Rem_Cnt8.h"
 317              		.file 4 "Generated_Source\\PSoC5\\CyLib.h"