ARM GAS  C:\Users\Dan\AppData\Local\Temp\ccxmqleP.s 			page 1


   1              		.syntax unified
   2              		.cpu cortex-m3
   3              		.fpu softvfp
   4              		.eabi_attribute 20, 1
   5              		.eabi_attribute 21, 1
   6              		.eabi_attribute 23, 3
   7              		.eabi_attribute 24, 1
   8              		.eabi_attribute 25, 1
   9              		.eabi_attribute 26, 1
  10              		.eabi_attribute 30, 1
  11              		.eabi_attribute 34, 1
  12              		.eabi_attribute 18, 4
  13              		.thumb
  14              		.syntax unified
  15              		.file	"SerCmds.c"
  16              		.text
  17              	.Ltext0:
  18              		.cfi_sections	.debug_frame
  19              		.section	.text.CmdFunctionName1,"ax",%progbits
  20              		.align	2
  21              		.global	CmdFunctionName1
  22              		.thumb
  23              		.thumb_func
  24              		.type	CmdFunctionName1, %function
  25              	CmdFunctionName1:
  26              	.LFB63:
  27              		.file 1 "SerCmds.c"
   1:SerCmds.c     **** /* ========================================
   2:SerCmds.c     ****  *
   3:SerCmds.c     ****  * Copyright YOUR COMPANY, THE YEAR
   4:SerCmds.c     ****  * All Rights Reserved
   5:SerCmds.c     ****  * UNPUBLISHED, LICENSED SOFTWARE.
   6:SerCmds.c     ****  *
   7:SerCmds.c     ****  * CONFIDENTIAL AND PROPRIETARY INFORMATION
   8:SerCmds.c     ****  * WHICH IS THE PROPERTY OF your company.
   9:SerCmds.c     ****  *
  10:SerCmds.c     ****  * ========================================
  11:SerCmds.c     **** */
  12:SerCmds.c     **** 
  13:SerCmds.c     **** #include "SerCmds.h"
  14:SerCmds.c     **** #include "Serial_IO.h"
  15:SerCmds.c     **** #include "Serial.h"
  16:SerCmds.c     **** #include "MPGCmds.h"
  17:SerCmds.c     **** // #include "SerMessages.h"
  18:SerCmds.c     **** 
  19:SerCmds.c     **** uint8 SerRespMsg[32];
  20:SerCmds.c     **** 
  21:SerCmds.c     **** uint32 volatile StatusMSGTime;
  22:SerCmds.c     **** 
  23:SerCmds.c     **** extern volatile uint32 MS_Time;
  24:SerCmds.c     **** 
  25:SerCmds.c     **** SER_CMD(CmdFunctionName1)
  26:SerCmds.c     **** {
  28              		.loc 1 26 0
  29              		.cfi_startproc
  30              		@ args = 0, pretend = 0, frame = 0
  31              		@ frame_needed = 0, uses_anonymous_args = 0
ARM GAS  C:\Users\Dan\AppData\Local\Temp\ccxmqleP.s 			page 2


  32              	.LVL0:
  33 0000 38B5     		push	{r3, r4, r5, lr}
  34              		.cfi_def_cfa_offset 16
  35              		.cfi_offset 3, -16
  36              		.cfi_offset 4, -12
  37              		.cfi_offset 5, -8
  38              		.cfi_offset 14, -4
  27:SerCmds.c     ****     if(SerMsg[CNT_INDEX] != 0)
  39              		.loc 1 27 0
  40 0002 4378     		ldrb	r3, [r0, #1]	@ zero_extendqisi2
  41 0004 3BB9     		cbnz	r3, .L5
  28:SerCmds.c     ****     {
  29:SerCmds.c     **** //        SER_PutStr((uint8 *)"Function 1\r");        // write a text message
  30:SerCmds.c     ****         for(uint8_t i = DATA_INDEX; i <= SerMsg[CNT_INDEX]; i++)
  31:SerCmds.c     ****         {
  32:SerCmds.c     ****             SER_PutChar(SerMsg[i]);
  33:SerCmds.c     ****         }
  34:SerCmds.c     ****         SER_PutChar('\r');
  35:SerCmds.c     ****         return 1;
  36:SerCmds.c     ****     }
  37:SerCmds.c     ****     return 0;
  42              		.loc 1 37 0
  43 0006 0020     		movs	r0, #0
  44              	.LVL1:
  45 0008 38BD     		pop	{r3, r4, r5, pc}
  46              	.LVL2:
  47              	.L4:
  48              	.LBB2:
  32:SerCmds.c     ****         }
  49              		.loc 1 32 0 discriminator 3
  50 000a 285D     		ldrb	r0, [r5, r4]	@ zero_extendqisi2
  51 000c FFF7FEFF 		bl	UART_WriteTxData
  52              	.LVL3:
  30:SerCmds.c     ****         {
  53              		.loc 1 30 0 discriminator 3
  54 0010 0134     		adds	r4, r4, #1
  55              	.LVL4:
  56 0012 E4B2     		uxtb	r4, r4
  57              	.LVL5:
  58 0014 01E0     		b	.L2
  59              	.LVL6:
  60              	.L5:
  61 0016 0546     		mov	r5, r0
  62              	.LBE2:
  63 0018 0424     		movs	r4, #4
  64              	.LVL7:
  65              	.L2:
  66              	.LBB3:
  30:SerCmds.c     ****         {
  67              		.loc 1 30 0 is_stmt 0 discriminator 1
  68 001a 6B78     		ldrb	r3, [r5, #1]	@ zero_extendqisi2
  69 001c 9C42     		cmp	r4, r3
  70 001e F4D9     		bls	.L4
  71              	.LBE3:
  34:SerCmds.c     ****         return 1;
  72              		.loc 1 34 0 is_stmt 1
  73 0020 0D20     		movs	r0, #13
ARM GAS  C:\Users\Dan\AppData\Local\Temp\ccxmqleP.s 			page 3


  74 0022 FFF7FEFF 		bl	UART_WriteTxData
  75              	.LVL8:
  35:SerCmds.c     ****     }
  76              		.loc 1 35 0
  77 0026 0120     		movs	r0, #1
  38:SerCmds.c     **** }
  78              		.loc 1 38 0
  79 0028 38BD     		pop	{r3, r4, r5, pc}
  80              		.cfi_endproc
  81              	.LFE63:
  82              		.size	CmdFunctionName1, .-CmdFunctionName1
  83 002a 00BF     		.section	.text.CmdFunctionName2,"ax",%progbits
  84              		.align	2
  85              		.global	CmdFunctionName2
  86              		.thumb
  87              		.thumb_func
  88              		.type	CmdFunctionName2, %function
  89              	CmdFunctionName2:
  90              	.LFB64:
  39:SerCmds.c     **** 
  40:SerCmds.c     **** SER_CMD(CmdFunctionName2)
  41:SerCmds.c     **** {
  91              		.loc 1 41 0
  92              		.cfi_startproc
  93              		@ args = 0, pretend = 0, frame = 0
  94              		@ frame_needed = 0, uses_anonymous_args = 0
  95              	.LVL9:
  96 0000 38B5     		push	{r3, r4, r5, lr}
  97              		.cfi_def_cfa_offset 16
  98              		.cfi_offset 3, -16
  99              		.cfi_offset 4, -12
 100              		.cfi_offset 5, -8
 101              		.cfi_offset 14, -4
  42:SerCmds.c     ****     if(SerMsg[CNT_INDEX] != 0)
 102              		.loc 1 42 0
 103 0002 4378     		ldrb	r3, [r0, #1]	@ zero_extendqisi2
 104 0004 3BB9     		cbnz	r3, .L11
  43:SerCmds.c     ****     {
  44:SerCmds.c     **** //        SER_PutStr((uint8 *)"Function 2\r");        // write a text message
  45:SerCmds.c     ****         for(uint8_t i = DATA_INDEX; i <= SerMsg[CNT_INDEX]; i++)
  46:SerCmds.c     ****         {
  47:SerCmds.c     ****             SER_PutChar(SerMsg[i]);
  48:SerCmds.c     ****         }
  49:SerCmds.c     ****         SER_PutChar('\r');
  50:SerCmds.c     ****         return 1;
  51:SerCmds.c     ****     }
  52:SerCmds.c     ****     return 0;
 105              		.loc 1 52 0
 106 0006 0020     		movs	r0, #0
 107              	.LVL10:
 108 0008 38BD     		pop	{r3, r4, r5, pc}
 109              	.LVL11:
 110              	.L10:
 111              	.LBB4:
  47:SerCmds.c     ****         }
 112              		.loc 1 47 0 discriminator 3
 113 000a 285D     		ldrb	r0, [r5, r4]	@ zero_extendqisi2
ARM GAS  C:\Users\Dan\AppData\Local\Temp\ccxmqleP.s 			page 4


 114 000c FFF7FEFF 		bl	UART_WriteTxData
 115              	.LVL12:
  45:SerCmds.c     ****         {
 116              		.loc 1 45 0 discriminator 3
 117 0010 0134     		adds	r4, r4, #1
 118              	.LVL13:
 119 0012 E4B2     		uxtb	r4, r4
 120              	.LVL14:
 121 0014 01E0     		b	.L8
 122              	.LVL15:
 123              	.L11:
 124 0016 0546     		mov	r5, r0
 125              	.LBE4:
 126 0018 0424     		movs	r4, #4
 127              	.LVL16:
 128              	.L8:
 129              	.LBB5:
  45:SerCmds.c     ****         {
 130              		.loc 1 45 0 is_stmt 0 discriminator 1
 131 001a 6B78     		ldrb	r3, [r5, #1]	@ zero_extendqisi2
 132 001c 9C42     		cmp	r4, r3
 133 001e F4D9     		bls	.L10
 134              	.LBE5:
  49:SerCmds.c     ****         return 1;
 135              		.loc 1 49 0 is_stmt 1
 136 0020 0D20     		movs	r0, #13
 137 0022 FFF7FEFF 		bl	UART_WriteTxData
 138              	.LVL17:
  50:SerCmds.c     ****     }
 139              		.loc 1 50 0
 140 0026 0120     		movs	r0, #1
  53:SerCmds.c     **** }
 141              		.loc 1 53 0
 142 0028 38BD     		pop	{r3, r4, r5, pc}
 143              		.cfi_endproc
 144              	.LFE64:
 145              		.size	CmdFunctionName2, .-CmdFunctionName2
 146 002a 00BF     		.section	.text.MPG_StatusCmd,"ax",%progbits
 147              		.align	2
 148              		.global	MPG_StatusCmd
 149              		.thumb
 150              		.thumb_func
 151              		.type	MPG_StatusCmd, %function
 152              	MPG_StatusCmd:
 153              	.LFB65:
  54:SerCmds.c     **** 
  55:SerCmds.c     **** SER_CMD(MPG_StatusCmd)
  56:SerCmds.c     **** {
 154              		.loc 1 56 0
 155              		.cfi_startproc
 156              		@ args = 0, pretend = 0, frame = 0
 157              		@ frame_needed = 0, uses_anonymous_args = 0
 158              	.LVL18:
 159 0000 08B5     		push	{r3, lr}
 160              		.cfi_def_cfa_offset 8
 161              		.cfi_offset 3, -8
 162              		.cfi_offset 14, -4
ARM GAS  C:\Users\Dan\AppData\Local\Temp\ccxmqleP.s 			page 5


  57:SerCmds.c     ****     UNUSED_ARG(SerMsg);
  58:SerCmds.c     ****     // get the status
  59:SerCmds.c     ****     uint16 status = MPGStatusQuery();
 163              		.loc 1 59 0
 164 0002 FFF7FEFF 		bl	MPGStatusQuery
 165              	.LVL19:
  60:SerCmds.c     ****     // format a serial message to send back to KFLOP
  61:SerCmds.c     ****     SerRespMsg[0] = MPG_STATUS_QUERY;
 166              		.loc 1 61 0
 167 0006 0849     		ldr	r1, .L15
 168 0008 0323     		movs	r3, #3
 169 000a 0B70     		strb	r3, [r1]
  62:SerCmds.c     ****     SerRespMsg[1] = (uint8) (status >> 8);  // put the two bytes into the SerRespMsg buffer
 170              		.loc 1 62 0
 171 000c C0F30722 		ubfx	r2, r0, #8, #8
 172 0010 4A70     		strb	r2, [r1, #1]
  63:SerCmds.c     ****     SerRespMsg[2] = (uint8) status;
 173              		.loc 1 63 0
 174 0012 8870     		strb	r0, [r1, #2]
  64:SerCmds.c     ****     SerResponseMsg(3, SerRespMsg);          // send the message
 175              		.loc 1 64 0
 176 0014 1846     		mov	r0, r3
 177              	.LVL20:
 178 0016 FFF7FEFF 		bl	SerResponseMsg
 179              	.LVL21:
  65:SerCmds.c     ****     
  66:SerCmds.c     ****     StatusMSGTime = MS_Time;
 180              		.loc 1 66 0
 181 001a 044B     		ldr	r3, .L15+4
 182 001c 1A68     		ldr	r2, [r3]
 183 001e 044B     		ldr	r3, .L15+8
 184 0020 1A60     		str	r2, [r3]
  67:SerCmds.c     ****     
  68:SerCmds.c     ****     
  69:SerCmds.c     ****     return 0;
  70:SerCmds.c     **** }
 185              		.loc 1 70 0
 186 0022 0020     		movs	r0, #0
 187 0024 08BD     		pop	{r3, pc}
 188              	.L16:
 189 0026 00BF     		.align	2
 190              	.L15:
 191 0028 00000000 		.word	SerRespMsg
 192 002c 00000000 		.word	MS_Time
 193 0030 00000000 		.word	StatusMSGTime
 194              		.cfi_endproc
 195              	.LFE65:
 196              		.size	MPG_StatusCmd, .-MPG_StatusCmd
 197              		.comm	StatusMSGTime,4,4
 198              		.comm	SerRespMsg,32,4
 199              		.text
 200              	.Letext0:
 201              		.file 2 "c:\\program files (x86)\\cypress\\psoc creator\\4.2\\psoc creator\\import\\gnu\\arm\\5.4.
 202              		.file 3 "c:\\program files (x86)\\cypress\\psoc creator\\4.2\\psoc creator\\import\\gnu\\arm\\5.4.
 203              		.file 4 "Generated_Source\\PSoC5/cytypes.h"
 204              		.file 5 "Generated_Source\\PSoC5/core_cm3.h"
 205              		.file 6 "Generated_Source\\PSoC5/UART.h"
ARM GAS  C:\Users\Dan\AppData\Local\Temp\ccxmqleP.s 			page 6


 206              		.file 7 "MPGCmds.h"
 207              		.file 8 "Serial.h"