ARM GAS  C:\Users\Dan\AppData\Local\Temp\ccZ4WcyX.s 			page 1


   1              		.syntax unified
   2              		.cpu cortex-m3
   3              		.fpu softvfp
   4              		.eabi_attribute 20, 1
   5              		.eabi_attribute 21, 1
   6              		.eabi_attribute 23, 3
   7              		.eabi_attribute 24, 1
   8              		.eabi_attribute 25, 1
   9              		.eabi_attribute 26, 1
  10              		.eabi_attribute 30, 1
  11              		.eabi_attribute 34, 1
  12              		.eabi_attribute 18, 4
  13              		.thumb
  14              		.syntax unified
  15              		.file	"Serial_IO.c"
  16              		.text
  17              	.Ltext0:
  18              		.cfi_sections	.debug_frame
  19              		.section	.text.TX_ISR,"ax",%progbits
  20              		.align	2
  21              		.global	TX_ISR
  22              		.thumb
  23              		.thumb_func
  24              		.type	TX_ISR, %function
  25              	TX_ISR:
  26              	.LFB63:
  27              		.file 1 "Serial_IO.c"
   1:Serial_IO.c   **** /* ========================================
   2:Serial_IO.c   ****  *
   3:Serial_IO.c   ****  * Copyright YOUR COMPANY, THE YEAR
   4:Serial_IO.c   ****  * All Rights Reserved
   5:Serial_IO.c   ****  * UNPUBLISHED, LICENSED SOFTWARE.
   6:Serial_IO.c   ****  *
   7:Serial_IO.c   ****  * CONFIDENTIAL AND PROPRIETARY INFORMATION
   8:Serial_IO.c   ****  * WHICH IS THE PROPERTY OF your company.
   9:Serial_IO.c   ****  *
  10:Serial_IO.c   ****  * ========================================
  11:Serial_IO.c   **** */
  12:Serial_IO.c   **** 
  13:Serial_IO.c   **** // functions for serial IO
  14:Serial_IO.c   **** #include "Serial_IO.h"
  15:Serial_IO.c   **** #include "project.h"
  16:Serial_IO.c   **** 
  17:Serial_IO.c   **** // buffers for serial communications
  18:Serial_IO.c   **** #define SERIAL_BUFF_SIZE 32
  19:Serial_IO.c   **** 
  20:Serial_IO.c   **** uint8 TX_BUFF[SERIAL_BUFF_SIZE];
  21:Serial_IO.c   **** uint8 RX_BUFF[SERIAL_BUFF_SIZE];
  22:Serial_IO.c   **** 
  23:Serial_IO.c   **** volatile uint8 *TX_HeadPtr;
  24:Serial_IO.c   **** volatile uint8 *TX_TailPtr;
  25:Serial_IO.c   **** volatile uint8 *RX_HeadPtr;
  26:Serial_IO.c   **** volatile uint8 *RX_TailPtr;
  27:Serial_IO.c   ****     
  28:Serial_IO.c   **** 
  29:Serial_IO.c   **** // UART Transmit interrupt
  30:Serial_IO.c   **** CY_ISR(TX_ISR)
ARM GAS  C:\Users\Dan\AppData\Local\Temp\ccZ4WcyX.s 			page 2


  31:Serial_IO.c   **** {
  28              		.loc 1 31 0
  29              		.cfi_startproc
  30              		@ args = 0, pretend = 0, frame = 0
  31              		@ frame_needed = 0, uses_anonymous_args = 0
  32              		@ link register save eliminated.
  33 0000 7047     		bx	lr
  34              		.cfi_endproc
  35              	.LFE63:
  36              		.size	TX_ISR, .-TX_ISR
  37 0002 00BF     		.section	.text.RX_ISR,"ax",%progbits
  38              		.align	2
  39              		.global	RX_ISR
  40              		.thumb
  41              		.thumb_func
  42              		.type	RX_ISR, %function
  43              	RX_ISR:
  44              	.LFB64:
  32:Serial_IO.c   ****     // toggle the test point
  33:Serial_IO.c   ****   
  34:Serial_IO.c   **** }
  35:Serial_IO.c   **** 
  36:Serial_IO.c   **** // UART Receive interrupt
  37:Serial_IO.c   **** CY_ISR(RX_ISR)
  38:Serial_IO.c   **** {
  45              		.loc 1 38 0
  46              		.cfi_startproc
  47              		@ args = 0, pretend = 0, frame = 0
  48              		@ frame_needed = 0, uses_anonymous_args = 0
  49              		@ link register save eliminated.
  39:Serial_IO.c   ****     // interrupt says there is a character in the RX Buffer
  40:Serial_IO.c   ****     *RX_HeadPtr++ = UART_RXDATA_REG;
  50              		.loc 1 40 0
  51 0000 084B     		ldr	r3, .L4
  52 0002 1968     		ldr	r1, [r3]
  53 0004 4A1C     		adds	r2, r1, #1
  54 0006 1A60     		str	r2, [r3]
  55 0008 074A     		ldr	r2, .L4+4
  56 000a 1278     		ldrb	r2, [r2]	@ zero_extendqisi2
  57 000c D2B2     		uxtb	r2, r2
  58 000e 0A70     		strb	r2, [r1]
  41:Serial_IO.c   ****     // *RX_HeadPtr++ = UART_ReadRxData();  // get data from the buffer and incrememnt the Head Poin
  42:Serial_IO.c   ****     if(RX_HeadPtr >= (RX_BUFF + SERIAL_BUFF_SIZE))   // check for circular buffer wraparound
  59              		.loc 1 42 0
  60 0010 1A68     		ldr	r2, [r3]
  61 0012 064B     		ldr	r3, .L4+8
  62 0014 9A42     		cmp	r2, r3
  63 0016 03D3     		bcc	.L2
  43:Serial_IO.c   ****     {
  44:Serial_IO.c   ****         RX_HeadPtr = RX_BUFF;   
  64              		.loc 1 44 0
  65 0018 A3F12002 		sub	r2, r3, #32
  66 001c 014B     		ldr	r3, .L4
  67 001e 1A60     		str	r2, [r3]
  68              	.L2:
  69 0020 7047     		bx	lr
  70              	.L5:
ARM GAS  C:\Users\Dan\AppData\Local\Temp\ccZ4WcyX.s 			page 3


  71 0022 00BF     		.align	2
  72              	.L4:
  73 0024 00000000 		.word	RX_HeadPtr
  74 0028 4C640040 		.word	1073767500
  75 002c 20000000 		.word	RX_BUFF+32
  76              		.cfi_endproc
  77              	.LFE64:
  78              		.size	RX_ISR, .-RX_ISR
  79              		.section	.text.Init_Serial_IO,"ax",%progbits
  80              		.align	2
  81              		.global	Init_Serial_IO
  82              		.thumb
  83              		.thumb_func
  84              		.type	Init_Serial_IO, %function
  85              	Init_Serial_IO:
  86              	.LFB65:
  45:Serial_IO.c   ****     }
  46:Serial_IO.c   **** }
  47:Serial_IO.c   **** 
  48:Serial_IO.c   **** // Init Serial IO
  49:Serial_IO.c   **** 
  50:Serial_IO.c   **** void Init_Serial_IO(void)
  51:Serial_IO.c   **** {
  87              		.loc 1 51 0
  88              		.cfi_startproc
  89              		@ args = 0, pretend = 0, frame = 0
  90              		@ frame_needed = 0, uses_anonymous_args = 0
  91 0000 08B5     		push	{r3, lr}
  92              		.cfi_def_cfa_offset 8
  93              		.cfi_offset 3, -8
  94              		.cfi_offset 14, -4
  52:Serial_IO.c   ****     UART_Start();
  95              		.loc 1 52 0
  96 0002 FFF7FEFF 		bl	UART_Start
  97              	.LVL0:
  98 0006 08BD     		pop	{r3, pc}
  99              		.cfi_endproc
 100              	.LFE65:
 101              		.size	Init_Serial_IO, .-Init_Serial_IO
 102              		.section	.text.SER_PutStr,"ax",%progbits
 103              		.align	2
 104              		.global	SER_PutStr
 105              		.thumb
 106              		.thumb_func
 107              		.type	SER_PutStr, %function
 108              	SER_PutStr:
 109              	.LFB66:
  53:Serial_IO.c   **** }
  54:Serial_IO.c   **** 
  55:Serial_IO.c   **** /*
  56:Serial_IO.c   **** void SER_PutChar(uint8 c) 
  57:Serial_IO.c   **** {
  58:Serial_IO.c   ****     UART_WriteTxData(c);
  59:Serial_IO.c   **** }
  60:Serial_IO.c   **** 
  61:Serial_IO.c   **** uint8 SER_GetChar(void)
  62:Serial_IO.c   **** {
ARM GAS  C:\Users\Dan\AppData\Local\Temp\ccZ4WcyX.s 			page 4


  63:Serial_IO.c   ****     return (UART_GetChar());
  64:Serial_IO.c   **** }
  65:Serial_IO.c   **** */
  66:Serial_IO.c   **** 
  67:Serial_IO.c   **** 
  68:Serial_IO.c   **** void SER_PutStr(uint8 *msg)
  69:Serial_IO.c   **** {
 110              		.loc 1 69 0
 111              		.cfi_startproc
 112              		@ args = 0, pretend = 0, frame = 0
 113              		@ frame_needed = 0, uses_anonymous_args = 0
 114              	.LVL1:
 115 0000 10B5     		push	{r4, lr}
 116              		.cfi_def_cfa_offset 8
 117              		.cfi_offset 4, -8
 118              		.cfi_offset 14, -4
 119 0002 0446     		mov	r4, r0
  70:Serial_IO.c   ****     while(*msg != 0x00)
 120              		.loc 1 70 0
 121 0004 02E0     		b	.L9
 122              	.LVL2:
 123              	.L10:
  71:Serial_IO.c   ****     {
  72:Serial_IO.c   ****         SER_PutChar(*msg++);
 124              		.loc 1 72 0
 125 0006 0134     		adds	r4, r4, #1
 126              	.LVL3:
 127 0008 FFF7FEFF 		bl	UART_WriteTxData
 128              	.LVL4:
 129              	.L9:
  70:Serial_IO.c   ****     while(*msg != 0x00)
 130              		.loc 1 70 0
 131 000c 2078     		ldrb	r0, [r4]	@ zero_extendqisi2
 132 000e 0028     		cmp	r0, #0
 133 0010 F9D1     		bne	.L10
  73:Serial_IO.c   ****     }
  74:Serial_IO.c   **** }
 134              		.loc 1 74 0
 135 0012 10BD     		pop	{r4, pc}
 136              		.cfi_endproc
 137              	.LFE66:
 138              		.size	SER_PutStr, .-SER_PutStr
 139              		.section	.text.SER_CheckForRx,"ax",%progbits
 140              		.align	2
 141              		.global	SER_CheckForRx
 142              		.thumb
 143              		.thumb_func
 144              		.type	SER_CheckForRx, %function
 145              	SER_CheckForRx:
 146              	.LFB67:
  75:Serial_IO.c   **** 
  76:Serial_IO.c   **** // check for Rx - returns 0 if the buffer is empty, non zero if data in the buffer
  77:Serial_IO.c   **** uint8 SER_CheckForRx(void)
  78:Serial_IO.c   **** {
 147              		.loc 1 78 0
 148              		.cfi_startproc
 149              		@ args = 0, pretend = 0, frame = 0
ARM GAS  C:\Users\Dan\AppData\Local\Temp\ccZ4WcyX.s 			page 5


 150              		@ frame_needed = 0, uses_anonymous_args = 0
 151 0000 08B5     		push	{r3, lr}
 152              		.cfi_def_cfa_offset 8
 153              		.cfi_offset 3, -8
 154              		.cfi_offset 14, -4
  79:Serial_IO.c   **** //    UART_ReadRxStatus();
  80:Serial_IO.c   ****     return((uint8)UART_GetRxBufferSize());
 155              		.loc 1 80 0
 156 0002 FFF7FEFF 		bl	UART_GetRxBufferSize
 157              	.LVL5:
  81:Serial_IO.c   **** }
 158              		.loc 1 81 0
 159 0006 08BD     		pop	{r3, pc}
 160              		.cfi_endproc
 161              	.LFE67:
 162              		.size	SER_CheckForRx, .-SER_CheckForRx
 163              		.comm	RX_TailPtr,4,4
 164              		.comm	RX_HeadPtr,4,4
 165              		.comm	TX_TailPtr,4,4
 166              		.comm	TX_HeadPtr,4,4
 167              		.comm	RX_BUFF,32,4
 168              		.comm	TX_BUFF,32,4
 169              		.text
 170              	.Letext0:
 171              		.file 2 "c:\\program files (x86)\\cypress\\psoc creator\\4.2\\psoc creator\\import\\gnu\\arm\\5.4.
 172              		.file 3 "c:\\program files (x86)\\cypress\\psoc creator\\4.2\\psoc creator\\import\\gnu\\arm\\5.4.
 173              		.file 4 "Generated_Source\\PSoC5/cytypes.h"
 174              		.file 5 "Generated_Source\\PSoC5/core_cm3.h"
 175              		.file 6 "Generated_Source\\PSoC5/UART.h"