ARM GAS  C:\Users\Dan\AppData\Local\Temp\cc88EIY0.s 			page 1


   1              		.syntax unified
   2              		.cpu cortex-m3
   3              		.fpu softvfp
   4              		.eabi_attribute 20, 1
   5              		.eabi_attribute 21, 1
   6              		.eabi_attribute 23, 3
   7              		.eabi_attribute 24, 1
   8              		.eabi_attribute 25, 1
   9              		.eabi_attribute 26, 1
  10              		.eabi_attribute 30, 1
  11              		.eabi_attribute 34, 1
  12              		.eabi_attribute 18, 4
  13              		.thumb
  14              		.syntax unified
  15              		.file	"ToolCmds.c"
  16              		.text
  17              	.Ltext0:
  18              		.cfi_sections	.debug_frame
  19              		.section	.text.ToolStatusQuery,"ax",%progbits
  20              		.align	2
  21              		.global	ToolStatusQuery
  22              		.thumb
  23              		.thumb_func
  24              		.type	ToolStatusQuery, %function
  25              	ToolStatusQuery:
  26              	.LFB64:
  27              		.file 1 "ToolCmds.c"
   1:ToolCmds.c    **** /* ========================================
   2:ToolCmds.c    ****  *
   3:ToolCmds.c    ****  * Copyright YOUR COMPANY, THE YEAR
   4:ToolCmds.c    ****  * All Rights Reserved
   5:ToolCmds.c    ****  * UNPUBLISHED, LICENSED SOFTWARE.
   6:ToolCmds.c    ****  *
   7:ToolCmds.c    ****  * CONFIDENTIAL AND PROPRIETARY INFORMATION
   8:ToolCmds.c    ****  * WHICH IS THE PROPERTY OF your company.
   9:ToolCmds.c    ****  *
  10:ToolCmds.c    ****  * ========================================
  11:ToolCmds.c    **** */
  12:ToolCmds.c    **** 
  13:ToolCmds.c    **** #include "ToolCmds.h"
  14:ToolCmds.c    **** #include "project.h"
  15:ToolCmds.c    **** #include "Processes.h"
  16:ToolCmds.c    **** #include "State_Machine.h"
  17:ToolCmds.c    **** #include "U_HW.h"
  18:ToolCmds.c    **** 
  19:ToolCmds.c    **** #include "stdio.h"
  20:ToolCmds.c    **** 
  21:ToolCmds.c    **** extern func_ptr MPG_SM;
  22:ToolCmds.c    **** extern uint8 MPG_STATE;
  23:ToolCmds.c    **** 
  24:ToolCmds.c    **** // char t_msg[32];
  25:ToolCmds.c    **** 
  26:ToolCmds.c    **** // ToolStatusQuery - returns the status of the tool changer
  27:ToolCmds.c    **** uint16 ToolStatusQuery(void)
  28:ToolCmds.c    **** {
  28              		.loc 1 28 0
  29              		.cfi_startproc
ARM GAS  C:\Users\Dan\AppData\Local\Temp\cc88EIY0.s 			page 2


  30              		@ args = 0, pretend = 0, frame = 0
  31              		@ frame_needed = 0, uses_anonymous_args = 0
  32              		@ link register save eliminated.
  33              	.LVL0:
  29:ToolCmds.c    ****     uint16 status = 0;
  30:ToolCmds.c    ****     if(MPG_STATE == MPG_STATE_FAULT) status = (1 << TIMEOUT_FAULT_POS);           // in fault state
  34              		.loc 1 30 0
  35 0000 074B     		ldr	r3, .L5
  36 0002 1B78     		ldrb	r3, [r3]	@ zero_extendqisi2
  37 0004 042B     		cmp	r3, #4
  38 0006 01D0     		beq	.L4
  29:ToolCmds.c    ****     uint16 status = 0;
  39              		.loc 1 29 0
  40 0008 0020     		movs	r0, #0
  41 000a 01E0     		b	.L2
  42              	.L4:
  43              		.loc 1 30 0
  44 000c 4FF48040 		mov	r0, #16384
  45              	.L2:
  46              	.LVL1:
  31:ToolCmds.c    ****     if((ESTOP_PORT & Pin_ESTOP_MASK) == 0) status |= (1 << ESTOP_STATUS_POS);   // in ESTOP conditi
  47              		.loc 1 31 0
  48 0010 044B     		ldr	r3, .L5+4
  49 0012 1B78     		ldrb	r3, [r3]	@ zero_extendqisi2
  50 0014 13F0800F 		tst	r3, #128
  51 0018 01D1     		bne	.L3
  52              		.loc 1 31 0 is_stmt 0 discriminator 1
  53 001a 40F40050 		orr	r0, r0, #8192
  54              	.LVL2:
  55              	.L3:
  32:ToolCmds.c    **** /*    
  33:ToolCmds.c    ****     if((FAULT_PORT & Pin_V_Mon2_MASK) == 0) status |= (1 << V24_STATUS_POS);    // 24V under voltag
  34:ToolCmds.c    ****     if((FAULT_PORT & Pin_AC_Mon_MASK) != 0) status |= (1 << VAC_STATUS_POS);    // No AC fault
  35:ToolCmds.c    ****     if((SENSE_PORT & Pin_Tool_Unclamped_MASK) == 0) status |= (1 << UNCLAMP_STATUS_POS);    // tool
  36:ToolCmds.c    ****     if((SENSE_PORT & Pin_Tool_Clamped_MASK) == 0) status |= (1 << CLAMP_STATUS_POS);        // tool
  37:ToolCmds.c    ****     if((SENSE_PORT & Pin_Tool_Arm_Out_MASK) == 0) status |= (1 << ARM_OUT_STATUS_POS);      // tool
  38:ToolCmds.c    ****     if((SENSE_PORT & Pin_Tool_Arm_In_MASK) == 0) status |= (1 << ARM_IN_STATUS_POS);        // tool
  39:ToolCmds.c    ****     if(((SENSE_PORT & Pin_Tool_1_MASK) == 0) || ((SENSE_PORT & Pin_Tool_Count_MASK) == 0)) status |
  40:ToolCmds.c    ****     */
  41:ToolCmds.c    ****     return status;
  42:ToolCmds.c    **** }
  56              		.loc 1 42 0 is_stmt 1
  57 001e 7047     		bx	lr
  58              	.L6:
  59              		.align	2
  60              	.L5:
  61 0020 00000000 		.word	MPG_STATE
  62 0024 31510040 		.word	1073762609
  63              		.cfi_endproc
  64              	.LFE64:
  65              		.size	ToolStatusQuery, .-ToolStatusQuery
  66              		.section	.text.Arm_Cmd,"ax",%progbits
  67              		.align	2
  68              		.global	Arm_Cmd
  69              		.thumb
  70              		.thumb_func
  71              		.type	Arm_Cmd, %function
ARM GAS  C:\Users\Dan\AppData\Local\Temp\cc88EIY0.s 			page 3


  72              	Arm_Cmd:
  73              	.LFB65:
  43:ToolCmds.c    **** 
  44:ToolCmds.c    **** // move Arm Command - 0 = no motion, 1 = back, 2 = out
  45:ToolCmds.c    **** void Arm_Cmd(uint8 arg)
  46:ToolCmds.c    **** {
  74              		.loc 1 46 0
  75              		.cfi_startproc
  76              		@ args = 0, pretend = 0, frame = 0
  77              		@ frame_needed = 0, uses_anonymous_args = 0
  78              	.LVL3:
  79 0000 08B5     		push	{r3, lr}
  80              		.cfi_def_cfa_offset 8
  81              		.cfi_offset 3, -8
  82              		.cfi_offset 14, -4
  47:ToolCmds.c    ****     // make sure not at fault
  48:ToolCmds.c    ****     if(In_Fault() == 1)
  83              		.loc 1 48 0
  84 0002 FFF7FEFF 		bl	In_Fault
  85              	.LVL4:
  86 0006 0128     		cmp	r0, #1
  87 0008 02D1     		bne	.L7
  49:ToolCmds.c    ****     {
  50:ToolCmds.c    ****         MPG_SM = &MPG_Fault;
  88              		.loc 1 50 0
  89 000a 024A     		ldr	r2, .L10
  90 000c 024B     		ldr	r3, .L10+4
  91 000e 1A60     		str	r2, [r3]
  92              	.L7:
  93 0010 08BD     		pop	{r3, pc}
  94              	.L11:
  95 0012 00BF     		.align	2
  96              	.L10:
  97 0014 00000000 		.word	MPG_Fault
  98 0018 00000000 		.word	MPG_SM
  99              		.cfi_endproc
 100              	.LFE65:
 101              		.size	Arm_Cmd, .-Arm_Cmd
 102              		.section	.text.Carousel_Cmd,"ax",%progbits
 103              		.align	2
 104              		.global	Carousel_Cmd
 105              		.thumb
 106              		.thumb_func
 107              		.type	Carousel_Cmd, %function
 108              	Carousel_Cmd:
 109              	.LFB66:
  51:ToolCmds.c    ****     }
  52:ToolCmds.c    **** 
  53:ToolCmds.c    **** }
  54:ToolCmds.c    **** 
  55:ToolCmds.c    **** void Carousel_Cmd(uint8 arg)
  56:ToolCmds.c    **** {
 110              		.loc 1 56 0
 111              		.cfi_startproc
 112              		@ args = 0, pretend = 0, frame = 0
 113              		@ frame_needed = 0, uses_anonymous_args = 0
 114              		@ link register save eliminated.
ARM GAS  C:\Users\Dan\AppData\Local\Temp\cc88EIY0.s 			page 4


 115              	.LVL5:
 116 0000 7047     		bx	lr
 117              		.cfi_endproc
 118              	.LFE66:
 119              		.size	Carousel_Cmd, .-Carousel_Cmd
 120 0002 00BF     		.section	.text.Clamp_Cmd,"ax",%progbits
 121              		.align	2
 122              		.global	Clamp_Cmd
 123              		.thumb
 124              		.thumb_func
 125              		.type	Clamp_Cmd, %function
 126              	Clamp_Cmd:
 127              	.LFB67:
  57:ToolCmds.c    ****     // calculate the shortest path to the desired tool
  58:ToolCmds.c    **** 
  59:ToolCmds.c    **** 
  60:ToolCmds.c    **** }
  61:ToolCmds.c    **** 
  62:ToolCmds.c    **** void Clamp_Cmd(uint8 arg)
  63:ToolCmds.c    **** {
 128              		.loc 1 63 0
 129              		.cfi_startproc
 130              		@ args = 0, pretend = 0, frame = 0
 131              		@ frame_needed = 0, uses_anonymous_args = 0
 132              		@ link register save eliminated.
 133              	.LVL6:
 134 0000 7047     		bx	lr
 135              		.cfi_endproc
 136              	.LFE67:
 137              		.size	Clamp_Cmd, .-Clamp_Cmd
 138 0002 00BF     		.section	.text.Home_Cmd,"ax",%progbits
 139              		.align	2
 140              		.global	Home_Cmd
 141              		.thumb
 142              		.thumb_func
 143              		.type	Home_Cmd, %function
 144              	Home_Cmd:
 145              	.LFB68:
  64:ToolCmds.c    **** 
  65:ToolCmds.c    **** }
  66:ToolCmds.c    **** 
  67:ToolCmds.c    **** void Home_Cmd(uint8 arg)
  68:ToolCmds.c    **** {
 146              		.loc 1 68 0
 147              		.cfi_startproc
 148              		@ args = 0, pretend = 0, frame = 0
 149              		@ frame_needed = 0, uses_anonymous_args = 0
 150              		@ link register save eliminated.
 151              	.LVL7:
 152 0000 7047     		bx	lr
 153              		.cfi_endproc
 154              	.LFE68:
 155              		.size	Home_Cmd, .-Home_Cmd
 156 0002 00BF     		.text
 157              	.Letext0:
 158              		.file 2 "c:\\program files (x86)\\cypress\\psoc creator\\4.2\\psoc creator\\import\\gnu\\arm\\5.4.
 159              		.file 3 "c:\\program files (x86)\\cypress\\psoc creator\\4.2\\psoc creator\\import\\gnu\\arm\\5.4.
ARM GAS  C:\Users\Dan\AppData\Local\Temp\cc88EIY0.s 			page 5


 160              		.file 4 "Generated_Source\\PSoC5/cytypes.h"
 161              		.file 5 "State_Machine.h"
 162              		.file 6 "Generated_Source\\PSoC5/core_cm3.h"
 163              		.file 7 "Processes.h"